

Microchip MPLAB XC8 Assembler V2.50 build 20240725155939 
                                                                                               Sat Dec 21 20:58:01 2024

Microchip MPLAB XC8 C Compiler v2.50 (Free license) build 20240725155939 Og1 
     1                           	processor	16F877A
     2                           	pagewidth 120
     3                           	opt	flic
     4                           	psect	strings,global,class=STRING,space=0,delta=2,noexec
     5                           	psect	cinit,global,class=CODE,space=0,merge=1,delta=2
     6                           	psect	bssBANK1,global,class=BANK1,space=1,delta=1,noexec
     7                           	psect	bssBANK3,global,class=BANK3,space=1,delta=1,noexec
     8                           	psect	bssBANK2,global,class=BANK2,space=1,delta=1,noexec
     9                           	psect	clrtext,global,class=CODE,space=0,delta=2
    10                           	psect	cstackBANK3,global,class=BANK3,space=1,delta=1,noexec
    11                           	psect	cstackBANK1,global,class=BANK1,space=1,delta=1,noexec
    12                           	psect	cstackCOMMON,global,class=COMMON,space=1,delta=1,noexec
    13                           	psect	cstackBANK0,global,class=BANK0,space=1,delta=1,noexec
    14                           	psect	maintext,global,class=CODE,space=0,split=1,delta=2
    15                           	psect	text1,local,class=CODE,space=0,merge=1,delta=2,group=3
    16                           	psect	text2,local,class=CODE,space=0,merge=1,delta=2,group=1
    17                           	psect	text3,local,class=CODE,space=0,merge=1,delta=2,group=1
    18                           	psect	text4,local,class=CODE,space=0,merge=1,delta=2,group=1
    19                           	psect	text5,local,class=CODE,space=0,merge=1,delta=2,group=1
    20                           	psect	text6,local,class=CODE,space=0,merge=1,delta=2,group=2
    21                           	psect	text7,local,class=CODE,space=0,merge=1,delta=2,group=2
    22                           	psect	text8,local,class=CODE,space=0,merge=1,delta=2,group=1
    23                           	psect	text9,local,class=CODE,space=0,merge=1,delta=2,group=2
    24                           	psect	text10,local,class=CODE,space=0,merge=1,delta=2,group=1
    25                           	psect	text11,local,class=CODE,space=0,merge=1,delta=2,group=1
    26                           	psect	text12,local,class=CODE,space=0,merge=1,delta=2,group=1
    27                           	psect	text13,local,class=CODE,space=0,merge=1,delta=2,group=3
    28                           	psect	text14,local,class=CODE,space=0,merge=1,delta=2,group=3
    29                           	psect	text15,local,class=CODE,space=0,merge=1,delta=2,group=3
    30                           	psect	text16,local,class=CODE,space=0,merge=1,delta=2,group=2
    31                           	psect	text17,local,class=CODE,space=0,merge=1,delta=2,group=2
    32                           	psect	text18,local,class=CODE,space=0,merge=1,delta=2,group=1
    33                           	psect	text19,local,class=CODE,space=0,merge=1,delta=2,group=3
    34                           	psect	text20,local,class=CODE,space=0,merge=1,delta=2,group=3
    35                           	psect	text21,local,class=CODE,space=0,merge=1,delta=2
    36                           	psect	text22,local,class=CODE,space=0,merge=1,delta=2
    37                           	psect	intentry,global,class=CODE,space=0,delta=2
    38                           	psect	text23,local,class=CODE,space=0,merge=1,delta=2
    39                           	psect	text24,local,class=CODE,space=0,merge=1,delta=2
    40                           	psect	text25,local,class=CODE,space=0,merge=1,delta=2
    41                           	psect	text26,local,class=CODE,space=0,merge=1,delta=2
    42                           	psect	text27,local,class=CODE,space=0,merge=1,delta=2
    43                           	psect	text28,local,class=CODE,space=0,merge=1,delta=2
    44                           	psect	text29,local,class=CODE,space=0,merge=1,delta=2
    45                           	psect	text30,local,class=CODE,space=0,merge=1,delta=2
    46                           	psect	text31,local,class=CODE,space=0,merge=1,delta=2
    47                           	psect	text32,local,class=CODE,space=0,merge=1,delta=2
    48                           	psect	text33,local,class=CODE,space=0,merge=1,delta=2
    49                           	psect	text34,local,class=CODE,space=0,merge=1,delta=2
    50                           	psect	text35,local,class=CODE,space=0,merge=1,delta=2
    51                           	psect	text36,local,class=CODE,space=0,merge=1,delta=2
    52                           	psect	text37,local,class=CODE,space=0,merge=1,delta=2
    53                           	psect	text38,local,class=CODE,space=0,merge=1,delta=2
    54                           	psect	text39,local,class=CODE,space=0,merge=1,delta=2
    55                           	psect	text40,local,class=CODE,space=0,merge=1,delta=2
    56                           	psect	text41,local,class=CODE,space=0,merge=1,delta=2
    57                           	psect	text42,local,class=CODE,space=0,merge=1,delta=2
    58                           	psect	text43,local,class=CODE,space=0,merge=1,delta=2
    59                           	psect	config,global,abs,ovrld,class=CONFIG,space=4,delta=2,noexec
    60                           	dabs	1,0x7E,2
    61     0000                     
    62                           ; Generated 12/10/2023 GMT
    63                           ; 
    64                           ; Copyright © 2023, Microchip Technology Inc. and its subsidiaries ("Microchip")
    65                           ; All rights reserved.
    66                           ; 
    67                           ; This software is developed by Microchip Technology Inc. and its subsidiaries ("Microch
      +                          ip").
    68                           ; 
    69                           ; Redistribution and use in source and binary forms, with or without modification, are
    70                           ; permitted provided that the following conditions are met:
    71                           ; 
    72                           ;     1. Redistributions of source code must retain the above copyright notice, this lis
      +                          t of
    73                           ;        conditions and the following disclaimer.
    74                           ; 
    75                           ;     2. Redistributions in binary form must reproduce the above copyright notice, this 
      +                          list
    76                           ;        of conditions and the following disclaimer in the documentation and/or other
    77                           ;        materials provided with the distribution. Publication is not required when
    78                           ;        this file is used in an embedded application.
    79                           ; 
    80                           ;     3. Microchip's name may not be used to endorse or promote products derived from th
      +                          is
    81                           ;        software without specific prior written permission.
    82                           ; 
    83                           ; THIS SOFTWARE IS PROVIDED BY MICROCHIP "AS IS" AND ANY EXPRESS OR IMPLIED WARRANTIES,
    84                           ; INCLUDING, BUT NOT LIMITED TO, THE IMPLIED WARRANTIES OF MERCHANTABILITY AND FITNESS F
      +                          OR
    85                           ; PURPOSE ARE DISCLAIMED.  IN NO EVENT SHALL MICROCHIP BE LIABLE FOR ANY DIRECT, INDIREC
      +                          T,
    86                           ; INCIDENTAL, SPECIAL, EXEMPLARY, OR CONSEQUENTIAL DAMAGES (INCLUDING BUT NOT LIMITED TO
    87                           ; PROCUREMENT OF SUBSTITUTE GOODS OR SERVICES; LOSS OF USE, DATA OR PROFITS; OR BUSINESS
    88                           ; INTERRUPTION) HOWSOEVER CAUSED AND ON ANY THEORY OF LIABILITY, WHETHER IN CONTRACT, ST
      +                          RICT
    89                           ; LIABILITY, OR TORT (INCLUDING NEGLIGENCE OR OTHERWISE) ARISING IN ANY WAY OUT OF THE U
      +                          SE OF
    90                           ; THIS SOFTWARE, EVEN IF ADVISED OF THE POSSIBILITY OF SUCH DAMAGE.
    91                           ; 
    92                           ; 
    93                           ; Code-generator required, PIC16F877A Definitions
    94                           ; 
    95                           ; SFR Addresses
    96     0004                     fsr             equ	4
    97     0004                     fsr0            equ	4
    98     0000                     indf            equ	0
    99     0000                     indf0           equ	0
   100     0002                     pc              equ	2
   101     0002                     pcl             equ	2
   102     000A                     pclath          equ	10
   103     0003                     status          equ	3
   104     0000                     INDF            equ	0	;# 
   105     0001                     TMR0            equ	1	;# 
   106     0002                     PCL             equ	2	;# 
   107     0003                     STATUS          equ	3	;# 
   108     0004                     FSR             equ	4	;# 
   109     0005                     PORTA           equ	5	;# 
   110     0006                     PORTB           equ	6	;# 
   111     0007                     PORTC           equ	7	;# 
   112     0008                     PORTD           equ	8	;# 
   113     0009                     PORTE           equ	9	;# 
   114     000A                     PCLATH          equ	10	;# 
   115     000B                     INTCON          equ	11	;# 
   116     000C                     PIR1            equ	12	;# 
   117     000D                     PIR2            equ	13	;# 
   118     000E                     TMR1            equ	14	;# 
   119     000E                     TMR1L           equ	14	;# 
   120     000F                     TMR1H           equ	15	;# 
   121     0010                     T1CON           equ	16	;# 
   122     0011                     TMR2            equ	17	;# 
   123     0012                     T2CON           equ	18	;# 
   124     0013                     SSPBUF          equ	19	;# 
   125     0014                     SSPCON          equ	20	;# 
   126     0015                     CCPR1           equ	21	;# 
   127     0015                     CCPR1L          equ	21	;# 
   128     0016                     CCPR1H          equ	22	;# 
   129     0017                     CCP1CON         equ	23	;# 
   130     0018                     RCSTA           equ	24	;# 
   131     0019                     TXREG           equ	25	;# 
   132     001A                     RCREG           equ	26	;# 
   133     001B                     CCPR2           equ	27	;# 
   134     001B                     CCPR2L          equ	27	;# 
   135     001C                     CCPR2H          equ	28	;# 
   136     001D                     CCP2CON         equ	29	;# 
   137     001E                     ADRESH          equ	30	;# 
   138     001F                     ADCON0          equ	31	;# 
   139     0081                     OPTION_REG      equ	129	;# 
   140     0085                     TRISA           equ	133	;# 
   141     0086                     TRISB           equ	134	;# 
   142     0087                     TRISC           equ	135	;# 
   143     0088                     TRISD           equ	136	;# 
   144     0089                     TRISE           equ	137	;# 
   145     008C                     PIE1            equ	140	;# 
   146     008D                     PIE2            equ	141	;# 
   147     008E                     PCON            equ	142	;# 
   148     0091                     SSPCON2         equ	145	;# 
   149     0092                     PR2             equ	146	;# 
   150     0093                     SSPADD          equ	147	;# 
   151     0094                     SSPSTAT         equ	148	;# 
   152     0098                     TXSTA           equ	152	;# 
   153     0099                     SPBRG           equ	153	;# 
   154     009C                     CMCON           equ	156	;# 
   155     009D                     CVRCON          equ	157	;# 
   156     009E                     ADRESL          equ	158	;# 
   157     009F                     ADCON1          equ	159	;# 
   158     010C                     EEDATA          equ	268	;# 
   159     010D                     EEADR           equ	269	;# 
   160     010E                     EEDATH          equ	270	;# 
   161     010F                     EEADRH          equ	271	;# 
   162     018C                     EECON1          equ	396	;# 
   163     018D                     EECON2          equ	397	;# 
   164     0000                     INDF            equ	0	;# 
   165     0001                     TMR0            equ	1	;# 
   166     0002                     PCL             equ	2	;# 
   167     0003                     STATUS          equ	3	;# 
   168     0004                     FSR             equ	4	;# 
   169     0005                     PORTA           equ	5	;# 
   170     0006                     PORTB           equ	6	;# 
   171     0007                     PORTC           equ	7	;# 
   172     0008                     PORTD           equ	8	;# 
   173     0009                     PORTE           equ	9	;# 
   174     000A                     PCLATH          equ	10	;# 
   175     000B                     INTCON          equ	11	;# 
   176     000C                     PIR1            equ	12	;# 
   177     000D                     PIR2            equ	13	;# 
   178     000E                     TMR1            equ	14	;# 
   179     000E                     TMR1L           equ	14	;# 
   180     000F                     TMR1H           equ	15	;# 
   181     0010                     T1CON           equ	16	;# 
   182     0011                     TMR2            equ	17	;# 
   183     0012                     T2CON           equ	18	;# 
   184     0013                     SSPBUF          equ	19	;# 
   185     0014                     SSPCON          equ	20	;# 
   186     0015                     CCPR1           equ	21	;# 
   187     0015                     CCPR1L          equ	21	;# 
   188     0016                     CCPR1H          equ	22	;# 
   189     0017                     CCP1CON         equ	23	;# 
   190     0018                     RCSTA           equ	24	;# 
   191     0019                     TXREG           equ	25	;# 
   192     001A                     RCREG           equ	26	;# 
   193     001B                     CCPR2           equ	27	;# 
   194     001B                     CCPR2L          equ	27	;# 
   195     001C                     CCPR2H          equ	28	;# 
   196     001D                     CCP2CON         equ	29	;# 
   197     001E                     ADRESH          equ	30	;# 
   198     001F                     ADCON0          equ	31	;# 
   199     0081                     OPTION_REG      equ	129	;# 
   200     0085                     TRISA           equ	133	;# 
   201     0086                     TRISB           equ	134	;# 
   202     0087                     TRISC           equ	135	;# 
   203     0088                     TRISD           equ	136	;# 
   204     0089                     TRISE           equ	137	;# 
   205     008C                     PIE1            equ	140	;# 
   206     008D                     PIE2            equ	141	;# 
   207     008E                     PCON            equ	142	;# 
   208     0091                     SSPCON2         equ	145	;# 
   209     0092                     PR2             equ	146	;# 
   210     0093                     SSPADD          equ	147	;# 
   211     0094                     SSPSTAT         equ	148	;# 
   212     0098                     TXSTA           equ	152	;# 
   213     0099                     SPBRG           equ	153	;# 
   214     009C                     CMCON           equ	156	;# 
   215     009D                     CVRCON          equ	157	;# 
   216     009E                     ADRESL          equ	158	;# 
   217     009F                     ADCON1          equ	159	;# 
   218     010C                     EEDATA          equ	268	;# 
   219     010D                     EEADR           equ	269	;# 
   220     010E                     EEDATH          equ	270	;# 
   221     010F                     EEADRH          equ	271	;# 
   222     018C                     EECON1          equ	396	;# 
   223     018D                     EECON2          equ	397	;# 
   224     001E                     _ADRESH         set	30
   225     001F                     _ADCON0         set	31
   226     0008                     _PORTD          set	8
   227     0007                     _PORTC          set	7
   228     0059                     _INTF           set	89
   229     0041                     _RD1            set	65
   230     0040                     _RD0            set	64
   231     00FA                     _GO_nDONE       set	250
   232     005F                     _GIE            set	95
   233     005C                     _INTE           set	92
   234     009E                     _ADRESL         set	158
   235     0081                     _OPTION_REG     set	129
   236     009F                     _ADCON1         set	159
   237     0088                     _TRISD          set	136
   238     0087                     _TRISC          set	135
   239                           
   240                           	psect	strings
   241     1800                     __pstrings:
   242     1800                     stringtab:
   243     1800                     __stringtab:
   244                           
   245                           ;	String table - string pointers are 1 byte each
   246     1800  1BFF               	btfsc	btemp+1,7
   247     1801  280A               	ljmp	stringcode
   248     1802  1383               	bcf	3,7
   249     1803  187F               	btfsc	btemp+1,0
   250     1804  1783               	bsf	3,7
   251     1805  0800               	movf	0,w
   252     1806  0A84               	incf	4,f
   253     1807  1903               	skipnz
   254     1808  0AFF               	incf	btemp+1,f
   255     1809  0008               	return
   256     180A                     stringcode:
   257     180A                     stringdir:
   258     180A  3018               	movlw	high stringdir
   259     180B  008A               	movwf	10
   260     180C  0804               	movf	4,w
   261     180D  0A84               	incf	4,f
   262     180E  0782               	addwf	2,f
   263     180F                     __stringbase:
   264     180F  3400               	retlw	0
   265     1810                     __end_of__stringtab:
   266     1810                     STR_1:
   267     1810  3425               	retlw	37	;'%'
   268     1811  3430               	retlw	48	;'0'
   269     1812  3434               	retlw	52	;'4'
   270     1813  3464               	retlw	100	;'d'
   271     1814  3400               	retlw	0
   272     1810                     STR_2           equ	STR_1
   273                           
   274                           	psect	cinit
   275     0015                     start_initialization:	
   276                           ; #config settings
   277                           
   278     0015                     __initialization:
   279                           
   280                           ; Clear objects allocated to BANK1
   281     0015  1683               	bsf	3,5	;RP0=1, select bank1
   282     0016  1303               	bcf	3,6	;RP1=0, select bank1
   283     0017  01D7               	clrf	__pbssBANK1& (0+127)
   284     0018  01D8               	clrf	(__pbssBANK1+1)& (0+127)
   285     0019  01D9               	clrf	(__pbssBANK1+2)& (0+127)
   286     001A  01DA               	clrf	(__pbssBANK1+3)& (0+127)
   287     001B  01DB               	clrf	(__pbssBANK1+4)& (0+127)
   288     001C  01DC               	clrf	(__pbssBANK1+5)& (0+127)
   289     001D  01DD               	clrf	(__pbssBANK1+6)& (0+127)
   290                           
   291                           ; Clear objects allocated to BANK3
   292     001E  1683               	bsf	3,5	;RP0=1, select bank3
   293     001F  1703               	bsf	3,6	;RP1=1, select bank3
   294     0020  01E7               	clrf	__pbssBANK3& (0+127)
   295     0021  01E8               	clrf	(__pbssBANK3+1)& (0+127)
   296                           
   297                           ; Clear objects allocated to BANK2
   298     0022  1783               	bsf	3,7	;select IRP bank2
   299     0023  3010               	movlw	low __pbssBANK2
   300     0024  0084               	movwf	4
   301     0025  3030               	movlw	low (__pbssBANK2+32)
   302     0026  120A  118A  27F6  120A  118A  	fcall	clear_ram0
   303     002B                     end_of_initialization:	
   304                           ;End of C runtime variable initialization code
   305                           
   306     002B                     __end_of__initialization:
   307     002B  0183               	clrf	3
   308     002C  120A  118A  2DA0   	ljmp	_main	;jump to C main() function
   309                           
   310                           	psect	bssBANK1
   311     00D7                     __pbssBANK1:
   312     00D7                     _width:
   313     00D7                     	ds	2
   314     00D9                     _prec:
   315     00D9                     	ds	2
   316     00DB                     _count:
   317     00DB                     	ds	2
   318     00DD                     _flags:
   319     00DD                     	ds	1
   320                           
   321                           	psect	bssBANK3
   322     01E7                     __pbssBANK3:
   323     01E7                     _nout:
   324     01E7                     	ds	2
   325                           
   326                           	psect	bssBANK2
   327     0110                     __pbssBANK2:
   328     0110                     _dbuf:
   329     0110                     	ds	32
   330                           
   331                           	psect	clrtext
   332     07F6                     clear_ram0:	
   333                           ;	Called with FSR containing the base address, and
   334                           ;	W with the last address+1
   335                           
   336     07F6  0064               	clrwdt	;clear the watchdog before getting into this loop
   337     07F7                     clrloop0:
   338     07F7  0180               	clrf	0	;clear RAM location pointed to by FSR
   339     07F8  0A84               	incf	4,f	;increment pointer
   340     07F9  0604               	xorwf	4,w	;XOR with final address
   341     07FA  1903               	btfsc	3,2	;have we reached the end yet?
   342     07FB  3400               	retlw	0	;all done for this memory range, return
   343     07FC  0604               	xorwf	4,w	;XOR again to restore value
   344     07FD  2FF7               	goto	clrloop0	;do the next byte
   345                           
   346                           	psect	cstackBANK3
   347     0190                     __pcstackBANK3:
   348     0190                     xtoa@a:
   349     0190                     _dtoa$616:	
   350                           ; 1 bytes @ 0x0
   351                           
   352     0190                     otoa@p:	
   353                           ; 2 bytes @ 0x0
   354                           
   355     0190                     utoa@p:	
   356                           ; 2 bytes @ 0x0
   357                           
   358                           
   359                           ; 2 bytes @ 0x0
   360     0190                     	ds	1
   361     0191                     _xtoa$641:
   362                           
   363                           ; 2 bytes @ 0x1
   364     0191                     	ds	1
   365     0192                     dtoa@p:
   366     0192                     otoa@w:	
   367                           ; 2 bytes @ 0x2
   368                           
   369     0192                     utoa@w:	
   370                           ; 2 bytes @ 0x2
   371                           
   372                           
   373                           ; 2 bytes @ 0x2
   374     0192                     	ds	1
   375     0193                     xtoa@p:
   376                           
   377                           ; 2 bytes @ 0x3
   378     0193                     	ds	1
   379     0194                     otoa@t:
   380     0194                     dtoa@w:	
   381                           ; 1 bytes @ 0x4
   382                           
   383     0194                     utoa@i:	
   384                           ; 2 bytes @ 0x4
   385                           
   386                           
   387                           ; 2 bytes @ 0x4
   388     0194                     	ds	1
   389     0195                     xtoa@d_nonzero:
   390     0195                     otoa@i:	
   391                           ; 1 bytes @ 0x5
   392                           
   393                           
   394                           ; 2 bytes @ 0x5
   395     0195                     	ds	1
   396     0196                     dtoa@s:
   397     0196                     xtoa@w:	
   398                           ; 1 bytes @ 0x6
   399                           
   400                           
   401                           ; 2 bytes @ 0x6
   402     0196                     	ds	1
   403     0197                     dtoa@i:
   404                           
   405                           ; 2 bytes @ 0x7
   406     0197                     	ds	1
   407     0198                     xtoa@c:
   408                           
   409                           ; 1 bytes @ 0x8
   410     0198                     	ds	1
   411     0199                     xtoa@i:
   412                           
   413                           ; 2 bytes @ 0x9
   414     0199                     	ds	2
   415     019B                     ?_vfpfcnvrt:
   416     019B                     vfpfcnvrt@fp:	
   417                           ; 2 bytes @ 0xB
   418                           
   419                           
   420                           ; 2 bytes @ 0xB
   421     019B                     	ds	2
   422     019D                     vfpfcnvrt@fmt:
   423                           
   424                           ; 1 bytes @ 0xD
   425     019D                     	ds	1
   426     019E                     vfpfcnvrt@ap:
   427                           
   428                           ; 2 bytes @ 0xE
   429     019E                     	ds	2
   430     01A0                     ??_vfpfcnvrt:
   431                           
   432                           ; 1 bytes @ 0x10
   433     01A0                     	ds	4
   434     01A4                     vfpfcnvrt@done:
   435                           
   436                           ; 1 bytes @ 0x14
   437     01A4                     	ds	1
   438     01A5                     vfpfcnvrt@c:
   439                           
   440                           ; 1 bytes @ 0x15
   441     01A5                     	ds	1
   442     01A6                     vfpfcnvrt@convarg:
   443                           
   444                           ; 4 bytes @ 0x16
   445     01A6                     	ds	4
   446     01AA                     vfpfcnvrt@cp:
   447                           
   448                           ; 2 bytes @ 0x1A
   449     01AA                     	ds	2
   450     01AC                     ?_vfprintf:
   451     01AC                     vfprintf@fp:	
   452                           ; 2 bytes @ 0x1C
   453                           
   454                           
   455                           ; 2 bytes @ 0x1C
   456     01AC                     	ds	2
   457     01AE                     vfprintf@fmt:
   458                           
   459                           ; 2 bytes @ 0x1E
   460     01AE                     	ds	2
   461     01B0                     vfprintf@ap:
   462                           
   463                           ; 1 bytes @ 0x20
   464     01B0                     	ds	1
   465     01B1                     ?_sprintf:
   466     01B1                     sprintf@s:	
   467                           ; 2 bytes @ 0x21
   468                           
   469                           
   470                           ; 2 bytes @ 0x21
   471     01B1                     	ds	2
   472     01B3                     sprintf@fmt:
   473                           
   474                           ; 2 bytes @ 0x23
   475     01B3                     	ds	4
   476     01B7                     ??_sprintf:
   477                           
   478                           ; 1 bytes @ 0x27
   479     01B7                     	ds	3
   480     01BA                     sprintf@f:
   481                           
   482                           ; 11 bytes @ 0x2A
   483     01BA                     	ds	11
   484     01C5                     sprintf@ap:
   485                           
   486                           ; 1 bytes @ 0x35
   487     01C5                     	ds	1
   488     01C6                     ??_main:
   489                           
   490                           ; 1 bytes @ 0x36
   491     01C6                     	ds	3
   492     01C9                     main@a:
   493                           
   494                           ; 10 bytes @ 0x39
   495     01C9                     	ds	10
   496     01D3                     main@b:
   497                           
   498                           ; 10 bytes @ 0x43
   499     01D3                     	ds	10
   500     01DD                     main@Low_bits:
   501                           
   502                           ; 2 bytes @ 0x4D
   503     01DD                     	ds	2
   504     01DF                     main@high_bits:
   505                           
   506                           ; 2 bytes @ 0x4F
   507     01DF                     	ds	2
   508     01E1                     main@bits:
   509                           
   510                           ; 2 bytes @ 0x51
   511     01E1                     	ds	2
   512     01E3                     main@i:
   513                           
   514                           ; 2 bytes @ 0x53
   515     01E3                     	ds	2
   516     01E5                     main@i_70:
   517                           
   518                           ; 2 bytes @ 0x55
   519     01E5                     	ds	2
   520                           
   521                           	psect	cstackBANK1
   522     00A0                     __pcstackBANK1:
   523     00A0                     ??_ISR:
   524                           
   525                           ; 1 bytes @ 0x0
   526     00A0                     	ds	6
   527     00A6                     ISR@c:
   528                           
   529                           ; 10 bytes @ 0x6
   530     00A6                     	ds	10
   531     00B0                     ISR@i:
   532                           
   533                           ; 2 bytes @ 0x10
   534     00B0                     	ds	2
   535     00B2                     ?_display:
   536     00B2                     ?_fputc:	
   537                           ; 1 bytes @ 0x12
   538                           
   539     00B2                     ?_strlen:	
   540                           ; 2 bytes @ 0x12
   541                           
   542     00B2                     ?___wmul:	
   543                           ; 2 bytes @ 0x12
   544                           
   545     00B2                     ?___awdiv:	
   546                           ; 2 bytes @ 0x12
   547                           
   548     00B2                     ?___awmod:	
   549                           ; 2 bytes @ 0x12
   550                           
   551     00B2                     ?___lwdiv:	
   552                           ; 2 bytes @ 0x12
   553                           
   554     00B2                     ?___lwmod:	
   555                           ; 2 bytes @ 0x12
   556                           
   557     00B2                     strlen@s:	
   558                           ; 2 bytes @ 0x12
   559                           
   560     00B2                     display@RS:	
   561                           ; 1 bytes @ 0x12
   562                           
   563     00B2                     ___wmul@multiplier:	
   564                           ; 2 bytes @ 0x12
   565                           
   566     00B2                     ___awdiv@divisor:	
   567                           ; 2 bytes @ 0x12
   568                           
   569     00B2                     ___awmod@divisor:	
   570                           ; 2 bytes @ 0x12
   571                           
   572     00B2                     ___lwdiv@divisor:	
   573                           ; 2 bytes @ 0x12
   574                           
   575     00B2                     ___lwmod@divisor:	
   576                           ; 2 bytes @ 0x12
   577                           
   578     00B2                     fputc@c:	
   579                           ; 2 bytes @ 0x12
   580                           
   581     00B2                     ??_putch:	
   582                           ; 2 bytes @ 0x12
   583                           
   584                           
   585                           ; 1 bytes @ 0x12
   586     00B2                     	ds	2
   587     00B4                     strlen@a:
   588     00B4                     display@DC:	
   589                           ; 1 bytes @ 0x14
   590                           
   591     00B4                     ___wmul@multiplicand:	
   592                           ; 2 bytes @ 0x14
   593                           
   594     00B4                     ___awdiv@dividend:	
   595                           ; 2 bytes @ 0x14
   596                           
   597     00B4                     ___awmod@dividend:	
   598                           ; 2 bytes @ 0x14
   599                           
   600     00B4                     ___lwdiv@dividend:	
   601                           ; 2 bytes @ 0x14
   602                           
   603     00B4                     ___lwmod@dividend:	
   604                           ; 2 bytes @ 0x14
   605                           
   606     00B4                     fputc@fp:	
   607                           ; 2 bytes @ 0x14
   608                           
   609     00B4                     ??_strlen:	
   610                           ; 2 bytes @ 0x14
   611                           
   612                           
   613                           ; 1 bytes @ 0x14
   614     00B4                     	ds	2
   615     00B6                     ___awdiv@counter:
   616     00B6                     ___awmod@counter:	
   617                           ; 1 bytes @ 0x16
   618                           
   619     00B6                     ___lwdiv@counter:	
   620                           ; 1 bytes @ 0x16
   621                           
   622     00B6                     ___lwmod@counter:	
   623                           ; 1 bytes @ 0x16
   624                           
   625     00B6                     ___wmul@product:	
   626                           ; 1 bytes @ 0x16
   627                           
   628     00B6                     ??_display:	
   629                           ; 2 bytes @ 0x16
   630                           
   631     00B6                     ??_fputc:	
   632                           ; 1 bytes @ 0x16
   633                           
   634     00B6                     ??___wmul:	
   635                           ; 1 bytes @ 0x16
   636                           
   637     00B6                     ??___awdiv:	
   638                           ; 1 bytes @ 0x16
   639                           
   640     00B6                     ??___awmod:	
   641                           ; 1 bytes @ 0x16
   642                           
   643     00B6                     ??___lwdiv:	
   644                           ; 1 bytes @ 0x16
   645                           
   646     00B6                     ??___lwmod:	
   647                           ; 1 bytes @ 0x16
   648                           
   649                           
   650                           ; 1 bytes @ 0x16
   651     00B6                     	ds	1
   652     00B7                     ___awdiv@sign:
   653     00B7                     ___awmod@sign:	
   654                           ; 1 bytes @ 0x17
   655                           
   656     00B7                     ___lwdiv@quotient:	
   657                           ; 1 bytes @ 0x17
   658                           
   659                           
   660                           ; 2 bytes @ 0x17
   661     00B7                     	ds	1
   662     00B8                     ?_abs:
   663     00B8                     ?_read_prec_or_width:	
   664                           ; 2 bytes @ 0x18
   665                           
   666     00B8                     read_prec_or_width@fmt:	
   667                           ; 2 bytes @ 0x18
   668                           
   669     00B8                     ___awdiv@quotient:	
   670                           ; 1 bytes @ 0x18
   671                           
   672     00B8                     abs@a:	
   673                           ; 2 bytes @ 0x18
   674                           
   675                           
   676                           ; 2 bytes @ 0x18
   677     00B8                     	ds	1
   678     00B9                     read_prec_or_width@ap:
   679                           
   680                           ; 1 bytes @ 0x19
   681     00B9                     	ds	1
   682     00BA                     ??_abs:
   683     00BA                     ??_read_prec_or_width:	
   684                           ; 1 bytes @ 0x1A
   685                           
   686                           
   687                           ; 1 bytes @ 0x1A
   688     00BA                     	ds	2
   689     00BC                     read_prec_or_width@c:
   690                           
   691                           ; 1 bytes @ 0x1C
   692     00BC                     	ds	1
   693     00BD                     read_prec_or_width@n:
   694                           
   695                           ; 2 bytes @ 0x1D
   696     00BD                     	ds	2
   697     00BF                     ?_fputs:
   698     00BF                     ?_ctoa:	
   699                           ; 2 bytes @ 0x1F
   700                           
   701     00BF                     fputs@s:	
   702                           ; 2 bytes @ 0x1F
   703                           
   704     00BF                     ctoa@fp:	
   705                           ; 1 bytes @ 0x1F
   706                           
   707                           
   708                           ; 2 bytes @ 0x1F
   709     00BF                     	ds	1
   710     00C0                     fputs@fp:
   711                           
   712                           ; 2 bytes @ 0x20
   713     00C0                     	ds	1
   714     00C1                     ctoa@c:
   715                           
   716                           ; 1 bytes @ 0x21
   717     00C1                     	ds	1
   718     00C2                     ??_fputs:
   719     00C2                     ??_ctoa:	
   720                           ; 1 bytes @ 0x22
   721                           
   722                           
   723                           ; 1 bytes @ 0x22
   724     00C2                     	ds	2
   725     00C4                     fputs@c:
   726     00C4                     ctoa@l:	
   727                           ; 1 bytes @ 0x24
   728                           
   729                           
   730                           ; 2 bytes @ 0x24
   731     00C4                     	ds	1
   732     00C5                     fputs@i:
   733                           
   734                           ; 2 bytes @ 0x25
   735     00C5                     	ds	1
   736     00C6                     ctoa@w:
   737                           
   738                           ; 2 bytes @ 0x26
   739     00C6                     	ds	1
   740     00C7                     ?_pad:
   741     00C7                     pad@fp:	
   742                           ; 2 bytes @ 0x27
   743                           
   744                           
   745                           ; 2 bytes @ 0x27
   746     00C7                     	ds	2
   747     00C9                     pad@buf:
   748                           
   749                           ; 1 bytes @ 0x29
   750     00C9                     	ds	1
   751     00CA                     pad@p:
   752                           
   753                           ; 2 bytes @ 0x2A
   754     00CA                     	ds	2
   755     00CC                     ??_pad:
   756                           
   757                           ; 1 bytes @ 0x2C
   758     00CC                     	ds	1
   759     00CD                     pad@i:
   760                           
   761                           ; 2 bytes @ 0x2D
   762     00CD                     	ds	2
   763     00CF                     ?_dtoa:
   764     00CF                     ?_otoa:	
   765                           ; 2 bytes @ 0x2F
   766                           
   767     00CF                     ?_utoa:	
   768                           ; 2 bytes @ 0x2F
   769                           
   770     00CF                     ?_xtoa:	
   771                           ; 2 bytes @ 0x2F
   772                           
   773     00CF                     dtoa@fp:	
   774                           ; 2 bytes @ 0x2F
   775                           
   776     00CF                     otoa@fp:	
   777                           ; 2 bytes @ 0x2F
   778                           
   779     00CF                     utoa@fp:	
   780                           ; 2 bytes @ 0x2F
   781                           
   782     00CF                     xtoa@fp:	
   783                           ; 2 bytes @ 0x2F
   784                           
   785                           
   786                           ; 2 bytes @ 0x2F
   787     00CF                     	ds	2
   788     00D1                     dtoa@d:
   789     00D1                     otoa@d:	
   790                           ; 2 bytes @ 0x31
   791                           
   792     00D1                     utoa@d:	
   793                           ; 2 bytes @ 0x31
   794                           
   795     00D1                     xtoa@d:	
   796                           ; 2 bytes @ 0x31
   797                           
   798                           
   799                           ; 2 bytes @ 0x31
   800     00D1                     	ds	2
   801     00D3                     xtoa@x:
   802     00D3                     ??_dtoa:	
   803                           ; 1 bytes @ 0x33
   804                           
   805     00D3                     ??_otoa:	
   806                           ; 1 bytes @ 0x33
   807                           
   808     00D3                     ??_utoa:	
   809                           ; 1 bytes @ 0x33
   810                           
   811                           
   812                           ; 1 bytes @ 0x33
   813     00D3                     	ds	1
   814     00D4                     ??_xtoa:
   815                           
   816                           ; 1 bytes @ 0x34
   817     00D4                     	ds	1
   818     00D5                     vfprintf@cfmt:
   819     00D5                     ??_vfprintf:	
   820                           ; 2 bytes @ 0x35
   821                           
   822                           
   823                           ; 1 bytes @ 0x35
   824     00D5                     	ds	2
   825                           
   826                           	psect	cstackCOMMON
   827     0070                     __pcstackCOMMON:
   828     0070                     ?_putch:
   829     0070                     ?_main:	
   830                           ; 1 bytes @ 0x0
   831                           
   832     0070                     ?_ISR:	
   833                           ; 1 bytes @ 0x0
   834                           
   835     0070                     ?i1_display:	
   836                           ; 1 bytes @ 0x0
   837                           
   838     0070                     ?i1_putch:	
   839                           ; 1 bytes @ 0x0
   840                           
   841     0070                     ?i1___wmul:	
   842                           ; 1 bytes @ 0x0
   843                           
   844     0070                     ?i1___awdiv:	
   845                           ; 2 bytes @ 0x0
   846                           
   847     0070                     ?i1___awmod:	
   848                           ; 2 bytes @ 0x0
   849                           
   850     0070                     ?i1___lwdiv:	
   851                           ; 2 bytes @ 0x0
   852                           
   853     0070                     ?i1___lwmod:	
   854                           ; 2 bytes @ 0x0
   855                           
   856     0070                     ?i1_fputc:	
   857                           ; 2 bytes @ 0x0
   858                           
   859     0070                     ?i1_strlen:	
   860                           ; 2 bytes @ 0x0
   861                           
   862     0070                     putch@c:	
   863                           ; 2 bytes @ 0x0
   864                           
   865     0070                     i1strlen@s:	
   866                           ; 1 bytes @ 0x0
   867                           
   868     0070                     i1display@RS:	
   869                           ; 1 bytes @ 0x0
   870                           
   871     0070                     i1___wmul@multiplier:	
   872                           ; 2 bytes @ 0x0
   873                           
   874     0070                     i1___awdiv@divisor:	
   875                           ; 2 bytes @ 0x0
   876                           
   877     0070                     i1___awmod@divisor:	
   878                           ; 2 bytes @ 0x0
   879                           
   880     0070                     i1___lwdiv@divisor:	
   881                           ; 2 bytes @ 0x0
   882                           
   883     0070                     i1___lwmod@divisor:	
   884                           ; 2 bytes @ 0x0
   885                           
   886     0070                     i1fputc@c:	
   887                           ; 2 bytes @ 0x0
   888                           
   889     0070                     ??i1_putch:	
   890                           ; 2 bytes @ 0x0
   891                           
   892                           
   893                           ; 1 bytes @ 0x0
   894     0070                     	ds	2
   895     0072                     i1strlen@a:
   896     0072                     i1display@DC:	
   897                           ; 1 bytes @ 0x2
   898                           
   899     0072                     i1___wmul@multiplicand:	
   900                           ; 2 bytes @ 0x2
   901                           
   902     0072                     i1___awdiv@dividend:	
   903                           ; 2 bytes @ 0x2
   904                           
   905     0072                     i1___awmod@dividend:	
   906                           ; 2 bytes @ 0x2
   907                           
   908     0072                     i1___lwdiv@dividend:	
   909                           ; 2 bytes @ 0x2
   910                           
   911     0072                     i1___lwmod@dividend:	
   912                           ; 2 bytes @ 0x2
   913                           
   914     0072                     i1fputc@fp:	
   915                           ; 2 bytes @ 0x2
   916                           
   917     0072                     ??i1_strlen:	
   918                           ; 2 bytes @ 0x2
   919                           
   920                           
   921                           ; 1 bytes @ 0x2
   922     0072                     	ds	2
   923     0074                     i1___awdiv@counter:
   924     0074                     i1___awmod@counter:	
   925                           ; 1 bytes @ 0x4
   926                           
   927     0074                     i1___lwmod@counter:	
   928                           ; 1 bytes @ 0x4
   929                           
   930     0074                     i1___wmul@product:	
   931                           ; 1 bytes @ 0x4
   932                           
   933     0074                     i1___lwdiv@quotient:	
   934                           ; 2 bytes @ 0x4
   935                           
   936     0074                     ??i1_display:	
   937                           ; 2 bytes @ 0x4
   938                           
   939     0074                     ??i1___wmul:	
   940                           ; 1 bytes @ 0x4
   941                           
   942     0074                     ??i1___awdiv:	
   943                           ; 1 bytes @ 0x4
   944                           
   945     0074                     ??i1___awmod:	
   946                           ; 1 bytes @ 0x4
   947                           
   948     0074                     ??i1___lwdiv:	
   949                           ; 1 bytes @ 0x4
   950                           
   951     0074                     ??i1___lwmod:	
   952                           ; 1 bytes @ 0x4
   953                           
   954     0074                     ??i1_fputc:	
   955                           ; 1 bytes @ 0x4
   956                           
   957                           
   958                           ; 1 bytes @ 0x4
   959     0074                     	ds	1
   960     0075                     i1___awdiv@sign:
   961     0075                     i1___awmod@sign:	
   962                           ; 1 bytes @ 0x5
   963                           
   964                           
   965                           ; 1 bytes @ 0x5
   966     0075                     	ds	1
   967     0076                     ?i1_read_prec_or_width:
   968     0076                     ?i1_abs:	
   969                           ; 2 bytes @ 0x6
   970                           
   971     0076                     i1___lwdiv@counter:	
   972                           ; 2 bytes @ 0x6
   973                           
   974     0076                     i1read_prec_or_width@fmt:	
   975                           ; 1 bytes @ 0x6
   976                           
   977     0076                     i1___awdiv@quotient:	
   978                           ; 1 bytes @ 0x6
   979                           
   980     0076                     i1abs@a:	
   981                           ; 2 bytes @ 0x6
   982                           
   983                           
   984                           ; 2 bytes @ 0x6
   985     0076                     	ds	1
   986     0077                     i1read_prec_or_width@ap:
   987                           
   988                           ; 2 bytes @ 0x7
   989     0077                     	ds	1
   990     0078                     ??i1_abs:
   991                           
   992                           ; 1 bytes @ 0x8
   993     0078                     	ds	1
   994     0079                     ??i1_read_prec_or_width:
   995                           
   996                           ; 1 bytes @ 0x9
   997     0079                     	ds	2
   998     007B                     i1read_prec_or_width@c:
   999                           
  1000                           ; 1 bytes @ 0xB
  1001     007B                     	ds	1
  1002     007C                     i1read_prec_or_width@n:
  1003                           
  1004                           ; 2 bytes @ 0xC
  1005     007C                     	ds	1
  1006     007D                     ??i1_pad:
  1007                           
  1008                           ; 1 bytes @ 0xD
  1009     007D                     	ds	1
  1010     007E                     ??i1_dtoa:
  1011     007E                     ??i1_utoa:	
  1012                           ; 1 bytes @ 0xE
  1013                           
  1014     007E                     ??i1_xtoa:	
  1015                           ; 1 bytes @ 0xE
  1016                           
  1017     007E                     ??i1_vfprintf:	
  1018                           ; 1 bytes @ 0xE
  1019                           
  1020                           
  1021                           	psect	cstackBANK0
  1022     0020                     __pcstackBANK0:	
  1023                           ; 1 bytes @ 0xE
  1024                           
  1025     0020                     ?i1_ctoa:
  1026     0020                     ?i1_fputs:	
  1027                           ; 2 bytes @ 0x0
  1028                           
  1029     0020                     i1fputs@s:	
  1030                           ; 2 bytes @ 0x0
  1031                           
  1032     0020                     i1ctoa@fp:	
  1033                           ; 1 bytes @ 0x0
  1034                           
  1035                           
  1036                           ; 2 bytes @ 0x0
  1037     0020                     	ds	1
  1038     0021                     i1fputs@fp:
  1039                           
  1040                           ; 2 bytes @ 0x1
  1041     0021                     	ds	1
  1042     0022                     i1ctoa@c:
  1043                           
  1044                           ; 1 bytes @ 0x2
  1045     0022                     	ds	1
  1046     0023                     ??i1_ctoa:
  1047     0023                     ??i1_fputs:	
  1048                           ; 1 bytes @ 0x3
  1049                           
  1050                           
  1051                           ; 1 bytes @ 0x3
  1052     0023                     	ds	2
  1053     0025                     i1fputs@c:
  1054     0025                     i1ctoa@l:	
  1055                           ; 1 bytes @ 0x5
  1056                           
  1057                           
  1058                           ; 2 bytes @ 0x5
  1059     0025                     	ds	1
  1060     0026                     i1fputs@i:
  1061                           
  1062                           ; 2 bytes @ 0x6
  1063     0026                     	ds	1
  1064     0027                     i1ctoa@w:
  1065                           
  1066                           ; 2 bytes @ 0x7
  1067     0027                     	ds	1
  1068     0028                     ?i1_pad:
  1069     0028                     i1pad@fp:	
  1070                           ; 2 bytes @ 0x8
  1071                           
  1072                           
  1073                           ; 2 bytes @ 0x8
  1074     0028                     	ds	2
  1075     002A                     i1pad@buf:
  1076                           
  1077                           ; 1 bytes @ 0xA
  1078     002A                     	ds	1
  1079     002B                     i1pad@p:
  1080                           
  1081                           ; 2 bytes @ 0xB
  1082     002B                     	ds	2
  1083     002D                     i1pad@i:
  1084                           
  1085                           ; 2 bytes @ 0xD
  1086     002D                     	ds	2
  1087     002F                     ?i1_dtoa:
  1088     002F                     ?i1_otoa:	
  1089                           ; 2 bytes @ 0xF
  1090                           
  1091     002F                     ?i1_utoa:	
  1092                           ; 2 bytes @ 0xF
  1093                           
  1094     002F                     ?i1_xtoa:	
  1095                           ; 2 bytes @ 0xF
  1096                           
  1097     002F                     i1dtoa@fp:	
  1098                           ; 2 bytes @ 0xF
  1099                           
  1100     002F                     i1otoa@fp:	
  1101                           ; 2 bytes @ 0xF
  1102                           
  1103     002F                     i1utoa@fp:	
  1104                           ; 2 bytes @ 0xF
  1105                           
  1106     002F                     i1xtoa@fp:	
  1107                           ; 2 bytes @ 0xF
  1108                           
  1109                           
  1110                           ; 2 bytes @ 0xF
  1111     002F                     	ds	2
  1112     0031                     i1dtoa@d:
  1113     0031                     i1otoa@d:	
  1114                           ; 2 bytes @ 0x11
  1115                           
  1116     0031                     i1utoa@d:	
  1117                           ; 2 bytes @ 0x11
  1118                           
  1119     0031                     i1xtoa@d:	
  1120                           ; 2 bytes @ 0x11
  1121                           
  1122                           
  1123                           ; 2 bytes @ 0x11
  1124     0031                     	ds	2
  1125     0033                     i1xtoa@x:
  1126     0033                     i1_dtoa$616:	
  1127                           ; 1 bytes @ 0x13
  1128                           
  1129     0033                     i1utoa@p:	
  1130                           ; 2 bytes @ 0x13
  1131                           
  1132     0033                     ??i1_otoa:	
  1133                           ; 2 bytes @ 0x13
  1134                           
  1135                           
  1136                           ; 1 bytes @ 0x13
  1137     0033                     	ds	1
  1138     0034                     i1_xtoa$641:
  1139                           
  1140                           ; 2 bytes @ 0x14
  1141     0034                     	ds	1
  1142     0035                     i1dtoa@p:
  1143     0035                     i1otoa@p:	
  1144                           ; 2 bytes @ 0x15
  1145                           
  1146     0035                     i1utoa@w:	
  1147                           ; 2 bytes @ 0x15
  1148                           
  1149                           
  1150                           ; 2 bytes @ 0x15
  1151     0035                     	ds	1
  1152     0036                     i1xtoa@a:
  1153                           
  1154                           ; 1 bytes @ 0x16
  1155     0036                     	ds	1
  1156     0037                     i1dtoa@w:
  1157     0037                     i1otoa@w:	
  1158                           ; 2 bytes @ 0x17
  1159                           
  1160     0037                     i1utoa@i:	
  1161                           ; 2 bytes @ 0x17
  1162                           
  1163     0037                     i1xtoa@p:	
  1164                           ; 2 bytes @ 0x17
  1165                           
  1166                           
  1167                           ; 2 bytes @ 0x17
  1168     0037                     	ds	2
  1169     0039                     i1dtoa@s:
  1170     0039                     i1otoa@t:	
  1171                           ; 1 bytes @ 0x19
  1172                           
  1173     0039                     i1xtoa@w:	
  1174                           ; 1 bytes @ 0x19
  1175                           
  1176                           
  1177                           ; 2 bytes @ 0x19
  1178     0039                     	ds	1
  1179     003A                     i1dtoa@i:
  1180     003A                     i1otoa@i:	
  1181                           ; 2 bytes @ 0x1A
  1182                           
  1183                           
  1184                           ; 2 bytes @ 0x1A
  1185     003A                     	ds	1
  1186     003B                     i1xtoa@d_nonzero:
  1187                           
  1188                           ; 1 bytes @ 0x1B
  1189     003B                     	ds	1
  1190     003C                     i1xtoa@c:
  1191                           
  1192                           ; 1 bytes @ 0x1C
  1193     003C                     	ds	1
  1194     003D                     i1xtoa@i:
  1195                           
  1196                           ; 2 bytes @ 0x1D
  1197     003D                     	ds	2
  1198     003F                     ?i1_vfpfcnvrt:
  1199     003F                     i1vfpfcnvrt@fp:	
  1200                           ; 2 bytes @ 0x1F
  1201                           
  1202                           
  1203                           ; 2 bytes @ 0x1F
  1204     003F                     	ds	2
  1205     0041                     i1vfpfcnvrt@fmt:
  1206                           
  1207                           ; 1 bytes @ 0x21
  1208     0041                     	ds	1
  1209     0042                     i1vfpfcnvrt@ap:
  1210                           
  1211                           ; 2 bytes @ 0x22
  1212     0042                     	ds	2
  1213     0044                     ??i1_vfpfcnvrt:
  1214                           
  1215                           ; 1 bytes @ 0x24
  1216     0044                     	ds	4
  1217     0048                     i1vfpfcnvrt@done:
  1218                           
  1219                           ; 1 bytes @ 0x28
  1220     0048                     	ds	1
  1221     0049                     i1vfpfcnvrt@convarg:
  1222                           
  1223                           ; 4 bytes @ 0x29
  1224     0049                     	ds	4
  1225     004D                     i1vfpfcnvrt@c:
  1226                           
  1227                           ; 1 bytes @ 0x2D
  1228     004D                     	ds	1
  1229     004E                     i1vfpfcnvrt@cp:
  1230                           
  1231                           ; 2 bytes @ 0x2E
  1232     004E                     	ds	2
  1233     0050                     ?i1_vfprintf:
  1234     0050                     i1vfprintf@fp:	
  1235                           ; 2 bytes @ 0x30
  1236                           
  1237                           
  1238                           ; 2 bytes @ 0x30
  1239     0050                     	ds	2
  1240     0052                     i1vfprintf@fmt:
  1241                           
  1242                           ; 2 bytes @ 0x32
  1243     0052                     	ds	2
  1244     0054                     i1vfprintf@ap:
  1245                           
  1246                           ; 2 bytes @ 0x34
  1247     0054                     	ds	2
  1248     0056                     i1vfprintf@cfmt:
  1249                           
  1250                           ; 2 bytes @ 0x36
  1251     0056                     	ds	2
  1252     0058                     ?i1_sprintf:
  1253     0058                     i1sprintf@s:	
  1254                           ; 2 bytes @ 0x38
  1255                           
  1256                           
  1257                           ; 2 bytes @ 0x38
  1258     0058                     	ds	2
  1259     005A                     i1sprintf@fmt:
  1260                           
  1261                           ; 2 bytes @ 0x3A
  1262     005A                     	ds	4
  1263     005E                     ??i1_sprintf:
  1264                           
  1265                           ; 1 bytes @ 0x3E
  1266     005E                     	ds	3
  1267     0061                     i1sprintf@f:
  1268                           
  1269                           ; 11 bytes @ 0x41
  1270     0061                     	ds	11
  1271     006C                     i1sprintf@ap:
  1272                           
  1273                           ; 2 bytes @ 0x4C
  1274     006C                     	ds	2
  1275                           
  1276                           	psect	maintext
  1277     05A0                     __pmaintext:	
  1278 ;;
  1279 ;;Main: autosize = 0, tempsize = 3, incstack = 0, save=0
  1280 ;;
  1281 ;; *************** function _main *****************
  1282 ;; Defined at:
  1283 ;;		line 31 in file "newmain.c"
  1284 ;; Parameters:    Size  Location     Type
  1285 ;;		None
  1286 ;; Auto vars:     Size  Location     Type
  1287 ;;  i               2   85[BANK3 ] int 
  1288 ;;  i               2   83[BANK3 ] int 
  1289 ;;  b              10   67[BANK3 ] unsigned char [10]
  1290 ;;  a              10   57[BANK3 ] unsigned char [10]
  1291 ;;  c              10    0        unsigned char [10]
  1292 ;;  bits            2   81[BANK3 ] int 
  1293 ;;  high_bits       2   79[BANK3 ] int 
  1294 ;;  Low_bits        2   77[BANK3 ] int 
  1295 ;; Return value:  Size  Location     Type
  1296 ;;                  1    wreg      void 
  1297 ;; Registers used:
  1298 ;;		wreg, fsr0l, fsr0h, status,2, status,0, btemp+1, pclath, cstack
  1299 ;; Tracked objects:
  1300 ;;		On entry : B00/0
  1301 ;;		On exit  : 0/0
  1302 ;;		Unchanged: 0/0
  1303 ;; Data sizes:     COMMON   BANK0   BANK1   BANK3   BANK2
  1304 ;;      Params:         0       0       0       0       0
  1305 ;;      Locals:         0       0       0      30       0
  1306 ;;      Temps:          0       0       0       3       0
  1307 ;;      Totals:         0       0       0      33       0
  1308 ;;Total ram usage:       33 bytes
  1309 ;; Hardware stack levels required when called: 17
  1310 ;; This function calls:
  1311 ;;		_display
  1312 ;;		_sprintf
  1313 ;; This function is called by:
  1314 ;;		Startup code after reset
  1315 ;; This function uses a non-reentrant model
  1316 ;;
  1317                           
  1318     05A0                     _main:	
  1319                           ;psect for function _main
  1320                           
  1321     05A0                     l4405:	
  1322                           ;incstack = 0
  1323 ;; hardware stack exceeded
  1324                           ; Regs used in _main: [wreg-fsr0h+status,2+status,0+btemp+1+pclath+cstack]
  1325                           
  1326                           
  1327                           ;newmain.c: 33:     TRISC=0;
  1328     05A0  1683               	bsf	3,5	;RP0=1, select bank1
  1329     05A1  1303               	bcf	3,6	;RP1=0, select bank1
  1330     05A2  0187               	clrf	7	;volatile
  1331                           
  1332                           ;newmain.c: 34:     PORTC=0;
  1333     05A3  1283               	bcf	3,5	;RP0=0, select bank0
  1334     05A4  1303               	bcf	3,6	;RP1=0, select bank0
  1335     05A5  0187               	clrf	7	;volatile
  1336                           
  1337                           ;newmain.c: 35:     TRISD=0;
  1338     05A6  1683               	bsf	3,5	;RP0=1, select bank1
  1339     05A7  1303               	bcf	3,6	;RP1=0, select bank1
  1340     05A8  0188               	clrf	8	;volatile
  1341                           
  1342                           ;newmain.c: 36:     PORTD=0;
  1343     05A9  1283               	bcf	3,5	;RP0=0, select bank0
  1344     05AA  1303               	bcf	3,6	;RP1=0, select bank0
  1345     05AB  0188               	clrf	8	;volatile
  1346     05AC                     l4407:
  1347                           
  1348                           ;newmain.c: 37:     ADCON0=0x01;
  1349     05AC  3001               	movlw	1
  1350     05AD  009F               	movwf	31	;volatile
  1351     05AE                     l4409:
  1352                           
  1353                           ;newmain.c: 38:     ADCON1=0x80;
  1354     05AE  3080               	movlw	128
  1355     05AF  1683               	bsf	3,5	;RP0=1, select bank1
  1356     05B0  1303               	bcf	3,6	;RP1=0, select bank1
  1357     05B1  009F               	movwf	31	;volatile
  1358     05B2                     l4411:
  1359                           
  1360                           ;newmain.c: 39:     INTE=1;
  1361     05B2  160B               	bsf	11,4	;volatile
  1362     05B3                     l4413:
  1363                           
  1364                           ;newmain.c: 40:     GIE=1;
  1365     05B3  178B               	bsf	11,7	;volatile
  1366                           
  1367                           ;newmain.c: 42:     OPTION_REG =0;
  1368     05B4  0181               	clrf	1	;volatile
  1369     05B5                     l4415:
  1370                           
  1371                           ;newmain.c: 46:     int Low_bits;;newmain.c: 47:     int high_bits;;newmain.c: 48:     i
      +                          nt bits;;newmain.c: 49:     char a[10];;newmain.c: 50:     char b[10];;newmain.c: 51:   
      +                            char c[10];;newmain.c: 55:     display(0, 0x0e);
  1372     05B5  3000               	movlw	0
  1373     05B6  00B2               	movwf	display@RS^(0+128)
  1374     05B7  00B3               	movwf	(display@RS+1)^(0+128)
  1375     05B8  300E               	movlw	14
  1376     05B9  00B4               	movwf	display@DC^(0+128)
  1377     05BA  3000               	movlw	0
  1378     05BB  00B5               	movwf	(display@DC^(0+128)+1)
  1379     05BC  160A  158A  2415  120A  118A  	fcall	_display
  1380     05C1                     l4417:
  1381                           
  1382                           ;newmain.c: 56:     display(0, 0x38);
  1383     05C1  3000               	movlw	0
  1384     05C2  1683               	bsf	3,5	;RP0=1, select bank1
  1385     05C3  1303               	bcf	3,6	;RP1=0, select bank1
  1386     05C4  00B2               	movwf	display@RS^(0+128)
  1387     05C5  00B3               	movwf	(display@RS+1)^(0+128)
  1388     05C6  3038               	movlw	56
  1389     05C7  00B4               	movwf	display@DC^(0+128)
  1390     05C8  3000               	movlw	0
  1391     05C9  00B5               	movwf	(display@DC^(0+128)+1)
  1392     05CA  160A  158A  2415  120A  118A  	fcall	_display
  1393     05CF                     l4419:
  1394                           
  1395                           ;newmain.c: 59:     {;newmain.c: 61:     ADCON0=0x01;
  1396     05CF  3001               	movlw	1
  1397     05D0  1283               	bcf	3,5	;RP0=0, select bank0
  1398     05D1  1303               	bcf	3,6	;RP1=0, select bank0
  1399     05D2  009F               	movwf	31	;volatile
  1400     05D3                     l4421:
  1401                           
  1402                           ;newmain.c: 62:     _delay((unsigned long)((10)*(10000000/4000.0)));
  1403     05D3  3021               	movlw	33
  1404     05D4  1683               	bsf	3,5	;RP0=1, select bank3
  1405     05D5  1703               	bsf	3,6	;RP1=1, select bank3
  1406     05D6  00C7               	movwf	(??_main^(0+384)+1)
  1407     05D7  3075               	movlw	117
  1408     05D8  00C6               	movwf	??_main^(0+384)
  1409     05D9                     u6187:
  1410     05D9  0BC6               	decfsz	??_main^(0+384),f
  1411     05DA  2DD9               	goto	u6187
  1412     05DB  0BC7               	decfsz	(??_main^(0+384)+1),f
  1413     05DC  2DD9               	goto	u6187
  1414     05DD  2DDE               	nop2
  1415     05DE                     l4423:
  1416                           
  1417                           ;newmain.c: 63:     GO_nDONE=1;
  1418     05DE  1283               	bcf	3,5	;RP0=0, select bank0
  1419     05DF  1303               	bcf	3,6	;RP1=0, select bank0
  1420     05E0  151F               	bsf	31,2	;volatile
  1421     05E1                     l44:	
  1422                           ;newmain.c: 64:     while(GO_nDONE==1){}
  1423                           
  1424     05E1  191F               	btfsc	31,2	;volatile
  1425     05E2  2DE4               	goto	u6121
  1426     05E3  2DE5               	goto	u6120
  1427     05E4                     u6121:
  1428     05E4  2DE1               	goto	l44
  1429     05E5                     u6120:
  1430     05E5                     l4425:
  1431                           
  1432                           ;newmain.c: 65:     Low_bits= ADRESL;
  1433     05E5  1683               	bsf	3,5	;RP0=1, select bank1
  1434     05E6  1303               	bcf	3,6	;RP1=0, select bank1
  1435     05E7  081E               	movf	30,w	;volatile
  1436     05E8  1683               	bsf	3,5	;RP0=1, select bank3
  1437     05E9  1703               	bsf	3,6	;RP1=1, select bank3
  1438     05EA  00C6               	movwf	??_main^(0+384)
  1439     05EB  01C7               	clrf	(??_main^(0+384)+1)
  1440     05EC  0846               	movf	??_main^(0+384),w
  1441     05ED  00DD               	movwf	main@Low_bits^(0+384)
  1442     05EE  0847               	movf	(??_main+1)^(0+384),w
  1443     05EF  00DE               	movwf	(main@Low_bits+1)^(0+384)
  1444                           
  1445                           ;newmain.c: 66:     high_bits= ADRESH;
  1446     05F0  1283               	bcf	3,5	;RP0=0, select bank0
  1447     05F1  1303               	bcf	3,6	;RP1=0, select bank0
  1448     05F2  081E               	movf	30,w	;volatile
  1449     05F3  1683               	bsf	3,5	;RP0=1, select bank3
  1450     05F4  1703               	bsf	3,6	;RP1=1, select bank3
  1451     05F5  00C6               	movwf	??_main^(0+384)
  1452     05F6  01C7               	clrf	(??_main^(0+384)+1)
  1453     05F7  0846               	movf	??_main^(0+384),w
  1454     05F8  00DF               	movwf	main@high_bits^(0+384)
  1455     05F9  0847               	movf	(??_main+1)^(0+384),w
  1456     05FA  00E0               	movwf	(main@high_bits+1)^(0+384)
  1457     05FB                     l4427:
  1458                           
  1459                           ;newmain.c: 67:     bits = Low_bits | high_bits << 8;
  1460     05FB  0860               	movf	(main@high_bits+1)^(0+384),w
  1461     05FC  00C7               	movwf	(??_main^(0+384)+1)
  1462     05FD  085F               	movf	main@high_bits^(0+384),w
  1463     05FE  00C6               	movwf	??_main^(0+384)
  1464     05FF  0846               	movf	??_main^(0+384),w
  1465     0600  00C7               	movwf	(??_main^(0+384)+1)
  1466     0601  01C6               	clrf	??_main^(0+384)
  1467     0602  085D               	movf	main@Low_bits^(0+384),w
  1468     0603  0446               	iorwf	??_main^(0+384),w
  1469     0604  00E1               	movwf	main@bits^(0+384)
  1470     0605  085E               	movf	(main@Low_bits+1)^(0+384),w
  1471     0606  0447               	iorwf	(??_main+1)^(0+384),w
  1472     0607  00E2               	movwf	(main@bits+1)^(0+384)
  1473     0608                     l4429:
  1474                           
  1475                           ;newmain.c: 68:     sprintf(a,"%04d",bits);
  1476     0608  30C9               	movlw	(low (main@a| (0+256)))& (0+255)
  1477     0609  00B1               	movwf	sprintf@s^(0+384)
  1478     060A  3001               	movlw	1
  1479     060B  00B2               	movwf	(sprintf@s+1)^(0+384)
  1480     060C  3001               	movlw	(low ((STR_1-__stringbase)| (0+32768)))& (0+255)
  1481     060D  00B3               	movwf	sprintf@fmt^(0+384)
  1482     060E  3080               	movlw	128
  1483     060F  00B4               	movwf	(sprintf@fmt+1)^(0+384)
  1484     0610  0862               	movf	(main@bits+1)^(0+384),w
  1485     0611  00B6               	movwf	((?_sprintf+1)^(0+384)+4)
  1486     0612  0861               	movf	main@bits^(0+384),w
  1487     0613  00B5               	movwf	(?_sprintf^(0+384)+4)
  1488     0614  160A  158A  2442  120A  118A  	fcall	_sprintf
  1489     0619                     l4431:
  1490                           
  1491                           ;newmain.c: 69:     display(0, 0x80);
  1492     0619  3000               	movlw	0
  1493     061A  1683               	bsf	3,5	;RP0=1, select bank1
  1494     061B  1303               	bcf	3,6	;RP1=0, select bank1
  1495     061C  00B2               	movwf	display@RS^(0+128)
  1496     061D  00B3               	movwf	(display@RS+1)^(0+128)
  1497     061E  3080               	movlw	128
  1498     061F  00B4               	movwf	display@DC^(0+128)
  1499     0620  3000               	movlw	0
  1500     0621  00B5               	movwf	(display@DC^(0+128)+1)
  1501     0622  160A  158A  2415  120A  118A  	fcall	_display
  1502     0627                     l4433:
  1503                           
  1504                           ;newmain.c: 70:     for(int i=0;a[i]!='\0';i++)
  1505     0627  1683               	bsf	3,5	;RP0=1, select bank3
  1506     0628  1703               	bsf	3,6	;RP1=1, select bank3
  1507     0629  01E3               	clrf	main@i^(0+384)
  1508     062A  01E4               	clrf	(main@i+1)^(0+384)
  1509     062B  2E51               	goto	l4439
  1510     062C                     l4435:
  1511                           
  1512                           ;newmain.c: 71:     {;newmain.c: 72:         display(1, a[i]);
  1513     062C  3001               	movlw	1
  1514     062D  1683               	bsf	3,5	;RP0=1, select bank1
  1515     062E  1303               	bcf	3,6	;RP1=0, select bank1
  1516     062F  00B2               	movwf	display@RS^(0+128)
  1517     0630  3000               	movlw	0
  1518     0631  00B3               	movwf	(display@RS^(0+128)+1)
  1519     0632  1683               	bsf	3,5	;RP0=1, select bank3
  1520     0633  1703               	bsf	3,6	;RP1=1, select bank3
  1521     0634  0863               	movf	main@i^(0+384),w
  1522     0635  3EC9               	addlw	(low (main@a| (0+256)))& (0+255)
  1523     0636  0084               	movwf	4
  1524     0637  0800               	movf	0,w
  1525     0638  00C6               	movwf	??_main^(0+384)
  1526     0639  01C7               	clrf	(??_main^(0+384)+1)
  1527     063A  0846               	movf	??_main^(0+384),w
  1528     063B  1683               	bsf	3,5	;RP0=1, select bank1
  1529     063C  1303               	bcf	3,6	;RP1=0, select bank1
  1530     063D  00B4               	movwf	display@DC^(0+128)
  1531     063E  1683               	bsf	3,5	;RP0=1, select bank3
  1532     063F  1703               	bsf	3,6	;RP1=1, select bank3
  1533     0640  0847               	movf	(??_main+1)^(0+384),w
  1534     0641  1683               	bsf	3,5	;RP0=1, select bank1
  1535     0642  1303               	bcf	3,6	;RP1=0, select bank1
  1536     0643  00B5               	movwf	(display@DC+1)^(0+128)
  1537     0644  160A  158A  2415  120A  118A  	fcall	_display
  1538     0649                     l4437:
  1539                           
  1540                           ;newmain.c: 73:     }
  1541     0649  3001               	movlw	1
  1542     064A  1683               	bsf	3,5	;RP0=1, select bank3
  1543     064B  1703               	bsf	3,6	;RP1=1, select bank3
  1544     064C  07E3               	addwf	main@i^(0+384),f
  1545     064D  1803               	skipnc
  1546     064E  0AE4               	incf	(main@i+1)^(0+384),f
  1547     064F  3000               	movlw	0
  1548     0650  07E4               	addwf	(main@i+1)^(0+384),f
  1549     0651                     l4439:
  1550     0651  0863               	movf	main@i^(0+384),w
  1551     0652  3EC9               	addlw	(low (main@a| (0+256)))& (0+255)
  1552     0653  0084               	movwf	4
  1553     0654  1783               	bsf	3,7	;select IRP bank3
  1554     0655  0800               	movf	0,w
  1555     0656  1D03               	btfss	3,2
  1556     0657  2E59               	goto	u6131
  1557     0658  2E5A               	goto	u6130
  1558     0659                     u6131:
  1559     0659  2E2C               	goto	l4435
  1560     065A                     u6130:
  1561     065A                     l4441:
  1562                           
  1563                           ;newmain.c: 74:     _delay((unsigned long)((300)*(10000000/4000.0)));
  1564     065A  3004               	movlw	4
  1565     065B  1683               	bsf	3,5	;RP0=1, select bank3
  1566     065C  1703               	bsf	3,6	;RP1=1, select bank3
  1567     065D  00C8               	movwf	(??_main^(0+384)+2)
  1568     065E  30CF               	movlw	207
  1569     065F  00C7               	movwf	(??_main^(0+384)+1)
  1570     0660  3001               	movlw	1
  1571     0661  00C6               	movwf	??_main^(0+384)
  1572     0662                     u6197:
  1573     0662  0BC6               	decfsz	??_main^(0+384),f
  1574     0663  2E62               	goto	u6197
  1575     0664  0BC7               	decfsz	(??_main^(0+384)+1),f
  1576     0665  2E62               	goto	u6197
  1577     0666  0BC8               	decfsz	(??_main^(0+384)+2),f
  1578     0667  2E62               	goto	u6197
  1579     0668                     l4443:
  1580                           
  1581                           ;newmain.c: 76:     ADCON0=0x09;
  1582     0668  3009               	movlw	9
  1583     0669  1283               	bcf	3,5	;RP0=0, select bank0
  1584     066A  1303               	bcf	3,6	;RP1=0, select bank0
  1585     066B  009F               	movwf	31	;volatile
  1586                           
  1587                           ;newmain.c: 77:     _delay((unsigned long)((10)*(10000000/4000.0)));
  1588     066C  3021               	movlw	33
  1589     066D  1683               	bsf	3,5	;RP0=1, select bank3
  1590     066E  1703               	bsf	3,6	;RP1=1, select bank3
  1591     066F  00C7               	movwf	(??_main^(0+384)+1)
  1592     0670  3075               	movlw	117
  1593     0671  00C6               	movwf	??_main^(0+384)
  1594     0672                     u6207:
  1595     0672  0BC6               	decfsz	??_main^(0+384),f
  1596     0673  2E72               	goto	u6207
  1597     0674  0BC7               	decfsz	(??_main^(0+384)+1),f
  1598     0675  2E72               	goto	u6207
  1599     0676  2E77               	nop2
  1600     0677                     l4445:
  1601                           
  1602                           ;newmain.c: 79:     GO_nDONE=1;
  1603     0677  1283               	bcf	3,5	;RP0=0, select bank0
  1604     0678  1303               	bcf	3,6	;RP1=0, select bank0
  1605     0679  151F               	bsf	31,2	;volatile
  1606     067A                     l50:	
  1607                           ;newmain.c: 80:     while(GO_nDONE==1){}
  1608                           
  1609     067A  191F               	btfsc	31,2	;volatile
  1610     067B  2E7D               	goto	u6141
  1611     067C  2E7E               	goto	u6140
  1612     067D                     u6141:
  1613     067D  2E7A               	goto	l50
  1614     067E                     u6140:
  1615     067E                     l4447:
  1616                           
  1617                           ;newmain.c: 81:     Low_bits= ADRESL;
  1618     067E  1683               	bsf	3,5	;RP0=1, select bank1
  1619     067F  1303               	bcf	3,6	;RP1=0, select bank1
  1620     0680  081E               	movf	30,w	;volatile
  1621     0681  1683               	bsf	3,5	;RP0=1, select bank3
  1622     0682  1703               	bsf	3,6	;RP1=1, select bank3
  1623     0683  00C6               	movwf	??_main^(0+384)
  1624     0684  01C7               	clrf	(??_main^(0+384)+1)
  1625     0685  0846               	movf	??_main^(0+384),w
  1626     0686  00DD               	movwf	main@Low_bits^(0+384)
  1627     0687  0847               	movf	(??_main+1)^(0+384),w
  1628     0688  00DE               	movwf	(main@Low_bits+1)^(0+384)
  1629                           
  1630                           ;newmain.c: 82:     high_bits= ADRESH;
  1631     0689  1283               	bcf	3,5	;RP0=0, select bank0
  1632     068A  1303               	bcf	3,6	;RP1=0, select bank0
  1633     068B  081E               	movf	30,w	;volatile
  1634     068C  1683               	bsf	3,5	;RP0=1, select bank3
  1635     068D  1703               	bsf	3,6	;RP1=1, select bank3
  1636     068E  00C6               	movwf	??_main^(0+384)
  1637     068F  01C7               	clrf	(??_main^(0+384)+1)
  1638     0690  0846               	movf	??_main^(0+384),w
  1639     0691  00DF               	movwf	main@high_bits^(0+384)
  1640     0692  0847               	movf	(??_main+1)^(0+384),w
  1641     0693  00E0               	movwf	(main@high_bits+1)^(0+384)
  1642     0694                     l4449:
  1643                           
  1644                           ;newmain.c: 83:     bits = Low_bits | high_bits << 8;
  1645     0694  0860               	movf	(main@high_bits+1)^(0+384),w
  1646     0695  00C7               	movwf	(??_main^(0+384)+1)
  1647     0696  085F               	movf	main@high_bits^(0+384),w
  1648     0697  00C6               	movwf	??_main^(0+384)
  1649     0698  0846               	movf	??_main^(0+384),w
  1650     0699  00C7               	movwf	(??_main^(0+384)+1)
  1651     069A  01C6               	clrf	??_main^(0+384)
  1652     069B  085D               	movf	main@Low_bits^(0+384),w
  1653     069C  0446               	iorwf	??_main^(0+384),w
  1654     069D  00E1               	movwf	main@bits^(0+384)
  1655     069E  085E               	movf	(main@Low_bits+1)^(0+384),w
  1656     069F  0447               	iorwf	(??_main+1)^(0+384),w
  1657     06A0  00E2               	movwf	(main@bits+1)^(0+384)
  1658     06A1                     l4451:
  1659                           
  1660                           ;newmain.c: 84:     sprintf(b ,"%04d", bits);
  1661     06A1  30D3               	movlw	(low (main@b| (0+256)))& (0+255)
  1662     06A2  00B1               	movwf	sprintf@s^(0+384)
  1663     06A3  3001               	movlw	1
  1664     06A4  00B2               	movwf	(sprintf@s+1)^(0+384)
  1665     06A5  3001               	movlw	(low ((STR_1-__stringbase)| (0+32768)))& (0+255)
  1666     06A6  00B3               	movwf	sprintf@fmt^(0+384)
  1667     06A7  3080               	movlw	128
  1668     06A8  00B4               	movwf	(sprintf@fmt+1)^(0+384)
  1669     06A9  0862               	movf	(main@bits+1)^(0+384),w
  1670     06AA  00B6               	movwf	((?_sprintf+1)^(0+384)+4)
  1671     06AB  0861               	movf	main@bits^(0+384),w
  1672     06AC  00B5               	movwf	(?_sprintf^(0+384)+4)
  1673     06AD  160A  158A  2442  120A  118A  	fcall	_sprintf
  1674     06B2                     l4453:
  1675                           
  1676                           ;newmain.c: 86:     display(0, 0xc0);
  1677     06B2  3000               	movlw	0
  1678     06B3  1683               	bsf	3,5	;RP0=1, select bank1
  1679     06B4  1303               	bcf	3,6	;RP1=0, select bank1
  1680     06B5  00B2               	movwf	display@RS^(0+128)
  1681     06B6  00B3               	movwf	(display@RS+1)^(0+128)
  1682     06B7  30C0               	movlw	192
  1683     06B8  00B4               	movwf	display@DC^(0+128)
  1684     06B9  3000               	movlw	0
  1685     06BA  00B5               	movwf	(display@DC^(0+128)+1)
  1686     06BB  160A  158A  2415  120A  118A  	fcall	_display
  1687     06C0                     l4455:
  1688                           
  1689                           ;newmain.c: 87:     for(int i=0;b[i]!='\0';i++)
  1690     06C0  1683               	bsf	3,5	;RP0=1, select bank3
  1691     06C1  1703               	bsf	3,6	;RP1=1, select bank3
  1692     06C2  01E5               	clrf	main@i_70^(0+384)
  1693     06C3  01E6               	clrf	(main@i_70+1)^(0+384)
  1694     06C4  2EEA               	goto	l4461
  1695     06C5                     l4457:
  1696                           
  1697                           ;newmain.c: 88:     {;newmain.c: 89:         display(1, b[i]);
  1698     06C5  3001               	movlw	1
  1699     06C6  1683               	bsf	3,5	;RP0=1, select bank1
  1700     06C7  1303               	bcf	3,6	;RP1=0, select bank1
  1701     06C8  00B2               	movwf	display@RS^(0+128)
  1702     06C9  3000               	movlw	0
  1703     06CA  00B3               	movwf	(display@RS^(0+128)+1)
  1704     06CB  1683               	bsf	3,5	;RP0=1, select bank3
  1705     06CC  1703               	bsf	3,6	;RP1=1, select bank3
  1706     06CD  0865               	movf	main@i_70^(0+384),w
  1707     06CE  3ED3               	addlw	(low (main@b| (0+256)))& (0+255)
  1708     06CF  0084               	movwf	4
  1709     06D0  0800               	movf	0,w
  1710     06D1  00C6               	movwf	??_main^(0+384)
  1711     06D2  01C7               	clrf	(??_main^(0+384)+1)
  1712     06D3  0846               	movf	??_main^(0+384),w
  1713     06D4  1683               	bsf	3,5	;RP0=1, select bank1
  1714     06D5  1303               	bcf	3,6	;RP1=0, select bank1
  1715     06D6  00B4               	movwf	display@DC^(0+128)
  1716     06D7  1683               	bsf	3,5	;RP0=1, select bank3
  1717     06D8  1703               	bsf	3,6	;RP1=1, select bank3
  1718     06D9  0847               	movf	(??_main+1)^(0+384),w
  1719     06DA  1683               	bsf	3,5	;RP0=1, select bank1
  1720     06DB  1303               	bcf	3,6	;RP1=0, select bank1
  1721     06DC  00B5               	movwf	(display@DC+1)^(0+128)
  1722     06DD  160A  158A  2415  120A  118A  	fcall	_display
  1723     06E2                     l4459:
  1724                           
  1725                           ;newmain.c: 90:     }
  1726     06E2  3001               	movlw	1
  1727     06E3  1683               	bsf	3,5	;RP0=1, select bank3
  1728     06E4  1703               	bsf	3,6	;RP1=1, select bank3
  1729     06E5  07E5               	addwf	main@i_70^(0+384),f
  1730     06E6  1803               	skipnc
  1731     06E7  0AE6               	incf	(main@i_70+1)^(0+384),f
  1732     06E8  3000               	movlw	0
  1733     06E9  07E6               	addwf	(main@i_70+1)^(0+384),f
  1734     06EA                     l4461:
  1735     06EA  0865               	movf	main@i_70^(0+384),w
  1736     06EB  3ED3               	addlw	(low (main@b| (0+256)))& (0+255)
  1737     06EC  0084               	movwf	4
  1738     06ED  1783               	bsf	3,7	;select IRP bank3
  1739     06EE  0800               	movf	0,w
  1740     06EF  1D03               	btfss	3,2
  1741     06F0  2EF2               	goto	u6151
  1742     06F1  2EF3               	goto	u6150
  1743     06F2                     u6151:
  1744     06F2  2EC5               	goto	l4457
  1745     06F3                     u6150:
  1746     06F3                     l4463:
  1747                           
  1748                           ;newmain.c: 91:     _delay((unsigned long)((300)*(10000000/4000.0)));
  1749     06F3  3004               	movlw	4
  1750     06F4  1683               	bsf	3,5	;RP0=1, select bank3
  1751     06F5  1703               	bsf	3,6	;RP1=1, select bank3
  1752     06F6  00C8               	movwf	(??_main^(0+384)+2)
  1753     06F7  30CF               	movlw	207
  1754     06F8  00C7               	movwf	(??_main^(0+384)+1)
  1755     06F9  3001               	movlw	1
  1756     06FA  00C6               	movwf	??_main^(0+384)
  1757     06FB                     u6217:
  1758     06FB  0BC6               	decfsz	??_main^(0+384),f
  1759     06FC  2EFB               	goto	u6217
  1760     06FD  0BC7               	decfsz	(??_main^(0+384)+1),f
  1761     06FE  2EFB               	goto	u6217
  1762     06FF  0BC8               	decfsz	(??_main^(0+384)+2),f
  1763     0700  2EFB               	goto	u6217
  1764     0701  2DCF               	goto	l4419
  1765     0702  120A  118A  2812   	ljmp	start
  1766     0705                     __end_of_main:
  1767                           
  1768                           	psect	text1
  1769     1C42                     __ptext1:	
  1770 ;; *************** function _sprintf *****************
  1771 ;; Defined at:
  1772 ;;		line 9 in file "C:\Program Files\Microchip\xc8\v2.50\pic\sources\c99\common\nf_sprintf.c"
  1773 ;; Parameters:    Size  Location     Type
  1774 ;;  s               2   33[BANK3 ] PTR unsigned char 
  1775 ;;		 -> ISR@c(10), main@b(10), main@a(10), 
  1776 ;;  fmt             2   35[BANK3 ] PTR const unsigned char 
  1777 ;;		 -> ROM(8192), STR_2(5), STR_1(5), 
  1778 ;; Auto vars:     Size  Location     Type
  1779 ;;  f              11   42[BANK3 ] struct _IO_FILE
  1780 ;;  ret             2    0        int 
  1781 ;;  ap              1   53[BANK3 ] PTR void [1]
  1782 ;;		 -> ?_sprintf(2), 
  1783 ;; Return value:  Size  Location     Type
  1784 ;;                  2   33[BANK3 ] int 
  1785 ;; Registers used:
  1786 ;;		wreg, fsr0l, fsr0h, status,2, status,0, btemp+1, pclath, cstack
  1787 ;; Tracked objects:
  1788 ;;		On entry : 0/0
  1789 ;;		On exit  : 0/0
  1790 ;;		Unchanged: 0/0
  1791 ;; Data sizes:     COMMON   BANK0   BANK1   BANK3   BANK2
  1792 ;;      Params:         0       0       0       6       0
  1793 ;;      Locals:         0       0       0      12       0
  1794 ;;      Temps:          0       0       0       3       0
  1795 ;;      Totals:         0       0       0      21       0
  1796 ;;Total ram usage:       21 bytes
  1797 ;; Hardware stack levels used: 1
  1798 ;; Hardware stack levels required when called: 16
  1799 ;; This function calls:
  1800 ;;		_vfprintf
  1801 ;; This function is called by:
  1802 ;;		_main
  1803 ;; This function uses a non-reentrant model
  1804 ;;
  1805                           
  1806     1C42                     _sprintf:	
  1807                           ;psect for function _sprintf
  1808                           
  1809     1C42                     l4391:	
  1810                           ;incstack = 0
  1811 ;; hardware stack exceeded
  1812                           ; Regs used in _sprintf: [wreg-fsr0h+status,2+status,0+btemp+1+pclath+cstack]
  1813                           
  1814     1C42  30B5               	movlw	(low ((?_sprintf| (0+256)+4)))& (0+255)
  1815     1C43  1683               	bsf	3,5	;RP0=1, select bank3
  1816     1C44  1703               	bsf	3,6	;RP1=1, select bank3
  1817     1C45  00C5               	movwf	sprintf@ap^(0+384)
  1818     1C46                     l4393:
  1819     1C46  0831               	movf	sprintf@s^(0+384),w
  1820     1C47  00BA               	movwf	sprintf@f^(0+384)
  1821     1C48  0832               	movf	(sprintf@s+1)^(0+384),w
  1822     1C49  00BB               	movwf	(sprintf@f+1)^(0+384)
  1823     1C4A                     l4395:
  1824     1C4A  01BC               	clrf	(sprintf@f^(0+384)+2)
  1825     1C4B  01BD               	clrf	((sprintf@f+1)^(0+384)+2)
  1826     1C4C                     l4397:
  1827     1C4C  01C3               	clrf	(sprintf@f^(0+384)+9)
  1828     1C4D  01C4               	clrf	((sprintf@f+1)^(0+384)+9)
  1829     1C4E                     l4399:
  1830     1C4E  30BA               	movlw	low sprintf@f
  1831     1C4F  00AC               	movwf	vfprintf@fp^(0+384)
  1832     1C50  3001               	movlw	high sprintf@f
  1833     1C51  00AD               	movwf	(vfprintf@fp^(0+384)+1)
  1834     1C52  0833               	movf	sprintf@fmt^(0+384),w
  1835     1C53  00AE               	movwf	vfprintf@fmt^(0+384)
  1836     1C54  0834               	movf	(sprintf@fmt+1)^(0+384),w
  1837     1C55  00AF               	movwf	(vfprintf@fmt+1)^(0+384)
  1838     1C56  30C5               	movlw	(low (sprintf@ap| (0+256)))& (0+255)
  1839     1C57  00B0               	movwf	vfprintf@ap^(0+384)
  1840     1C58  160A  158A  25DD  160A  158A  	fcall	_vfprintf
  1841     1C5D                     l4401:
  1842     1C5D  1683               	bsf	3,5	;RP0=1, select bank3
  1843     1C5E  1703               	bsf	3,6	;RP1=1, select bank3
  1844     1C5F  083C               	movf	(sprintf@f^(0+384)+2),w
  1845     1C60  0731               	addwf	sprintf@s^(0+384),w
  1846     1C61  00B8               	movwf	(??_sprintf+1)^(0+384)
  1847     1C62  0832               	movf	(sprintf@s+1)^(0+384),w
  1848     1C63  00B7               	movwf	??_sprintf^(0+384)
  1849     1C64  1803               	skipnc
  1850     1C65  0AB7               	incf	??_sprintf^(0+384),f
  1851     1C66  1FBC               	btfss	(sprintf@f^(0+384)+2),7
  1852     1C67  2C69               	goto	u6110
  1853     1C68  03B7               	decf	??_sprintf^(0+384),f
  1854     1C69                     u6110:
  1855     1C69  1683               	bsf	3,5	;RP0=1, select bank3
  1856     1C6A  1703               	bsf	3,6	;RP1=1, select bank3
  1857     1C6B  0837               	movf	??_sprintf^(0+384),w
  1858     1C6C  00B9               	movwf	((??_sprintf+1)^(0+384)+1)
  1859     1C6D  0838               	movf	(??_sprintf+1)^(0+384),w
  1860     1C6E  0084               	movwf	4
  1861     1C6F  1783               	bsf	3,7
  1862     1C70  1C39               	btfss	(??_sprintf+2)^(0+384),0
  1863     1C71  1383               	bcf	3,7
  1864     1C72  0180               	clrf	0
  1865     1C73                     l625:
  1866     1C73  0008               	return
  1867     1C74                     __end_of_sprintf:
  1868                           
  1869                           	psect	text2
  1870     1DDD                     __ptext2:	
  1871 ;; *************** function _vfprintf *****************
  1872 ;; Defined at:
  1873 ;;		line 1817 in file "C:\Program Files\Microchip\xc8\v2.50\pic\sources\c99\common\doprnt.c"
  1874 ;; Parameters:    Size  Location     Type
  1875 ;;  fp              2   28[BANK3 ] PTR struct _IO_FILE
  1876 ;;		 -> sprintf@f(11), 
  1877 ;;  fmt             2   30[BANK3 ] PTR const unsigned char 
  1878 ;;		 -> ROM(8192), STR_2(5), STR_1(5), 
  1879 ;;  ap              1   32[BANK3 ] PTR PTR void 
  1880 ;;		 -> sprintf@ap(1), 
  1881 ;; Auto vars:     Size  Location     Type
  1882 ;;  cfmt            2   53[BANK1 ] PTR unsigned char 
  1883 ;;		 -> ROM(8192), STR_2(5), STR_1(5), 
  1884 ;; Return value:  Size  Location     Type
  1885 ;;                  2   28[BANK3 ] int 
  1886 ;; Registers used:
  1887 ;;		wreg, fsr0l, fsr0h, status,2, status,0, btemp+1, pclath, cstack
  1888 ;; Tracked objects:
  1889 ;;		On entry : 0/0
  1890 ;;		On exit  : 0/0
  1891 ;;		Unchanged: 0/0
  1892 ;; Data sizes:     COMMON   BANK0   BANK1   BANK3   BANK2
  1893 ;;      Params:         0       0       0       5       0
  1894 ;;      Locals:         0       0       2       0       0
  1895 ;;      Temps:          0       0       0       0       0
  1896 ;;      Totals:         0       0       2       5       0
  1897 ;;Total ram usage:        7 bytes
  1898 ;; Hardware stack levels used: 1
  1899 ;; Hardware stack levels required when called: 15
  1900 ;; This function calls:
  1901 ;;		_vfpfcnvrt
  1902 ;; This function is called by:
  1903 ;;		_sprintf
  1904 ;; This function uses a non-reentrant model
  1905 ;;
  1906                           
  1907     1DDD                     _vfprintf:	
  1908                           ;psect for function _vfprintf
  1909                           
  1910     1DDD                     l4379:	
  1911                           ;incstack = 0
  1912 ;; hardware stack exceeded
  1913                           ; Regs used in _vfprintf: [wreg-fsr0h+status,2+status,0+btemp+1+pclath+cstack]
  1914                           
  1915                           
  1916                           ;C:\Program Files\Microchip\xc8\v2.50\pic\sources\c99\common\doprnt.c: 1817: int vfprint
      +                          f(FILE *fp, const char *fmt, va_list ap);C:\Program Files\Microchip\xc8\v2.50\pic\source
      +                          s\c99\common\doprnt.c: 1818: {;C:\Program Files\Microchip\xc8\v2.50\pic\sources\c99\comm
      +                          on\doprnt.c: 1820:     char *cfmt;;C:\Program Files\Microchip\xc8\v2.50\pic\sources\c99\
      +                          common\doprnt.c: 1822:     cfmt = (char *)fmt;
  1917     1DDD  1683               	bsf	3,5	;RP0=1, select bank3
  1918     1DDE  1703               	bsf	3,6	;RP1=1, select bank3
  1919     1DDF  082E               	movf	vfprintf@fmt^(0+384),w
  1920     1DE0  1683               	bsf	3,5	;RP0=1, select bank1
  1921     1DE1  1303               	bcf	3,6	;RP1=0, select bank1
  1922     1DE2  00D5               	movwf	vfprintf@cfmt^(0+128)
  1923     1DE3  1683               	bsf	3,5	;RP0=1, select bank3
  1924     1DE4  1703               	bsf	3,6	;RP1=1, select bank3
  1925     1DE5  082F               	movf	(vfprintf@fmt+1)^(0+384),w
  1926     1DE6  1683               	bsf	3,5	;RP0=1, select bank1
  1927     1DE7  1303               	bcf	3,6	;RP1=0, select bank1
  1928     1DE8  00D6               	movwf	(vfprintf@cfmt+1)^(0+128)
  1929     1DE9                     l4381:
  1930                           
  1931                           ;C:\Program Files\Microchip\xc8\v2.50\pic\sources\c99\common\doprnt.c: 1824:     nout = 
      +                          0;
  1932     1DE9  1683               	bsf	3,5	;RP0=1, select bank3
  1933     1DEA  1703               	bsf	3,6	;RP1=1, select bank3
  1934     1DEB  01E7               	clrf	_nout^(0+384)
  1935     1DEC  01E8               	clrf	(_nout+1)^(0+384)
  1936                           
  1937                           ;C:\Program Files\Microchip\xc8\v2.50\pic\sources\c99\common\doprnt.c: 1826:     while (
      +                          *cfmt) {
  1938     1DED  2E07               	goto	l4385
  1939     1DEE                     l4383:
  1940                           
  1941                           ;C:\Program Files\Microchip\xc8\v2.50\pic\sources\c99\common\doprnt.c: 1828:         nou
      +                          t +=
  1942     1DEE  1683               	bsf	3,5	;RP0=1, select bank3
  1943     1DEF  1703               	bsf	3,6	;RP1=1, select bank3
  1944     1DF0  082C               	movf	vfprintf@fp^(0+384),w
  1945     1DF1  009B               	movwf	vfpfcnvrt@fp^(0+384)
  1946     1DF2  082D               	movf	(vfprintf@fp+1)^(0+384),w
  1947     1DF3  009C               	movwf	(vfpfcnvrt@fp+1)^(0+384)
  1948     1DF4  30D5               	movlw	(low (vfprintf@cfmt| 0))& (0+255)
  1949     1DF5  009D               	movwf	vfpfcnvrt@fmt^(0+384)
  1950     1DF6  0830               	movf	vfprintf@ap^(0+384),w
  1951     1DF7  009E               	movwf	vfpfcnvrt@ap^(0+384)
  1952     1DF8  3001               	movlw	1
  1953     1DF9  009F               	movwf	(vfpfcnvrt@ap+1)^(0+384)
  1954     1DFA  120A  118A  202F  160A  158A  	fcall	_vfpfcnvrt
  1955     1DFF  1683               	bsf	3,5	;RP0=1, select bank3
  1956     1E00  1703               	bsf	3,6	;RP1=1, select bank3
  1957     1E01  081B               	movf	?_vfpfcnvrt^(0+384),w
  1958     1E02  07E7               	addwf	_nout^(0+384),f
  1959     1E03  1803               	skipnc
  1960     1E04  0AE8               	incf	(_nout+1)^(0+384),f
  1961     1E05  081C               	movf	(?_vfpfcnvrt+1)^(0+384),w
  1962     1E06  07E8               	addwf	(_nout+1)^(0+384),f
  1963     1E07                     l4385:
  1964                           
  1965                           ;C:\Program Files\Microchip\xc8\v2.50\pic\sources\c99\common\doprnt.c: 1826:     while (
      +                          *cfmt) {
  1966     1E07  1683               	bsf	3,5	;RP0=1, select bank1
  1967     1E08  1303               	bcf	3,6	;RP1=0, select bank1
  1968     1E09  0856               	movf	(vfprintf@cfmt+1)^(0+128),w
  1969     1E0A  1283               	bcf	3,5	;RP0=0, select bank0
  1970     1E0B  1303               	bcf	3,6	;RP1=0, select bank0
  1971     1E0C  00FF               	movwf	btemp+1
  1972     1E0D  1683               	bsf	3,5	;RP0=1, select bank1
  1973     1E0E  1303               	bcf	3,6	;RP1=0, select bank1
  1974     1E0F  0855               	movf	vfprintf@cfmt^(0+128),w
  1975     1E10  0084               	movwf	4
  1976     1E11  1283               	bcf	3,5	;RP0=0, select bank0
  1977     1E12  1303               	bcf	3,6	;RP1=0, select bank0
  1978     1E13  160A  158A  2000  160A  158A  	fcall	stringtab
  1979     1E18  3A00               	xorlw	0
  1980     1E19  1D03               	skipz
  1981     1E1A  2E1C               	goto	u6101
  1982     1E1B  2E1D               	goto	u6100
  1983     1E1C                     u6101:
  1984     1E1C  2DEE               	goto	l4383
  1985     1E1D                     u6100:
  1986     1E1D                     l4387:
  1987                           
  1988                           ;C:\Program Files\Microchip\xc8\v2.50\pic\sources\c99\common\doprnt.c: 1835:  return 0;
  1989     1E1D  1683               	bsf	3,5	;RP0=1, select bank3
  1990     1E1E  1703               	bsf	3,6	;RP1=1, select bank3
  1991     1E1F  01AC               	clrf	?_vfprintf^(0+384)
  1992     1E20  01AD               	clrf	(?_vfprintf+1)^(0+384)
  1993     1E21                     l833:
  1994     1E21  0008               	return
  1995     1E22                     __end_of_vfprintf:
  1996                           
  1997                           	psect	text3
  1998     002F                     __ptext3:	
  1999 ;; *************** function _vfpfcnvrt *****************
  2000 ;; Defined at:
  2001 ;;		line 1177 in file "C:\Program Files\Microchip\xc8\v2.50\pic\sources\c99\common\doprnt.c"
  2002 ;; Parameters:    Size  Location     Type
  2003 ;;  fp              2   11[BANK3 ] PTR struct _IO_FILE
  2004 ;;		 -> sprintf@f(11), 
  2005 ;;  fmt             1   13[BANK3 ] PTR PTR unsigned char 
  2006 ;;		 -> vfprintf@cfmt(2), 
  2007 ;;  ap              2   14[BANK3 ] PTR PTR void 
  2008 ;;		 -> sprintf@ap(1), 
  2009 ;; Auto vars:     Size  Location     Type
  2010 ;;  convarg         4   22[BANK3 ] struct .
  2011 ;;  cp              2   26[BANK3 ] PTR unsigned char 
  2012 ;;		 -> ROM(8192), STR_2(5), STR_1(5), 
  2013 ;;  c               1   21[BANK3 ] unsigned char 
  2014 ;;  done            1   20[BANK3 ] _Bool 
  2015 ;; Return value:  Size  Location     Type
  2016 ;;                  2   11[BANK3 ] int 
  2017 ;; Registers used:
  2018 ;;		wreg, fsr0l, fsr0h, status,2, status,0, btemp+1, pclath, cstack
  2019 ;; Tracked objects:
  2020 ;;		On entry : 0/0
  2021 ;;		On exit  : 0/0
  2022 ;;		Unchanged: 0/0
  2023 ;; Data sizes:     COMMON   BANK0   BANK1   BANK3   BANK2
  2024 ;;      Params:         0       0       0       5       0
  2025 ;;      Locals:         0       0       0       8       0
  2026 ;;      Temps:          0       0       0       4       0
  2027 ;;      Totals:         0       0       0      17       0
  2028 ;;Total ram usage:       17 bytes
  2029 ;; Hardware stack levels used: 1
  2030 ;; Hardware stack levels required when called: 14
  2031 ;; This function calls:
  2032 ;;		_ctoa
  2033 ;;		_dtoa
  2034 ;;		_fputc
  2035 ;;		_otoa
  2036 ;;		_read_prec_or_width
  2037 ;;		_utoa
  2038 ;;		_xtoa
  2039 ;; This function is called by:
  2040 ;;		_vfprintf
  2041 ;; This function uses a non-reentrant model
  2042 ;;
  2043                           
  2044     002F                     _vfpfcnvrt:	
  2045                           ;psect for function _vfpfcnvrt
  2046                           
  2047     002F                     l4195:	
  2048                           ;incstack = 0
  2049 ;; hardware stack exceeded
  2050                           ; Regs used in _vfpfcnvrt: [wreg-fsr0h+status,2+status,0+btemp+1+pclath+cstack]
  2051                           
  2052                           
  2053                           ;C:\Program Files\Microchip\xc8\v2.50\pic\sources\c99\common\doprnt.c: 1177: vfpfcnvrt(F
      +                          ILE *fp, char *fmt[], va_list ap);C:\Program Files\Microchip\xc8\v2.50\pic\sources\c99\c
      +                          ommon\doprnt.c: 1178: {;C:\Program Files\Microchip\xc8\v2.50\pic\sources\c99\common\dopr
      +                          nt.c: 1179:     char c, *cp;;C:\Program Files\Microchip\xc8\v2.50\pic\sources\c99\common
      +                          \doprnt.c: 1180:     _Bool done;;C:\Program Files\Microchip\xc8\v2.50\pic\sources\c99\co
      +                          mmon\doprnt.c: 1188:  } convarg;;C:\Program Files\Microchip\xc8\v2.50\pic\sources\c99\co
      +                          mmon\doprnt.c: 1201:     if ((*fmt)[0] == '%') {
  2054     002F  1683               	bsf	3,5	;RP0=1, select bank3
  2055     0030  1703               	bsf	3,6	;RP1=1, select bank3
  2056     0031  081D               	movf	vfpfcnvrt@fmt^(0+384),w
  2057     0032  0084               	movwf	4
  2058     0033  1383               	bcf	3,7	;select IRP bank0
  2059     0034  0800               	movf	0,w
  2060     0035  00A0               	movwf	??_vfpfcnvrt^(0+384)
  2061     0036  0A84               	incf	4,f
  2062     0037  0800               	movf	0,w
  2063     0038  00A1               	movwf	(??_vfpfcnvrt^(0+384)+1)
  2064     0039  0821               	movf	(??_vfpfcnvrt+1)^(0+384),w
  2065     003A  1283               	bcf	3,5	;RP0=0, select bank0
  2066     003B  1303               	bcf	3,6	;RP1=0, select bank0
  2067     003C  00FF               	movwf	btemp+1
  2068     003D  1683               	bsf	3,5	;RP0=1, select bank3
  2069     003E  1703               	bsf	3,6	;RP1=1, select bank3
  2070     003F  0820               	movf	??_vfpfcnvrt^(0+384),w
  2071     0040  0084               	movwf	4
  2072     0041  1283               	bcf	3,5	;RP0=0, select bank0
  2073     0042  1303               	bcf	3,6	;RP1=0, select bank0
  2074     0043  160A  158A  2000  120A  118A  	fcall	stringtab
  2075     0048  3A25               	xorlw	37
  2076     0049  1D03               	skipz
  2077     004A  284C               	goto	u5951
  2078     004B  284D               	goto	u5950
  2079     004C                     u5951:
  2080     004C  2D5C               	goto	l4371
  2081     004D                     u5950:
  2082     004D                     l4197:
  2083                           
  2084                           ;C:\Program Files\Microchip\xc8\v2.50\pic\sources\c99\common\doprnt.c: 1202:         ++*
      +                          fmt;
  2085     004D  1683               	bsf	3,5	;RP0=1, select bank3
  2086     004E  1703               	bsf	3,6	;RP1=1, select bank3
  2087     004F  081D               	movf	vfpfcnvrt@fmt^(0+384),w
  2088     0050  0084               	movwf	4
  2089     0051  3001               	movlw	1
  2090     0052  1383               	bcf	3,7	;select IRP bank0
  2091     0053  0780               	addwf	0,f
  2092     0054  0A84               	incf	4,f
  2093     0055  1803               	skipnc
  2094     0056  0A80               	incf	0,f
  2095     0057                     l4199:
  2096                           
  2097                           ;C:\Program Files\Microchip\xc8\v2.50\pic\sources\c99\common\doprnt.c: 1204:         fla
      +                          gs = width = 0;
  2098     0057  1683               	bsf	3,5	;RP0=1, select bank1
  2099     0058  1303               	bcf	3,6	;RP1=0, select bank1
  2100     0059  01D7               	clrf	_width^(0+128)
  2101     005A  01D8               	clrf	(_width+1)^(0+128)
  2102     005B  3000               	movlw	0
  2103     005C  00DD               	movwf	_flags^(0+128)
  2104     005D                     l4201:
  2105                           
  2106                           ;C:\Program Files\Microchip\xc8\v2.50\pic\sources\c99\common\doprnt.c: 1205:         pre
      +                          c = -1;
  2107     005D  30FF               	movlw	255
  2108     005E  00D9               	movwf	_prec^(0+128)
  2109     005F  30FF               	movlw	255
  2110     0060  00DA               	movwf	(_prec^(0+128)+1)
  2111     0061                     l4203:
  2112                           
  2113                           ;C:\Program Files\Microchip\xc8\v2.50\pic\sources\c99\common\doprnt.c: 1209:         don
      +                          e = 0;
  2114     0061  1683               	bsf	3,5	;RP0=1, select bank3
  2115     0062  1703               	bsf	3,6	;RP1=1, select bank3
  2116     0063  01A4               	clrf	vfpfcnvrt@done^(0+384)
  2117                           
  2118                           ;C:\Program Files\Microchip\xc8\v2.50\pic\sources\c99\common\doprnt.c: 1210:         whi
      +                          le (!done) {
  2119     0064  28AF               	goto	l4219
  2120     0065                     l766:	
  2121                           ;C:\Program Files\Microchip\xc8\v2.50\pic\sources\c99\common\doprnt.c: 1213:            
      +                               case '-' :
  2122                           
  2123                           
  2124                           ;C:\Program Files\Microchip\xc8\v2.50\pic\sources\c99\common\doprnt.c: 1214:            
      +                                   flags |= (1 << 0);
  2125     0065  1683               	bsf	3,5	;RP0=1, select bank1
  2126     0066  1303               	bcf	3,6	;RP1=0, select bank1
  2127     0067  145D               	bsf	_flags^(0+128),0
  2128     0068                     l4205:
  2129                           
  2130                           ;C:\Program Files\Microchip\xc8\v2.50\pic\sources\c99\common\doprnt.c: 1215:            
      +                                   ++*fmt;
  2131     0068  1683               	bsf	3,5	;RP0=1, select bank3
  2132     0069  1703               	bsf	3,6	;RP1=1, select bank3
  2133     006A  081D               	movf	vfpfcnvrt@fmt^(0+384),w
  2134     006B  0084               	movwf	4
  2135     006C  3001               	movlw	1
  2136     006D  1383               	bcf	3,7	;select IRP bank0
  2137     006E  0780               	addwf	0,f
  2138     006F  0A84               	incf	4,f
  2139     0070  1803               	skipnc
  2140     0071  0A80               	incf	0,f
  2141                           
  2142                           ;C:\Program Files\Microchip\xc8\v2.50\pic\sources\c99\common\doprnt.c: 1216:            
      +                                   break;
  2143     0072  28AF               	goto	l4219
  2144     0073                     l768:	
  2145                           ;C:\Program Files\Microchip\xc8\v2.50\pic\sources\c99\common\doprnt.c: 1219:            
      +                               case '0' :
  2146                           
  2147                           
  2148                           ;C:\Program Files\Microchip\xc8\v2.50\pic\sources\c99\common\doprnt.c: 1220:            
      +                                   flags |= (1 << 1);
  2149     0073  1683               	bsf	3,5	;RP0=1, select bank1
  2150     0074  1303               	bcf	3,6	;RP1=0, select bank1
  2151     0075  14DD               	bsf	_flags^(0+128),1
  2152     0076  2868               	goto	l4205
  2153     0077                     l769:	
  2154                           ;C:\Program Files\Microchip\xc8\v2.50\pic\sources\c99\common\doprnt.c: 1225:            
      +                               case '+' :
  2155                           
  2156                           
  2157                           ;C:\Program Files\Microchip\xc8\v2.50\pic\sources\c99\common\doprnt.c: 1226:            
      +                                   flags |= (1 << 2);
  2158     0077  1683               	bsf	3,5	;RP0=1, select bank1
  2159     0078  1303               	bcf	3,6	;RP1=0, select bank1
  2160     0079  155D               	bsf	_flags^(0+128),2
  2161     007A  2868               	goto	l4205
  2162     007B                     l770:	
  2163                           ;C:\Program Files\Microchip\xc8\v2.50\pic\sources\c99\common\doprnt.c: 1231:            
      +                               case ' ' :
  2164                           
  2165                           
  2166                           ;C:\Program Files\Microchip\xc8\v2.50\pic\sources\c99\common\doprnt.c: 1232:            
      +                                   flags |= (1 << 3);
  2167     007B  1683               	bsf	3,5	;RP0=1, select bank1
  2168     007C  1303               	bcf	3,6	;RP1=0, select bank1
  2169     007D  15DD               	bsf	_flags^(0+128),3
  2170     007E  2868               	goto	l4205
  2171     007F                     l771:	
  2172                           ;C:\Program Files\Microchip\xc8\v2.50\pic\sources\c99\common\doprnt.c: 1237:            
      +                               case '#' :
  2173                           
  2174                           
  2175                           ;C:\Program Files\Microchip\xc8\v2.50\pic\sources\c99\common\doprnt.c: 1238:            
      +                                   flags |= (1 << 4);
  2176     007F  1683               	bsf	3,5	;RP0=1, select bank1
  2177     0080  1303               	bcf	3,6	;RP1=0, select bank1
  2178     0081  165D               	bsf	_flags^(0+128),4
  2179     0082  2868               	goto	l4205
  2180     0083                     l772:	
  2181                           ;C:\Program Files\Microchip\xc8\v2.50\pic\sources\c99\common\doprnt.c: 1242:            
      +                               default:
  2182                           
  2183                           
  2184                           ;C:\Program Files\Microchip\xc8\v2.50\pic\sources\c99\common\doprnt.c: 1243:            
      +                                   done = 1;
  2185     0083  3001               	movlw	1
  2186     0084  1683               	bsf	3,5	;RP0=1, select bank3
  2187     0085  1703               	bsf	3,6	;RP1=1, select bank3
  2188     0086  00A4               	movwf	vfpfcnvrt@done^(0+384)
  2189                           
  2190                           ;C:\Program Files\Microchip\xc8\v2.50\pic\sources\c99\common\doprnt.c: 1244:            
      +                                   break;
  2191     0087  28AF               	goto	l4219
  2192     0088                     l4217:
  2193     0088  081D               	movf	vfpfcnvrt@fmt^(0+384),w
  2194     0089  0084               	movwf	4
  2195     008A  1383               	bcf	3,7	;select IRP bank0
  2196     008B  0800               	movf	0,w
  2197     008C  00A0               	movwf	??_vfpfcnvrt^(0+384)
  2198     008D  0A84               	incf	4,f
  2199     008E  0800               	movf	0,w
  2200     008F  00A1               	movwf	(??_vfpfcnvrt^(0+384)+1)
  2201     0090  0821               	movf	(??_vfpfcnvrt+1)^(0+384),w
  2202     0091  1283               	bcf	3,5	;RP0=0, select bank0
  2203     0092  1303               	bcf	3,6	;RP1=0, select bank0
  2204     0093  00FF               	movwf	btemp+1
  2205     0094  1683               	bsf	3,5	;RP0=1, select bank3
  2206     0095  1703               	bsf	3,6	;RP1=1, select bank3
  2207     0096  0820               	movf	??_vfpfcnvrt^(0+384),w
  2208     0097  0084               	movwf	4
  2209     0098  1283               	bcf	3,5	;RP0=0, select bank0
  2210     0099  1303               	bcf	3,6	;RP1=0, select bank0
  2211     009A  160A  158A  2000  120A  118A  	fcall	stringtab
  2212                           
  2213                           ; Switch size 1, requested type "simple"
  2214                           ; Number of cases is 5, Range of values is 32 to 48
  2215                           ; switch strategies available:
  2216                           ; Name         Instructions Cycles
  2217                           ; simple_byte           16     9 (average)
  2218                           ; direct_byte           62    11 (fixed)
  2219                           ; jumptable            263     9 (fixed)
  2220                           ;	Chosen strategy is simple_byte
  2221     009F  3A20               	xorlw	32	; case 32
  2222     00A0  1903               	skipnz
  2223     00A1  287B               	goto	l770
  2224     00A2  3A03               	xorlw	3	; case 35
  2225     00A3  1903               	skipnz
  2226     00A4  287F               	goto	l771
  2227     00A5  3A08               	xorlw	8	; case 43
  2228     00A6  1903               	skipnz
  2229     00A7  2877               	goto	l769
  2230     00A8  3A06               	xorlw	6	; case 45
  2231     00A9  1903               	skipnz
  2232     00AA  2865               	goto	l766
  2233     00AB  3A1D               	xorlw	29	; case 48
  2234     00AC  1903               	skipnz
  2235     00AD  2873               	goto	l768
  2236     00AE  2883               	goto	l772
  2237     00AF                     l4219:
  2238                           
  2239                           ;C:\Program Files\Microchip\xc8\v2.50\pic\sources\c99\common\doprnt.c: 1210:         whi
      +                          le (!done) {
  2240     00AF  0824               	movf	vfpfcnvrt@done^(0+384),w
  2241     00B0  1903               	btfsc	3,2
  2242     00B1  28B3               	goto	u5961
  2243     00B2  28B4               	goto	u5960
  2244     00B3                     u5961:
  2245     00B3  2888               	goto	l4217
  2246     00B4                     u5960:
  2247     00B4                     l773:
  2248                           
  2249                           ;C:\Program Files\Microchip\xc8\v2.50\pic\sources\c99\common\doprnt.c: 1248:         if 
      +                          (flags & (1 << 0)) {
  2250     00B4  1683               	bsf	3,5	;RP0=1, select bank1
  2251     00B5  1303               	bcf	3,6	;RP1=0, select bank1
  2252     00B6  1C5D               	btfss	_flags^(0+128),0
  2253     00B7  28B9               	goto	u5971
  2254     00B8  28BA               	goto	u5970
  2255     00B9                     u5971:
  2256     00B9  28BC               	goto	l4223
  2257     00BA                     u5970:
  2258     00BA                     l4221:
  2259                           
  2260                           ;C:\Program Files\Microchip\xc8\v2.50\pic\sources\c99\common\doprnt.c: 1249:            
      +                           flags &= ~(1 << 1);
  2261     00BA  30FD               	movlw	253
  2262     00BB  05DD               	andwf	_flags^(0+128),f
  2263     00BC                     l4223:
  2264                           
  2265                           ;C:\Program Files\Microchip\xc8\v2.50\pic\sources\c99\common\doprnt.c: 1256:   width = r
      +                          ead_prec_or_width(fmt, ap);
  2266     00BC  1683               	bsf	3,5	;RP0=1, select bank3
  2267     00BD  1703               	bsf	3,6	;RP1=1, select bank3
  2268     00BE  081D               	movf	vfpfcnvrt@fmt^(0+384),w
  2269     00BF  1683               	bsf	3,5	;RP0=1, select bank1
  2270     00C0  1303               	bcf	3,6	;RP1=0, select bank1
  2271     00C1  00B8               	movwf	read_prec_or_width@fmt^(0+128)
  2272     00C2  1683               	bsf	3,5	;RP0=1, select bank3
  2273     00C3  1703               	bsf	3,6	;RP1=1, select bank3
  2274     00C4  081E               	movf	vfpfcnvrt@ap^(0+384),w
  2275     00C5  1683               	bsf	3,5	;RP0=1, select bank1
  2276     00C6  1303               	bcf	3,6	;RP1=0, select bank1
  2277     00C7  00B9               	movwf	read_prec_or_width@ap^(0+128)
  2278     00C8  160A  118A  21D6  120A  118A  	fcall	_read_prec_or_width
  2279     00CD  1683               	bsf	3,5	;RP0=1, select bank1
  2280     00CE  1303               	bcf	3,6	;RP1=0, select bank1
  2281     00CF  0839               	movf	(?_read_prec_or_width+1)^(0+128),w
  2282     00D0  00D8               	movwf	(_width+1)^(0+128)
  2283     00D1  0838               	movf	?_read_prec_or_width^(0+128),w
  2284     00D2  00D7               	movwf	_width^(0+128)
  2285     00D3                     l4225:
  2286                           
  2287                           ;C:\Program Files\Microchip\xc8\v2.50\pic\sources\c99\common\doprnt.c: 1257:   if (width
      +                           < 0) {
  2288     00D3  1FD8               	btfss	(_width+1)^(0+128),7
  2289     00D4  28D6               	goto	u5981
  2290     00D5  28D7               	goto	u5980
  2291     00D6                     u5981:
  2292     00D6  28DD               	goto	l4231
  2293     00D7                     u5980:
  2294     00D7                     l4227:
  2295                           
  2296                           ;C:\Program Files\Microchip\xc8\v2.50\pic\sources\c99\common\doprnt.c: 1258:    flags |=
      +                           (1 << 0);
  2297     00D7  145D               	bsf	_flags^(0+128),0
  2298     00D8                     l4229:
  2299                           
  2300                           ;C:\Program Files\Microchip\xc8\v2.50\pic\sources\c99\common\doprnt.c: 1259:    width = 
      +                          -width;
  2301     00D8  09D7               	comf	_width^(0+128),f
  2302     00D9  09D8               	comf	(_width+1)^(0+128),f
  2303     00DA  0AD7               	incf	_width^(0+128),f
  2304     00DB  1903               	skipnz
  2305     00DC  0AD8               	incf	(_width+1)^(0+128),f
  2306     00DD                     l4231:
  2307                           
  2308                           ;C:\Program Files\Microchip\xc8\v2.50\pic\sources\c99\common\doprnt.c: 1265:         if 
      +                          ((*fmt)[0] == '.') {
  2309     00DD  1683               	bsf	3,5	;RP0=1, select bank3
  2310     00DE  1703               	bsf	3,6	;RP1=1, select bank3
  2311     00DF  081D               	movf	vfpfcnvrt@fmt^(0+384),w
  2312     00E0  0084               	movwf	4
  2313     00E1  1383               	bcf	3,7	;select IRP bank0
  2314     00E2  0800               	movf	0,w
  2315     00E3  00A0               	movwf	??_vfpfcnvrt^(0+384)
  2316     00E4  0A84               	incf	4,f
  2317     00E5  0800               	movf	0,w
  2318     00E6  00A1               	movwf	(??_vfpfcnvrt^(0+384)+1)
  2319     00E7  0821               	movf	(??_vfpfcnvrt+1)^(0+384),w
  2320     00E8  1283               	bcf	3,5	;RP0=0, select bank0
  2321     00E9  1303               	bcf	3,6	;RP1=0, select bank0
  2322     00EA  00FF               	movwf	btemp+1
  2323     00EB  1683               	bsf	3,5	;RP0=1, select bank3
  2324     00EC  1703               	bsf	3,6	;RP1=1, select bank3
  2325     00ED  0820               	movf	??_vfpfcnvrt^(0+384),w
  2326     00EE  0084               	movwf	4
  2327     00EF  1283               	bcf	3,5	;RP0=0, select bank0
  2328     00F0  1303               	bcf	3,6	;RP1=0, select bank0
  2329     00F1  160A  158A  2000  120A  118A  	fcall	stringtab
  2330     00F6  3A2E               	xorlw	46
  2331     00F7  1D03               	skipz
  2332     00F8  28FA               	goto	u5991
  2333     00F9  28FB               	goto	u5990
  2334     00FA                     u5991:
  2335     00FA  291A               	goto	l4237
  2336     00FB                     u5990:
  2337     00FB                     l4233:
  2338                           
  2339                           ;C:\Program Files\Microchip\xc8\v2.50\pic\sources\c99\common\doprnt.c: 1266:            
      +                           ++*fmt;
  2340     00FB  1683               	bsf	3,5	;RP0=1, select bank3
  2341     00FC  1703               	bsf	3,6	;RP1=1, select bank3
  2342     00FD  081D               	movf	vfpfcnvrt@fmt^(0+384),w
  2343     00FE  0084               	movwf	4
  2344     00FF  3001               	movlw	1
  2345     0100  1383               	bcf	3,7	;select IRP bank0
  2346     0101  0780               	addwf	0,f
  2347     0102  0A84               	incf	4,f
  2348     0103  1803               	skipnc
  2349     0104  0A80               	incf	0,f
  2350     0105                     l4235:
  2351                           
  2352                           ;C:\Program Files\Microchip\xc8\v2.50\pic\sources\c99\common\doprnt.c: 1267:    prec = r
      +                          ead_prec_or_width(fmt, ap);
  2353     0105  081D               	movf	vfpfcnvrt@fmt^(0+384),w
  2354     0106  1683               	bsf	3,5	;RP0=1, select bank1
  2355     0107  1303               	bcf	3,6	;RP1=0, select bank1
  2356     0108  00B8               	movwf	read_prec_or_width@fmt^(0+128)
  2357     0109  1683               	bsf	3,5	;RP0=1, select bank3
  2358     010A  1703               	bsf	3,6	;RP1=1, select bank3
  2359     010B  081E               	movf	vfpfcnvrt@ap^(0+384),w
  2360     010C  1683               	bsf	3,5	;RP0=1, select bank1
  2361     010D  1303               	bcf	3,6	;RP1=0, select bank1
  2362     010E  00B9               	movwf	read_prec_or_width@ap^(0+128)
  2363     010F  160A  118A  21D6  120A  118A  	fcall	_read_prec_or_width
  2364     0114  1683               	bsf	3,5	;RP0=1, select bank1
  2365     0115  1303               	bcf	3,6	;RP1=0, select bank1
  2366     0116  0839               	movf	(?_read_prec_or_width+1)^(0+128),w
  2367     0117  00DA               	movwf	(_prec+1)^(0+128)
  2368     0118  0838               	movf	?_read_prec_or_width^(0+128),w
  2369     0119  00D9               	movwf	_prec^(0+128)
  2370     011A                     l4237:
  2371                           
  2372                           ;C:\Program Files\Microchip\xc8\v2.50\pic\sources\c99\common\doprnt.c: 1273:         if 
      +                          ((*fmt)[0] == 'c') {
  2373     011A  1683               	bsf	3,5	;RP0=1, select bank3
  2374     011B  1703               	bsf	3,6	;RP1=1, select bank3
  2375     011C  081D               	movf	vfpfcnvrt@fmt^(0+384),w
  2376     011D  0084               	movwf	4
  2377     011E  1383               	bcf	3,7	;select IRP bank0
  2378     011F  0800               	movf	0,w
  2379     0120  00A0               	movwf	??_vfpfcnvrt^(0+384)
  2380     0121  0A84               	incf	4,f
  2381     0122  0800               	movf	0,w
  2382     0123  00A1               	movwf	(??_vfpfcnvrt^(0+384)+1)
  2383     0124  0821               	movf	(??_vfpfcnvrt+1)^(0+384),w
  2384     0125  1283               	bcf	3,5	;RP0=0, select bank0
  2385     0126  1303               	bcf	3,6	;RP1=0, select bank0
  2386     0127  00FF               	movwf	btemp+1
  2387     0128  1683               	bsf	3,5	;RP0=1, select bank3
  2388     0129  1703               	bsf	3,6	;RP1=1, select bank3
  2389     012A  0820               	movf	??_vfpfcnvrt^(0+384),w
  2390     012B  0084               	movwf	4
  2391     012C  1283               	bcf	3,5	;RP0=0, select bank0
  2392     012D  1303               	bcf	3,6	;RP1=0, select bank0
  2393     012E  160A  158A  2000  120A  118A  	fcall	stringtab
  2394     0133  3A63               	xorlw	99
  2395     0134  1D03               	skipz
  2396     0135  2937               	goto	u6001
  2397     0136  2938               	goto	u6000
  2398     0137                     u6001:
  2399     0137  2972               	goto	l4247
  2400     0138                     u6000:
  2401     0138                     l4239:
  2402                           
  2403                           ;C:\Program Files\Microchip\xc8\v2.50\pic\sources\c99\common\doprnt.c: 1274:            
      +                           ++*fmt;
  2404     0138  1683               	bsf	3,5	;RP0=1, select bank3
  2405     0139  1703               	bsf	3,6	;RP1=1, select bank3
  2406     013A  081D               	movf	vfpfcnvrt@fmt^(0+384),w
  2407     013B  0084               	movwf	4
  2408     013C  3001               	movlw	1
  2409     013D  1383               	bcf	3,7	;select IRP bank0
  2410     013E  0780               	addwf	0,f
  2411     013F  0A84               	incf	4,f
  2412     0140  1803               	skipnc
  2413     0141  0A80               	incf	0,f
  2414     0142                     l4241:
  2415                           
  2416                           ;C:\Program Files\Microchip\xc8\v2.50\pic\sources\c99\common\doprnt.c: 1275:            
      +                           c = (unsigned char)(*(int *)__va_arg(*(int **)ap, (int)0));
  2417     0142  081E               	movf	vfpfcnvrt@ap^(0+384),w
  2418     0143  0084               	movwf	4
  2419     0144  1783               	bsf	3,7
  2420     0145  1C1F               	btfss	(vfpfcnvrt@ap+1)^(0+384),0
  2421     0146  1383               	bcf	3,7
  2422     0147  0800               	movf	0,w
  2423     0148  00FF               	movwf	btemp+1
  2424     0149  3002               	movlw	2
  2425     014A  0780               	addwf	0,f
  2426     014B  087F               	movf	btemp+1,w
  2427     014C  0084               	movwf	4
  2428     014D  1783               	bsf	3,7	;select IRP bank2
  2429     014E  0800               	movf	0,w
  2430     014F  00A5               	movwf	vfpfcnvrt@c^(0+384)
  2431     0150                     l4243:
  2432                           
  2433                           ;C:\Program Files\Microchip\xc8\v2.50\pic\sources\c99\common\doprnt.c: 1284:            
      +                           return (int) ctoa(fp, c);
  2434     0150  081B               	movf	vfpfcnvrt@fp^(0+384),w
  2435     0151  1683               	bsf	3,5	;RP0=1, select bank1
  2436     0152  1303               	bcf	3,6	;RP1=0, select bank1
  2437     0153  00BF               	movwf	ctoa@fp^(0+128)
  2438     0154  1683               	bsf	3,5	;RP0=1, select bank3
  2439     0155  1703               	bsf	3,6	;RP1=1, select bank3
  2440     0156  081C               	movf	(vfpfcnvrt@fp+1)^(0+384),w
  2441     0157  1683               	bsf	3,5	;RP0=1, select bank1
  2442     0158  1303               	bcf	3,6	;RP1=0, select bank1
  2443     0159  00C0               	movwf	(ctoa@fp+1)^(0+128)
  2444     015A  1683               	bsf	3,5	;RP0=1, select bank3
  2445     015B  1703               	bsf	3,6	;RP1=1, select bank3
  2446     015C  0825               	movf	vfpfcnvrt@c^(0+384),w
  2447     015D  1683               	bsf	3,5	;RP0=1, select bank1
  2448     015E  1303               	bcf	3,6	;RP1=0, select bank1
  2449     015F  00C1               	movwf	ctoa@c^(0+128)
  2450     0160  160A  118A  215B  120A  118A  	fcall	_ctoa
  2451     0165  1683               	bsf	3,5	;RP0=1, select bank1
  2452     0166  1303               	bcf	3,6	;RP1=0, select bank1
  2453     0167  0840               	movf	(?_ctoa+1)^(0+128),w
  2454     0168  1683               	bsf	3,5	;RP0=1, select bank3
  2455     0169  1703               	bsf	3,6	;RP1=1, select bank3
  2456     016A  009C               	movwf	(?_vfpfcnvrt+1)^(0+384)
  2457     016B  1683               	bsf	3,5	;RP0=1, select bank1
  2458     016C  1303               	bcf	3,6	;RP1=0, select bank1
  2459     016D  083F               	movf	?_ctoa^(0+128),w
  2460     016E  1683               	bsf	3,5	;RP0=1, select bank3
  2461     016F  1703               	bsf	3,6	;RP1=1, select bank3
  2462     0170  009B               	movwf	?_vfpfcnvrt^(0+384)
  2463     0171  2D9F               	goto	l778
  2464     0172                     l4247:
  2465                           
  2466                           ;C:\Program Files\Microchip\xc8\v2.50\pic\sources\c99\common\doprnt.c: 1291:   cp = *fmt
      +                          ;
  2467     0172  1683               	bsf	3,5	;RP0=1, select bank3
  2468     0173  1703               	bsf	3,6	;RP1=1, select bank3
  2469     0174  081D               	movf	vfpfcnvrt@fmt^(0+384),w
  2470     0175  0084               	movwf	4
  2471     0176  1383               	bcf	3,7	;select IRP bank0
  2472     0177  0800               	movf	0,w
  2473     0178  00AA               	movwf	vfpfcnvrt@cp^(0+384)
  2474     0179  0A84               	incf	4,f
  2475     017A  0800               	movf	0,w
  2476     017B  0384               	decf	4,f
  2477     017C  00AB               	movwf	(vfpfcnvrt@cp+1)^(0+384)
  2478     017D                     l4249:
  2479                           
  2480                           ;C:\Program Files\Microchip\xc8\v2.50\pic\sources\c99\common\doprnt.c: 1293:   c = *cp;
  2481     017D  082B               	movf	(vfpfcnvrt@cp+1)^(0+384),w
  2482     017E  1283               	bcf	3,5	;RP0=0, select bank0
  2483     017F  1303               	bcf	3,6	;RP1=0, select bank0
  2484     0180  00FF               	movwf	btemp+1
  2485     0181  1683               	bsf	3,5	;RP0=1, select bank3
  2486     0182  1703               	bsf	3,6	;RP1=1, select bank3
  2487     0183  082A               	movf	vfpfcnvrt@cp^(0+384),w
  2488     0184  0084               	movwf	4
  2489     0185  1283               	bcf	3,5	;RP0=0, select bank0
  2490     0186  1303               	bcf	3,6	;RP1=0, select bank0
  2491     0187  160A  158A  2000  120A  118A  	fcall	stringtab
  2492     018C  1683               	bsf	3,5	;RP0=1, select bank3
  2493     018D  1703               	bsf	3,6	;RP1=1, select bank3
  2494     018E  00A5               	movwf	vfpfcnvrt@c^(0+384)
  2495                           
  2496                           ;C:\Program Files\Microchip\xc8\v2.50\pic\sources\c99\common\doprnt.c: 1294:   switch(c)
      +                           {
  2497     018F  29BA               	goto	l4265
  2498     0190                     l4251:
  2499                           
  2500                           ;C:\Program Files\Microchip\xc8\v2.50\pic\sources\c99\common\doprnt.c: 1298:     cp++;
  2501     0190  3001               	movlw	1
  2502     0191  07AA               	addwf	vfpfcnvrt@cp^(0+384),f
  2503     0192  1803               	skipnc
  2504     0193  0AAB               	incf	(vfpfcnvrt@cp+1)^(0+384),f
  2505     0194  3000               	movlw	0
  2506     0195  07AB               	addwf	(vfpfcnvrt@cp+1)^(0+384),f
  2507     0196                     l4253:
  2508                           
  2509                           ;C:\Program Files\Microchip\xc8\v2.50\pic\sources\c99\common\doprnt.c: 1300:     if (*cp
      +                           == 'h') {
  2510     0196  082B               	movf	(vfpfcnvrt@cp+1)^(0+384),w
  2511     0197  1283               	bcf	3,5	;RP0=0, select bank0
  2512     0198  1303               	bcf	3,6	;RP1=0, select bank0
  2513     0199  00FF               	movwf	btemp+1
  2514     019A  1683               	bsf	3,5	;RP0=1, select bank3
  2515     019B  1703               	bsf	3,6	;RP1=1, select bank3
  2516     019C  082A               	movf	vfpfcnvrt@cp^(0+384),w
  2517     019D  0084               	movwf	4
  2518     019E  1283               	bcf	3,5	;RP0=0, select bank0
  2519     019F  1303               	bcf	3,6	;RP1=0, select bank0
  2520     01A0  160A  158A  2000  120A  118A  	fcall	stringtab
  2521     01A5  3A68               	xorlw	104
  2522     01A6  1D03               	skipz
  2523     01A7  29A9               	goto	u6011
  2524     01A8  29AA               	goto	u6010
  2525     01A9                     u6011:
  2526     01A9  29DA               	goto	l4267
  2527     01AA                     u6010:
  2528     01AA                     l4255:
  2529                           
  2530                           ;C:\Program Files\Microchip\xc8\v2.50\pic\sources\c99\common\doprnt.c: 1301:      c = 'H
      +                          ';
  2531     01AA  3048               	movlw	72
  2532     01AB  1683               	bsf	3,5	;RP0=1, select bank3
  2533     01AC  1703               	bsf	3,6	;RP1=1, select bank3
  2534     01AD  00A5               	movwf	vfpfcnvrt@c^(0+384)
  2535     01AE                     l4257:
  2536                           
  2537                           ;C:\Program Files\Microchip\xc8\v2.50\pic\sources\c99\common\doprnt.c: 1302:      cp++;
  2538     01AE  3001               	movlw	1
  2539     01AF  07AA               	addwf	vfpfcnvrt@cp^(0+384),f
  2540     01B0  1803               	skipnc
  2541     01B1  0AAB               	incf	(vfpfcnvrt@cp+1)^(0+384),f
  2542     01B2  3000               	movlw	0
  2543     01B3  07AB               	addwf	(vfpfcnvrt@cp+1)^(0+384),f
  2544     01B4  29DA               	goto	l4267
  2545     01B5                     l788:	
  2546                           ;C:\Program Files\Microchip\xc8\v2.50\pic\sources\c99\common\doprnt.c: 1339:    case 'd'
      +                          :
  2547                           
  2548     01B5                     l791:	
  2549                           ;C:\Program Files\Microchip\xc8\v2.50\pic\sources\c99\common\doprnt.c: 1348:    case 'n'
      +                          :
  2550                           
  2551                           
  2552                           ;C:\Program Files\Microchip\xc8\v2.50\pic\sources\c99\common\doprnt.c: 1350:     c = 'i'
      +                          ;
  2553     01B5  3069               	movlw	105
  2554     01B6  00A5               	movwf	vfpfcnvrt@c^(0+384)
  2555                           
  2556                           ;C:\Program Files\Microchip\xc8\v2.50\pic\sources\c99\common\doprnt.c: 1351:     break;
  2557     01B7  29DA               	goto	l4267
  2558     01B8                     l4261:
  2559                           
  2560                           ;C:\Program Files\Microchip\xc8\v2.50\pic\sources\c99\common\doprnt.c: 1353:     c = 0;
  2561     01B8  01A5               	clrf	vfpfcnvrt@c^(0+384)
  2562                           
  2563                           ;C:\Program Files\Microchip\xc8\v2.50\pic\sources\c99\common\doprnt.c: 1354:     break;
  2564     01B9  29DA               	goto	l4267
  2565     01BA                     l4265:
  2566     01BA  0825               	movf	vfpfcnvrt@c^(0+384),w
  2567                           
  2568                           ; Switch size 1, requested type "simple"
  2569                           ; Number of cases is 10, Range of values is 88 to 122
  2570                           ; switch strategies available:
  2571                           ; Name         Instructions Cycles
  2572                           ; simple_byte           31    16 (average)
  2573                           ; direct_byte          116    11 (fixed)
  2574                           ; jumptable            263     9 (fixed)
  2575                           ;	Chosen strategy is simple_byte
  2576     01BB  3A58               	xorlw	88	; case 88
  2577     01BC  1903               	skipnz
  2578     01BD  29B5               	goto	l791
  2579     01BE  3A3C               	xorlw	60	; case 100
  2580     01BF  1903               	skipnz
  2581     01C0  29B5               	goto	l791
  2582     01C1  3A0C               	xorlw	12	; case 104
  2583     01C2  1903               	skipnz
  2584     01C3  2990               	goto	l4251
  2585     01C4  3A01               	xorlw	1	; case 105
  2586     01C5  1903               	skipnz
  2587     01C6  29B5               	goto	l791
  2588     01C7  3A07               	xorlw	7	; case 110
  2589     01C8  1903               	skipnz
  2590     01C9  29B5               	goto	l791
  2591     01CA  3A01               	xorlw	1	; case 111
  2592     01CB  1903               	skipnz
  2593     01CC  29B5               	goto	l788
  2594     01CD  3A1B               	xorlw	27	; case 116
  2595     01CE  1903               	skipnz
  2596     01CF  29AE               	goto	l4257
  2597     01D0  3A01               	xorlw	1	; case 117
  2598     01D1  1903               	skipnz
  2599     01D2  29B5               	goto	l791
  2600     01D3  3A0D               	xorlw	13	; case 120
  2601     01D4  1903               	skipnz
  2602     01D5  29B5               	goto	l791
  2603     01D6  3A02               	xorlw	2	; case 122
  2604     01D7  1903               	skipnz
  2605     01D8  29AE               	goto	l4257
  2606     01D9  29B8               	goto	l4261
  2607     01DA                     l4267:
  2608                           
  2609                           ;C:\Program Files\Microchip\xc8\v2.50\pic\sources\c99\common\doprnt.c: 1361:   if (*cp =
      +                          = 'd' || *cp == 'i') {
  2610     01DA  1683               	bsf	3,5	;RP0=1, select bank3
  2611     01DB  1703               	bsf	3,6	;RP1=1, select bank3
  2612     01DC  082B               	movf	(vfpfcnvrt@cp+1)^(0+384),w
  2613     01DD  1283               	bcf	3,5	;RP0=0, select bank0
  2614     01DE  1303               	bcf	3,6	;RP1=0, select bank0
  2615     01DF  00FF               	movwf	btemp+1
  2616     01E0  1683               	bsf	3,5	;RP0=1, select bank3
  2617     01E1  1703               	bsf	3,6	;RP1=1, select bank3
  2618     01E2  082A               	movf	vfpfcnvrt@cp^(0+384),w
  2619     01E3  0084               	movwf	4
  2620     01E4  1283               	bcf	3,5	;RP0=0, select bank0
  2621     01E5  1303               	bcf	3,6	;RP1=0, select bank0
  2622     01E6  160A  158A  2000  120A  118A  	fcall	stringtab
  2623     01EB  3A64               	xorlw	100
  2624     01EC  1903               	skipnz
  2625     01ED  29EF               	goto	u6021
  2626     01EE  29F0               	goto	u6020
  2627     01EF                     u6021:
  2628     01EF  2A61               	goto	l4283
  2629     01F0                     u6020:
  2630     01F0                     l4269:
  2631     01F0  1683               	bsf	3,5	;RP0=1, select bank3
  2632     01F1  1703               	bsf	3,6	;RP1=1, select bank3
  2633     01F2  082B               	movf	(vfpfcnvrt@cp+1)^(0+384),w
  2634     01F3  1283               	bcf	3,5	;RP0=0, select bank0
  2635     01F4  1303               	bcf	3,6	;RP1=0, select bank0
  2636     01F5  00FF               	movwf	btemp+1
  2637     01F6  1683               	bsf	3,5	;RP0=1, select bank3
  2638     01F7  1703               	bsf	3,6	;RP1=1, select bank3
  2639     01F8  082A               	movf	vfpfcnvrt@cp^(0+384),w
  2640     01F9  0084               	movwf	4
  2641     01FA  1283               	bcf	3,5	;RP0=0, select bank0
  2642     01FB  1303               	bcf	3,6	;RP1=0, select bank0
  2643     01FC  160A  158A  2000  120A  118A  	fcall	stringtab
  2644     0201  3A69               	xorlw	105
  2645     0202  1D03               	skipz
  2646     0203  2A05               	goto	u6031
  2647     0204  2A06               	goto	u6030
  2648     0205                     u6031:
  2649     0205  2AB2               	goto	l4291
  2650     0206                     u6030:
  2651     0206  2A61               	goto	l4283
  2652     0207                     l4271:
  2653                           
  2654                           ;C:\Program Files\Microchip\xc8\v2.50\pic\sources\c99\common\doprnt.c: 1365:      convar
      +                          g.sint = (vfpf_sint_t)(int)(*(int *)__va_arg(*(int **)ap, (int)0));
  2655     0207  081E               	movf	vfpfcnvrt@ap^(0+384),w
  2656     0208  0084               	movwf	4
  2657     0209  1783               	bsf	3,7
  2658     020A  1C1F               	btfss	(vfpfcnvrt@ap+1)^(0+384),0
  2659     020B  1383               	bcf	3,7
  2660     020C  0800               	movf	0,w
  2661     020D  00FF               	movwf	btemp+1
  2662     020E  3002               	movlw	2
  2663     020F  0780               	addwf	0,f
  2664     0210  087F               	movf	btemp+1,w
  2665     0211  0084               	movwf	4
  2666     0212  1783               	bsf	3,7	;select IRP bank2
  2667     0213  0800               	movf	0,w
  2668     0214  00A6               	movwf	vfpfcnvrt@convarg^(0+384)
  2669     0215  0A84               	incf	4,f
  2670     0216  0800               	movf	0,w
  2671     0217  00A7               	movwf	(vfpfcnvrt@convarg+1)^(0+384)
  2672                           
  2673                           ;C:\Program Files\Microchip\xc8\v2.50\pic\sources\c99\common\doprnt.c: 1366:      break;
  2674     0218  2A74               	goto	l4285
  2675     0219                     l4273:
  2676                           
  2677                           ;C:\Program Files\Microchip\xc8\v2.50\pic\sources\c99\common\doprnt.c: 1369:      convar
      +                          g.sint = (vfpf_sint_t)(short)(*(int *)__va_arg(*(int **)ap, (int)0));
  2678     0219  081E               	movf	vfpfcnvrt@ap^(0+384),w
  2679     021A  0084               	movwf	4
  2680     021B  1783               	bsf	3,7
  2681     021C  1C1F               	btfss	(vfpfcnvrt@ap+1)^(0+384),0
  2682     021D  1383               	bcf	3,7
  2683     021E  0800               	movf	0,w
  2684     021F  00FF               	movwf	btemp+1
  2685     0220  3002               	movlw	2
  2686     0221  0780               	addwf	0,f
  2687     0222  087F               	movf	btemp+1,w
  2688     0223  0084               	movwf	4
  2689     0224  1783               	bsf	3,7	;select IRP bank2
  2690     0225  0800               	movf	0,w
  2691     0226  00A6               	movwf	vfpfcnvrt@convarg^(0+384)
  2692     0227  0A84               	incf	4,f
  2693     0228  0800               	movf	0,w
  2694     0229  00A7               	movwf	(vfpfcnvrt@convarg+1)^(0+384)
  2695                           
  2696                           ;C:\Program Files\Microchip\xc8\v2.50\pic\sources\c99\common\doprnt.c: 1370:      break;
  2697     022A  2A74               	goto	l4285
  2698     022B                     l4275:
  2699                           
  2700                           ;C:\Program Files\Microchip\xc8\v2.50\pic\sources\c99\common\doprnt.c: 1374:      convar
      +                          g.sint = (vfpf_sint_t)(signed char)(*(int *)__va_arg(*(int **)ap, (int)0));
  2701     022B  081E               	movf	vfpfcnvrt@ap^(0+384),w
  2702     022C  0084               	movwf	4
  2703     022D  1783               	bsf	3,7
  2704     022E  1C1F               	btfss	(vfpfcnvrt@ap+1)^(0+384),0
  2705     022F  1383               	bcf	3,7
  2706     0230  0800               	movf	0,w
  2707     0231  00FF               	movwf	btemp+1
  2708     0232  3002               	movlw	2
  2709     0233  0780               	addwf	0,f
  2710     0234  087F               	movf	btemp+1,w
  2711     0235  0084               	movwf	4
  2712     0236  1783               	bsf	3,7	;select IRP bank2
  2713     0237  0800               	movf	0,w
  2714     0238  00A6               	movwf	vfpfcnvrt@convarg^(0+384)
  2715     0239  01A7               	clrf	(vfpfcnvrt@convarg+1)^(0+384)
  2716     023A  1BA6               	btfsc	vfpfcnvrt@convarg^(0+384),7
  2717     023B  03A7               	decf	(vfpfcnvrt@convarg+1)^(0+384),f
  2718                           
  2719                           ;C:\Program Files\Microchip\xc8\v2.50\pic\sources\c99\common\doprnt.c: 1375:      break;
  2720     023C  2A74               	goto	l4285
  2721     023D                     l4277:
  2722                           
  2723                           ;C:\Program Files\Microchip\xc8\v2.50\pic\sources\c99\common\doprnt.c: 1389:      convar
      +                          g.sint = (vfpf_sint_t)(*(ptrdiff_t *)__va_arg(*(ptrdiff_t **)ap, (ptrdiff_t)0));
  2724     023D  081E               	movf	vfpfcnvrt@ap^(0+384),w
  2725     023E  0084               	movwf	4
  2726     023F  1783               	bsf	3,7
  2727     0240  1C1F               	btfss	(vfpfcnvrt@ap+1)^(0+384),0
  2728     0241  1383               	bcf	3,7
  2729     0242  0800               	movf	0,w
  2730     0243  00FF               	movwf	btemp+1
  2731     0244  3002               	movlw	2
  2732     0245  0780               	addwf	0,f
  2733     0246  087F               	movf	btemp+1,w
  2734     0247  0084               	movwf	4
  2735     0248  1783               	bsf	3,7	;select IRP bank2
  2736     0249  0800               	movf	0,w
  2737     024A  00A6               	movwf	vfpfcnvrt@convarg^(0+384)
  2738     024B  0A84               	incf	4,f
  2739     024C  0800               	movf	0,w
  2740     024D  00A7               	movwf	(vfpfcnvrt@convarg+1)^(0+384)
  2741                           
  2742                           ;C:\Program Files\Microchip\xc8\v2.50\pic\sources\c99\common\doprnt.c: 1390:      break;
  2743     024E  2A74               	goto	l4285
  2744     024F                     l4279:
  2745                           
  2746                           ;C:\Program Files\Microchip\xc8\v2.50\pic\sources\c99\common\doprnt.c: 1399:      convar
      +                          g.sint = (vfpf_sint_t)(*(size_t *)__va_arg(*(size_t **)ap, (size_t)0));
  2747     024F  081E               	movf	vfpfcnvrt@ap^(0+384),w
  2748     0250  0084               	movwf	4
  2749     0251  1783               	bsf	3,7
  2750     0252  1C1F               	btfss	(vfpfcnvrt@ap+1)^(0+384),0
  2751     0253  1383               	bcf	3,7
  2752     0254  0800               	movf	0,w
  2753     0255  00FF               	movwf	btemp+1
  2754     0256  3002               	movlw	2
  2755     0257  0780               	addwf	0,f
  2756     0258  087F               	movf	btemp+1,w
  2757     0259  0084               	movwf	4
  2758     025A  1783               	bsf	3,7	;select IRP bank2
  2759     025B  0800               	movf	0,w
  2760     025C  00A6               	movwf	vfpfcnvrt@convarg^(0+384)
  2761     025D  0A84               	incf	4,f
  2762     025E  0800               	movf	0,w
  2763     025F  00A7               	movwf	(vfpfcnvrt@convarg+1)^(0+384)
  2764                           
  2765                           ;C:\Program Files\Microchip\xc8\v2.50\pic\sources\c99\common\doprnt.c: 1400:      break;
  2766     0260  2A74               	goto	l4285
  2767     0261                     l4283:
  2768     0261  1683               	bsf	3,5	;RP0=1, select bank3
  2769     0262  1703               	bsf	3,6	;RP1=1, select bank3
  2770     0263  0825               	movf	vfpfcnvrt@c^(0+384),w
  2771                           
  2772                           ; Switch size 1, requested type "simple"
  2773                           ; Number of cases is 5, Range of values is 72 to 122
  2774                           ; switch strategies available:
  2775                           ; Name         Instructions Cycles
  2776                           ; simple_byte           16     9 (average)
  2777                           ; direct_byte          164    11 (fixed)
  2778                           ; jumptable            263     9 (fixed)
  2779                           ;	Chosen strategy is simple_byte
  2780     0264  3A48               	xorlw	72	; case 72
  2781     0265  1903               	skipnz
  2782     0266  2A2B               	goto	l4275
  2783     0267  3A20               	xorlw	32	; case 104
  2784     0268  1903               	skipnz
  2785     0269  2A19               	goto	l4273
  2786     026A  3A01               	xorlw	1	; case 105
  2787     026B  1903               	skipnz
  2788     026C  2A07               	goto	l4271
  2789     026D  3A1D               	xorlw	29	; case 116
  2790     026E  1903               	skipnz
  2791     026F  2A3D               	goto	l4277
  2792     0270  3A0E               	xorlw	14	; case 122
  2793     0271  1903               	skipnz
  2794     0272  2A4F               	goto	l4279
  2795     0273  2A74               	goto	l4285
  2796     0274                     l4285:
  2797                           
  2798                           ;C:\Program Files\Microchip\xc8\v2.50\pic\sources\c99\common\doprnt.c: 1406:    *fmt = c
      +                          p+1;
  2799     0274  3001               	movlw	1
  2800     0275  00A0               	movwf	??_vfpfcnvrt^(0+384)
  2801     0276  0820               	movf	??_vfpfcnvrt^(0+384),w
  2802     0277  072A               	addwf	vfpfcnvrt@cp^(0+384),w
  2803     0278  00A2               	movwf	(??_vfpfcnvrt+2)^(0+384)
  2804     0279  082B               	movf	(vfpfcnvrt@cp+1)^(0+384),w
  2805     027A  00A1               	movwf	(??_vfpfcnvrt+1)^(0+384)
  2806     027B  1803               	skipnc
  2807     027C  0AA1               	incf	(??_vfpfcnvrt+1)^(0+384),f
  2808     027D  1BA0               	btfsc	??_vfpfcnvrt^(0+384),7
  2809     027E  03A1               	decf	(??_vfpfcnvrt+1)^(0+384),f
  2810     027F  0821               	movf	(??_vfpfcnvrt+1)^(0+384),w
  2811     0280  00A3               	movwf	((??_vfpfcnvrt+2)^(0+384)+1)
  2812     0281  081D               	movf	vfpfcnvrt@fmt^(0+384),w
  2813     0282  0084               	movwf	4
  2814     0283  0822               	movf	(??_vfpfcnvrt+2)^(0+384),w
  2815     0284  1383               	bcf	3,7	;select IRP bank0
  2816     0285  0080               	movwf	0
  2817     0286  0823               	movf	((??_vfpfcnvrt+2)^(0+384)+1),w
  2818     0287  0A84               	incf	4,f
  2819     0288  0080               	movwf	0
  2820     0289  0384               	decf	4,f
  2821     028A                     l4287:
  2822                           
  2823                           ;C:\Program Files\Microchip\xc8\v2.50\pic\sources\c99\common\doprnt.c: 1432:    return (
      +                          int) dtoa(fp, convarg.sint);
  2824     028A  081B               	movf	vfpfcnvrt@fp^(0+384),w
  2825     028B  1683               	bsf	3,5	;RP0=1, select bank1
  2826     028C  1303               	bcf	3,6	;RP1=0, select bank1
  2827     028D  00CF               	movwf	dtoa@fp^(0+128)
  2828     028E  1683               	bsf	3,5	;RP0=1, select bank3
  2829     028F  1703               	bsf	3,6	;RP1=1, select bank3
  2830     0290  081C               	movf	(vfpfcnvrt@fp+1)^(0+384),w
  2831     0291  1683               	bsf	3,5	;RP0=1, select bank1
  2832     0292  1303               	bcf	3,6	;RP1=0, select bank1
  2833     0293  00D0               	movwf	(dtoa@fp+1)^(0+128)
  2834     0294  1683               	bsf	3,5	;RP0=1, select bank3
  2835     0295  1703               	bsf	3,6	;RP1=1, select bank3
  2836     0296  0827               	movf	(vfpfcnvrt@convarg+1)^(0+384),w
  2837     0297  1683               	bsf	3,5	;RP0=1, select bank1
  2838     0298  1303               	bcf	3,6	;RP1=0, select bank1
  2839     0299  00D2               	movwf	(dtoa@d+1)^(0+128)
  2840     029A  1683               	bsf	3,5	;RP0=1, select bank3
  2841     029B  1703               	bsf	3,6	;RP1=1, select bank3
  2842     029C  0826               	movf	vfpfcnvrt@convarg^(0+384),w
  2843     029D  1683               	bsf	3,5	;RP0=1, select bank1
  2844     029E  1303               	bcf	3,6	;RP1=0, select bank1
  2845     029F  00D1               	movwf	dtoa@d^(0+128)
  2846     02A0  120A  158A  20AE  120A  118A  	fcall	_dtoa
  2847     02A5  1683               	bsf	3,5	;RP0=1, select bank1
  2848     02A6  1303               	bcf	3,6	;RP1=0, select bank1
  2849     02A7  0850               	movf	(?_dtoa+1)^(0+128),w
  2850     02A8  1683               	bsf	3,5	;RP0=1, select bank3
  2851     02A9  1703               	bsf	3,6	;RP1=1, select bank3
  2852     02AA  009C               	movwf	(?_vfpfcnvrt+1)^(0+384)
  2853     02AB  1683               	bsf	3,5	;RP0=1, select bank1
  2854     02AC  1303               	bcf	3,6	;RP1=0, select bank1
  2855     02AD  084F               	movf	?_dtoa^(0+128),w
  2856     02AE  1683               	bsf	3,5	;RP0=1, select bank3
  2857     02AF  1703               	bsf	3,6	;RP1=1, select bank3
  2858     02B0  009B               	movwf	?_vfpfcnvrt^(0+384)
  2859     02B1  2D9F               	goto	l778
  2860     02B2                     l4291:
  2861     02B2  1683               	bsf	3,5	;RP0=1, select bank3
  2862     02B3  1703               	bsf	3,6	;RP1=1, select bank3
  2863     02B4  082B               	movf	(vfpfcnvrt@cp+1)^(0+384),w
  2864     02B5  1283               	bcf	3,5	;RP0=0, select bank0
  2865     02B6  1303               	bcf	3,6	;RP1=0, select bank0
  2866     02B7  00FF               	movwf	btemp+1
  2867     02B8  1683               	bsf	3,5	;RP0=1, select bank3
  2868     02B9  1703               	bsf	3,6	;RP1=1, select bank3
  2869     02BA  082A               	movf	vfpfcnvrt@cp^(0+384),w
  2870     02BB  0084               	movwf	4
  2871     02BC  1283               	bcf	3,5	;RP0=0, select bank0
  2872     02BD  1303               	bcf	3,6	;RP1=0, select bank0
  2873     02BE  160A  158A  2000  120A  118A  	fcall	stringtab
  2874     02C3  3A78               	xorlw	120
  2875     02C4  1903               	skipnz
  2876     02C5  2AC7               	goto	u6041
  2877     02C6  2AC8               	goto	u6040
  2878     02C7                     u6041:
  2879     02C7  2B67               	goto	l4311
  2880     02C8                     u6040:
  2881     02C8                     l4293:
  2882     02C8  1683               	bsf	3,5	;RP0=1, select bank3
  2883     02C9  1703               	bsf	3,6	;RP1=1, select bank3
  2884     02CA  082B               	movf	(vfpfcnvrt@cp+1)^(0+384),w
  2885     02CB  1283               	bcf	3,5	;RP0=0, select bank0
  2886     02CC  1303               	bcf	3,6	;RP1=0, select bank0
  2887     02CD  00FF               	movwf	btemp+1
  2888     02CE  1683               	bsf	3,5	;RP0=1, select bank3
  2889     02CF  1703               	bsf	3,6	;RP1=1, select bank3
  2890     02D0  082A               	movf	vfpfcnvrt@cp^(0+384),w
  2891     02D1  0084               	movwf	4
  2892     02D2  1283               	bcf	3,5	;RP0=0, select bank0
  2893     02D3  1303               	bcf	3,6	;RP1=0, select bank0
  2894     02D4  160A  158A  2000  120A  118A  	fcall	stringtab
  2895     02D9  3A58               	xorlw	88
  2896     02DA  1903               	skipnz
  2897     02DB  2ADD               	goto	u6051
  2898     02DC  2ADE               	goto	u6050
  2899     02DD                     u6051:
  2900     02DD  2B67               	goto	l4311
  2901     02DE                     u6050:
  2902     02DE                     l4295:
  2903     02DE  1683               	bsf	3,5	;RP0=1, select bank3
  2904     02DF  1703               	bsf	3,6	;RP1=1, select bank3
  2905     02E0  082B               	movf	(vfpfcnvrt@cp+1)^(0+384),w
  2906     02E1  1283               	bcf	3,5	;RP0=0, select bank0
  2907     02E2  1303               	bcf	3,6	;RP1=0, select bank0
  2908     02E3  00FF               	movwf	btemp+1
  2909     02E4  1683               	bsf	3,5	;RP0=1, select bank3
  2910     02E5  1703               	bsf	3,6	;RP1=1, select bank3
  2911     02E6  082A               	movf	vfpfcnvrt@cp^(0+384),w
  2912     02E7  0084               	movwf	4
  2913     02E8  1283               	bcf	3,5	;RP0=0, select bank0
  2914     02E9  1303               	bcf	3,6	;RP1=0, select bank0
  2915     02EA  160A  158A  2000  120A  118A  	fcall	stringtab
  2916     02EF  3A6F               	xorlw	111
  2917     02F0  1903               	skipnz
  2918     02F1  2AF3               	goto	u6061
  2919     02F2  2AF4               	goto	u6060
  2920     02F3                     u6061:
  2921     02F3  2B67               	goto	l4311
  2922     02F4                     u6060:
  2923     02F4                     l4297:
  2924     02F4  1683               	bsf	3,5	;RP0=1, select bank3
  2925     02F5  1703               	bsf	3,6	;RP1=1, select bank3
  2926     02F6  082B               	movf	(vfpfcnvrt@cp+1)^(0+384),w
  2927     02F7  1283               	bcf	3,5	;RP0=0, select bank0
  2928     02F8  1303               	bcf	3,6	;RP1=0, select bank0
  2929     02F9  00FF               	movwf	btemp+1
  2930     02FA  1683               	bsf	3,5	;RP0=1, select bank3
  2931     02FB  1703               	bsf	3,6	;RP1=1, select bank3
  2932     02FC  082A               	movf	vfpfcnvrt@cp^(0+384),w
  2933     02FD  0084               	movwf	4
  2934     02FE  1283               	bcf	3,5	;RP0=0, select bank0
  2935     02FF  1303               	bcf	3,6	;RP1=0, select bank0
  2936     0300  160A  158A  2000  120A  118A  	fcall	stringtab
  2937     0305  3A75               	xorlw	117
  2938     0306  1D03               	skipz
  2939     0307  2B09               	goto	u6071
  2940     0308  2B0A               	goto	u6070
  2941     0309                     u6071:
  2942     0309  2C3F               	goto	l4331
  2943     030A                     u6070:
  2944     030A  2B67               	goto	l4311
  2945     030B                     l4299:
  2946                           
  2947                           ;C:\Program Files\Microchip\xc8\v2.50\pic\sources\c99\common\doprnt.c: 1456:      convar
      +                          g.uint = (vfpf_uint_t)(unsigned int)(*(unsigned int *)__va_arg(*(unsigned int **)ap, (un
      +                          signed int)0));
  2948     030B  081E               	movf	vfpfcnvrt@ap^(0+384),w
  2949     030C  0084               	movwf	4
  2950     030D  1783               	bsf	3,7
  2951     030E  1C1F               	btfss	(vfpfcnvrt@ap+1)^(0+384),0
  2952     030F  1383               	bcf	3,7
  2953     0310  0800               	movf	0,w
  2954     0311  00FF               	movwf	btemp+1
  2955     0312  3002               	movlw	2
  2956     0313  0780               	addwf	0,f
  2957     0314  087F               	movf	btemp+1,w
  2958     0315  0084               	movwf	4
  2959     0316  1783               	bsf	3,7	;select IRP bank2
  2960     0317  0800               	movf	0,w
  2961     0318  00A6               	movwf	vfpfcnvrt@convarg^(0+384)
  2962     0319  0A84               	incf	4,f
  2963     031A  0800               	movf	0,w
  2964     031B  00A7               	movwf	(vfpfcnvrt@convarg+1)^(0+384)
  2965                           
  2966                           ;C:\Program Files\Microchip\xc8\v2.50\pic\sources\c99\common\doprnt.c: 1457:      break;
  2967     031C  2B7A               	goto	l4313
  2968     031D                     l4301:
  2969                           
  2970                           ;C:\Program Files\Microchip\xc8\v2.50\pic\sources\c99\common\doprnt.c: 1460:      convar
      +                          g.uint = (vfpf_uint_t)(unsigned short)(*(unsigned int *)__va_arg(*(unsigned int **)ap, (
      +                          unsigned int)0));
  2971     031D  081E               	movf	vfpfcnvrt@ap^(0+384),w
  2972     031E  0084               	movwf	4
  2973     031F  1783               	bsf	3,7
  2974     0320  1C1F               	btfss	(vfpfcnvrt@ap+1)^(0+384),0
  2975     0321  1383               	bcf	3,7
  2976     0322  0800               	movf	0,w
  2977     0323  00FF               	movwf	btemp+1
  2978     0324  3002               	movlw	2
  2979     0325  0780               	addwf	0,f
  2980     0326  087F               	movf	btemp+1,w
  2981     0327  0084               	movwf	4
  2982     0328  1783               	bsf	3,7	;select IRP bank2
  2983     0329  0800               	movf	0,w
  2984     032A  00A6               	movwf	vfpfcnvrt@convarg^(0+384)
  2985     032B  0A84               	incf	4,f
  2986     032C  0800               	movf	0,w
  2987     032D  00A7               	movwf	(vfpfcnvrt@convarg+1)^(0+384)
  2988                           
  2989                           ;C:\Program Files\Microchip\xc8\v2.50\pic\sources\c99\common\doprnt.c: 1461:      break;
  2990     032E  2B7A               	goto	l4313
  2991     032F                     l4303:
  2992                           
  2993                           ;C:\Program Files\Microchip\xc8\v2.50\pic\sources\c99\common\doprnt.c: 1465:      convar
      +                          g.uint = (vfpf_uint_t)(unsigned char)(*(unsigned int *)__va_arg(*(unsigned int **)ap, (u
      +                          nsigned int)0));
  2994     032F  081E               	movf	vfpfcnvrt@ap^(0+384),w
  2995     0330  0084               	movwf	4
  2996     0331  1783               	bsf	3,7
  2997     0332  1C1F               	btfss	(vfpfcnvrt@ap+1)^(0+384),0
  2998     0333  1383               	bcf	3,7
  2999     0334  0800               	movf	0,w
  3000     0335  00FF               	movwf	btemp+1
  3001     0336  3002               	movlw	2
  3002     0337  0780               	addwf	0,f
  3003     0338  087F               	movf	btemp+1,w
  3004     0339  0084               	movwf	4
  3005     033A  1783               	bsf	3,7	;select IRP bank2
  3006     033B  0800               	movf	0,w
  3007     033C  00A0               	movwf	??_vfpfcnvrt^(0+384)
  3008     033D  01A1               	clrf	(??_vfpfcnvrt^(0+384)+1)
  3009     033E  0820               	movf	??_vfpfcnvrt^(0+384),w
  3010     033F  00A6               	movwf	vfpfcnvrt@convarg^(0+384)
  3011     0340  0821               	movf	(??_vfpfcnvrt+1)^(0+384),w
  3012     0341  00A7               	movwf	(vfpfcnvrt@convarg+1)^(0+384)
  3013                           
  3014                           ;C:\Program Files\Microchip\xc8\v2.50\pic\sources\c99\common\doprnt.c: 1466:      break;
  3015     0342  2B7A               	goto	l4313
  3016     0343                     l4305:
  3017                           
  3018                           ;C:\Program Files\Microchip\xc8\v2.50\pic\sources\c99\common\doprnt.c: 1480:      convar
      +                          g.uint = (vfpf_uint_t)(*(ptrdiff_t *)__va_arg(*(ptrdiff_t **)ap, (ptrdiff_t)0));
  3019     0343  081E               	movf	vfpfcnvrt@ap^(0+384),w
  3020     0344  0084               	movwf	4
  3021     0345  1783               	bsf	3,7
  3022     0346  1C1F               	btfss	(vfpfcnvrt@ap+1)^(0+384),0
  3023     0347  1383               	bcf	3,7
  3024     0348  0800               	movf	0,w
  3025     0349  00FF               	movwf	btemp+1
  3026     034A  3002               	movlw	2
  3027     034B  0780               	addwf	0,f
  3028     034C  087F               	movf	btemp+1,w
  3029     034D  0084               	movwf	4
  3030     034E  1783               	bsf	3,7	;select IRP bank2
  3031     034F  0800               	movf	0,w
  3032     0350  00A6               	movwf	vfpfcnvrt@convarg^(0+384)
  3033     0351  0A84               	incf	4,f
  3034     0352  0800               	movf	0,w
  3035     0353  00A7               	movwf	(vfpfcnvrt@convarg+1)^(0+384)
  3036                           
  3037                           ;C:\Program Files\Microchip\xc8\v2.50\pic\sources\c99\common\doprnt.c: 1481:      break;
  3038     0354  2B7A               	goto	l4313
  3039     0355                     l4307:
  3040                           
  3041                           ;C:\Program Files\Microchip\xc8\v2.50\pic\sources\c99\common\doprnt.c: 1490:      convar
      +                          g.uint = (vfpf_uint_t)(*(size_t *)__va_arg(*(size_t **)ap, (size_t)0));
  3042     0355  081E               	movf	vfpfcnvrt@ap^(0+384),w
  3043     0356  0084               	movwf	4
  3044     0357  1783               	bsf	3,7
  3045     0358  1C1F               	btfss	(vfpfcnvrt@ap+1)^(0+384),0
  3046     0359  1383               	bcf	3,7
  3047     035A  0800               	movf	0,w
  3048     035B  00FF               	movwf	btemp+1
  3049     035C  3002               	movlw	2
  3050     035D  0780               	addwf	0,f
  3051     035E  087F               	movf	btemp+1,w
  3052     035F  0084               	movwf	4
  3053     0360  1783               	bsf	3,7	;select IRP bank2
  3054     0361  0800               	movf	0,w
  3055     0362  00A6               	movwf	vfpfcnvrt@convarg^(0+384)
  3056     0363  0A84               	incf	4,f
  3057     0364  0800               	movf	0,w
  3058     0365  00A7               	movwf	(vfpfcnvrt@convarg+1)^(0+384)
  3059                           
  3060                           ;C:\Program Files\Microchip\xc8\v2.50\pic\sources\c99\common\doprnt.c: 1491:      break;
  3061     0366  2B7A               	goto	l4313
  3062     0367                     l4311:
  3063     0367  1683               	bsf	3,5	;RP0=1, select bank3
  3064     0368  1703               	bsf	3,6	;RP1=1, select bank3
  3065     0369  0825               	movf	vfpfcnvrt@c^(0+384),w
  3066                           
  3067                           ; Switch size 1, requested type "simple"
  3068                           ; Number of cases is 5, Range of values is 72 to 122
  3069                           ; switch strategies available:
  3070                           ; Name         Instructions Cycles
  3071                           ; simple_byte           16     9 (average)
  3072                           ; direct_byte          164    11 (fixed)
  3073                           ; jumptable            263     9 (fixed)
  3074                           ;	Chosen strategy is simple_byte
  3075     036A  3A48               	xorlw	72	; case 72
  3076     036B  1903               	skipnz
  3077     036C  2B2F               	goto	l4303
  3078     036D  3A20               	xorlw	32	; case 104
  3079     036E  1903               	skipnz
  3080     036F  2B1D               	goto	l4301
  3081     0370  3A01               	xorlw	1	; case 105
  3082     0371  1903               	skipnz
  3083     0372  2B0B               	goto	l4299
  3084     0373  3A1D               	xorlw	29	; case 116
  3085     0374  1903               	skipnz
  3086     0375  2B43               	goto	l4305
  3087     0376  3A0E               	xorlw	14	; case 122
  3088     0377  1903               	skipnz
  3089     0378  2B55               	goto	l4307
  3090     0379  2B7A               	goto	l4313
  3091     037A                     l4313:
  3092                           
  3093                           ;C:\Program Files\Microchip\xc8\v2.50\pic\sources\c99\common\doprnt.c: 1497:    *fmt = c
      +                          p+1;
  3094     037A  3001               	movlw	1
  3095     037B  00A0               	movwf	??_vfpfcnvrt^(0+384)
  3096     037C  0820               	movf	??_vfpfcnvrt^(0+384),w
  3097     037D  072A               	addwf	vfpfcnvrt@cp^(0+384),w
  3098     037E  00A2               	movwf	(??_vfpfcnvrt+2)^(0+384)
  3099     037F  082B               	movf	(vfpfcnvrt@cp+1)^(0+384),w
  3100     0380  00A1               	movwf	(??_vfpfcnvrt+1)^(0+384)
  3101     0381  1803               	skipnc
  3102     0382  0AA1               	incf	(??_vfpfcnvrt+1)^(0+384),f
  3103     0383  1BA0               	btfsc	??_vfpfcnvrt^(0+384),7
  3104     0384  03A1               	decf	(??_vfpfcnvrt+1)^(0+384),f
  3105     0385  0821               	movf	(??_vfpfcnvrt+1)^(0+384),w
  3106     0386  00A3               	movwf	((??_vfpfcnvrt+2)^(0+384)+1)
  3107     0387  081D               	movf	vfpfcnvrt@fmt^(0+384),w
  3108     0388  0084               	movwf	4
  3109     0389  0822               	movf	(??_vfpfcnvrt+2)^(0+384),w
  3110     038A  1383               	bcf	3,7	;select IRP bank0
  3111     038B  0080               	movwf	0
  3112     038C  0823               	movf	((??_vfpfcnvrt+2)^(0+384)+1),w
  3113     038D  0A84               	incf	4,f
  3114     038E  0080               	movwf	0
  3115     038F  0384               	decf	4,f
  3116                           
  3117                           ;C:\Program Files\Microchip\xc8\v2.50\pic\sources\c99\common\doprnt.c: 1498:    switch (
      +                          *cp) {
  3118     0390  2C23               	goto	l4329
  3119     0391                     l4315:
  3120                           
  3121                           ;C:\Program Files\Microchip\xc8\v2.50\pic\sources\c99\common\doprnt.c: 1519:      return
      +                           (int) otoa(fp, convarg.uint);
  3122     0391  1683               	bsf	3,5	;RP0=1, select bank3
  3123     0392  1703               	bsf	3,6	;RP1=1, select bank3
  3124     0393  081B               	movf	vfpfcnvrt@fp^(0+384),w
  3125     0394  1683               	bsf	3,5	;RP0=1, select bank1
  3126     0395  1303               	bcf	3,6	;RP1=0, select bank1
  3127     0396  00CF               	movwf	otoa@fp^(0+128)
  3128     0397  1683               	bsf	3,5	;RP0=1, select bank3
  3129     0398  1703               	bsf	3,6	;RP1=1, select bank3
  3130     0399  081C               	movf	(vfpfcnvrt@fp+1)^(0+384),w
  3131     039A  1683               	bsf	3,5	;RP0=1, select bank1
  3132     039B  1303               	bcf	3,6	;RP1=0, select bank1
  3133     039C  00D0               	movwf	(otoa@fp+1)^(0+128)
  3134     039D  1683               	bsf	3,5	;RP0=1, select bank3
  3135     039E  1703               	bsf	3,6	;RP1=1, select bank3
  3136     039F  0827               	movf	(vfpfcnvrt@convarg+1)^(0+384),w
  3137     03A0  1683               	bsf	3,5	;RP0=1, select bank1
  3138     03A1  1303               	bcf	3,6	;RP1=0, select bank1
  3139     03A2  00D2               	movwf	(otoa@d+1)^(0+128)
  3140     03A3  1683               	bsf	3,5	;RP0=1, select bank3
  3141     03A4  1703               	bsf	3,6	;RP1=1, select bank3
  3142     03A5  0826               	movf	vfpfcnvrt@convarg^(0+384),w
  3143     03A6  1683               	bsf	3,5	;RP0=1, select bank1
  3144     03A7  1303               	bcf	3,6	;RP1=0, select bank1
  3145     03A8  00D1               	movwf	otoa@d^(0+128)
  3146     03A9  120A  118A  2705  120A  118A  	fcall	_otoa
  3147     03AE  1683               	bsf	3,5	;RP0=1, select bank1
  3148     03AF  1303               	bcf	3,6	;RP1=0, select bank1
  3149     03B0  0850               	movf	(?_otoa+1)^(0+128),w
  3150     03B1  1683               	bsf	3,5	;RP0=1, select bank3
  3151     03B2  1703               	bsf	3,6	;RP1=1, select bank3
  3152     03B3  009C               	movwf	(?_vfpfcnvrt+1)^(0+384)
  3153     03B4  1683               	bsf	3,5	;RP0=1, select bank1
  3154     03B5  1303               	bcf	3,6	;RP1=0, select bank1
  3155     03B6  084F               	movf	?_otoa^(0+128),w
  3156     03B7  1683               	bsf	3,5	;RP0=1, select bank3
  3157     03B8  1703               	bsf	3,6	;RP1=1, select bank3
  3158     03B9  009B               	movwf	?_vfpfcnvrt^(0+384)
  3159     03BA  2D9F               	goto	l778
  3160     03BB                     l4319:
  3161                           
  3162                           ;C:\Program Files\Microchip\xc8\v2.50\pic\sources\c99\common\doprnt.c: 1542:      return
      +                           (int) utoa(fp, convarg.uint);
  3163     03BB  1683               	bsf	3,5	;RP0=1, select bank3
  3164     03BC  1703               	bsf	3,6	;RP1=1, select bank3
  3165     03BD  081B               	movf	vfpfcnvrt@fp^(0+384),w
  3166     03BE  1683               	bsf	3,5	;RP0=1, select bank1
  3167     03BF  1303               	bcf	3,6	;RP1=0, select bank1
  3168     03C0  00CF               	movwf	utoa@fp^(0+128)
  3169     03C1  1683               	bsf	3,5	;RP0=1, select bank3
  3170     03C2  1703               	bsf	3,6	;RP1=1, select bank3
  3171     03C3  081C               	movf	(vfpfcnvrt@fp+1)^(0+384),w
  3172     03C4  1683               	bsf	3,5	;RP0=1, select bank1
  3173     03C5  1303               	bcf	3,6	;RP1=0, select bank1
  3174     03C6  00D0               	movwf	(utoa@fp+1)^(0+128)
  3175     03C7  1683               	bsf	3,5	;RP0=1, select bank3
  3176     03C8  1703               	bsf	3,6	;RP1=1, select bank3
  3177     03C9  0827               	movf	(vfpfcnvrt@convarg+1)^(0+384),w
  3178     03CA  1683               	bsf	3,5	;RP0=1, select bank1
  3179     03CB  1303               	bcf	3,6	;RP1=0, select bank1
  3180     03CC  00D2               	movwf	(utoa@d+1)^(0+128)
  3181     03CD  1683               	bsf	3,5	;RP0=1, select bank3
  3182     03CE  1703               	bsf	3,6	;RP1=1, select bank3
  3183     03CF  0826               	movf	vfpfcnvrt@convarg^(0+384),w
  3184     03D0  1683               	bsf	3,5	;RP0=1, select bank1
  3185     03D1  1303               	bcf	3,6	;RP1=0, select bank1
  3186     03D2  00D1               	movwf	utoa@d^(0+128)
  3187     03D3  160A  118A  2433  120A  118A  	fcall	_utoa
  3188     03D8  1683               	bsf	3,5	;RP0=1, select bank1
  3189     03D9  1303               	bcf	3,6	;RP1=0, select bank1
  3190     03DA  0850               	movf	(?_utoa+1)^(0+128),w
  3191     03DB  1683               	bsf	3,5	;RP0=1, select bank3
  3192     03DC  1703               	bsf	3,6	;RP1=1, select bank3
  3193     03DD  009C               	movwf	(?_vfpfcnvrt+1)^(0+384)
  3194     03DE  1683               	bsf	3,5	;RP0=1, select bank1
  3195     03DF  1303               	bcf	3,6	;RP1=0, select bank1
  3196     03E0  084F               	movf	?_utoa^(0+128),w
  3197     03E1  1683               	bsf	3,5	;RP0=1, select bank3
  3198     03E2  1703               	bsf	3,6	;RP1=1, select bank3
  3199     03E3  009B               	movwf	?_vfpfcnvrt^(0+384)
  3200     03E4  2D9F               	goto	l778
  3201     03E5                     l4323:
  3202                           
  3203                           ;C:\Program Files\Microchip\xc8\v2.50\pic\sources\c99\common\doprnt.c: 1586:      return
      +                           (int) xtoa(fp,convarg.uint,*cp);
  3204     03E5  1683               	bsf	3,5	;RP0=1, select bank3
  3205     03E6  1703               	bsf	3,6	;RP1=1, select bank3
  3206     03E7  081B               	movf	vfpfcnvrt@fp^(0+384),w
  3207     03E8  1683               	bsf	3,5	;RP0=1, select bank1
  3208     03E9  1303               	bcf	3,6	;RP1=0, select bank1
  3209     03EA  00CF               	movwf	xtoa@fp^(0+128)
  3210     03EB  1683               	bsf	3,5	;RP0=1, select bank3
  3211     03EC  1703               	bsf	3,6	;RP1=1, select bank3
  3212     03ED  081C               	movf	(vfpfcnvrt@fp+1)^(0+384),w
  3213     03EE  1683               	bsf	3,5	;RP0=1, select bank1
  3214     03EF  1303               	bcf	3,6	;RP1=0, select bank1
  3215     03F0  00D0               	movwf	(xtoa@fp+1)^(0+128)
  3216     03F1  1683               	bsf	3,5	;RP0=1, select bank3
  3217     03F2  1703               	bsf	3,6	;RP1=1, select bank3
  3218     03F3  0827               	movf	(vfpfcnvrt@convarg+1)^(0+384),w
  3219     03F4  1683               	bsf	3,5	;RP0=1, select bank1
  3220     03F5  1303               	bcf	3,6	;RP1=0, select bank1
  3221     03F6  00D2               	movwf	(xtoa@d+1)^(0+128)
  3222     03F7  1683               	bsf	3,5	;RP0=1, select bank3
  3223     03F8  1703               	bsf	3,6	;RP1=1, select bank3
  3224     03F9  0826               	movf	vfpfcnvrt@convarg^(0+384),w
  3225     03FA  1683               	bsf	3,5	;RP0=1, select bank1
  3226     03FB  1303               	bcf	3,6	;RP1=0, select bank1
  3227     03FC  00D1               	movwf	xtoa@d^(0+128)
  3228     03FD  1683               	bsf	3,5	;RP0=1, select bank3
  3229     03FE  1703               	bsf	3,6	;RP1=1, select bank3
  3230     03FF  082B               	movf	(vfpfcnvrt@cp+1)^(0+384),w
  3231     0400  1283               	bcf	3,5	;RP0=0, select bank0
  3232     0401  1303               	bcf	3,6	;RP1=0, select bank0
  3233     0402  00FF               	movwf	btemp+1
  3234     0403  1683               	bsf	3,5	;RP0=1, select bank3
  3235     0404  1703               	bsf	3,6	;RP1=1, select bank3
  3236     0405  082A               	movf	vfpfcnvrt@cp^(0+384),w
  3237     0406  0084               	movwf	4
  3238     0407  1283               	bcf	3,5	;RP0=0, select bank0
  3239     0408  1303               	bcf	3,6	;RP1=0, select bank0
  3240     0409  160A  158A  2000  120A  118A  	fcall	stringtab
  3241     040E  1683               	bsf	3,5	;RP0=1, select bank1
  3242     040F  1303               	bcf	3,6	;RP1=0, select bank1
  3243     0410  00D3               	movwf	xtoa@x^(0+128)
  3244     0411  120A  158A  21DF  120A  118A  	fcall	_xtoa
  3245     0416  1683               	bsf	3,5	;RP0=1, select bank1
  3246     0417  1303               	bcf	3,6	;RP1=0, select bank1
  3247     0418  0850               	movf	(?_xtoa+1)^(0+128),w
  3248     0419  1683               	bsf	3,5	;RP0=1, select bank3
  3249     041A  1703               	bsf	3,6	;RP1=1, select bank3
  3250     041B  009C               	movwf	(?_vfpfcnvrt+1)^(0+384)
  3251     041C  1683               	bsf	3,5	;RP0=1, select bank1
  3252     041D  1303               	bcf	3,6	;RP1=0, select bank1
  3253     041E  084F               	movf	?_xtoa^(0+128),w
  3254     041F  1683               	bsf	3,5	;RP0=1, select bank3
  3255     0420  1703               	bsf	3,6	;RP1=1, select bank3
  3256     0421  009B               	movwf	?_vfpfcnvrt^(0+384)
  3257     0422  2D9F               	goto	l778
  3258     0423                     l4329:
  3259     0423  082B               	movf	(vfpfcnvrt@cp+1)^(0+384),w
  3260     0424  1283               	bcf	3,5	;RP0=0, select bank0
  3261     0425  1303               	bcf	3,6	;RP1=0, select bank0
  3262     0426  00FF               	movwf	btemp+1
  3263     0427  1683               	bsf	3,5	;RP0=1, select bank3
  3264     0428  1703               	bsf	3,6	;RP1=1, select bank3
  3265     0429  082A               	movf	vfpfcnvrt@cp^(0+384),w
  3266     042A  0084               	movwf	4
  3267     042B  1283               	bcf	3,5	;RP0=0, select bank0
  3268     042C  1303               	bcf	3,6	;RP1=0, select bank0
  3269     042D  160A  158A  2000  120A  118A  	fcall	stringtab
  3270                           
  3271                           ; Switch size 1, requested type "simple"
  3272                           ; Number of cases is 4, Range of values is 88 to 120
  3273                           ; switch strategies available:
  3274                           ; Name         Instructions Cycles
  3275                           ; simple_byte           13     7 (average)
  3276                           ; direct_byte          110    11 (fixed)
  3277                           ; jumptable            263     9 (fixed)
  3278                           ;	Chosen strategy is simple_byte
  3279     0432  3A58               	xorlw	88	; case 88
  3280     0433  1903               	skipnz
  3281     0434  2BE5               	goto	l4323
  3282     0435  3A37               	xorlw	55	; case 111
  3283     0436  1903               	skipnz
  3284     0437  2B91               	goto	l4315
  3285     0438  3A1A               	xorlw	26	; case 117
  3286     0439  1903               	skipnz
  3287     043A  2BBB               	goto	l4319
  3288     043B  3A0D               	xorlw	13	; case 120
  3289     043C  1903               	skipnz
  3290     043D  2BE5               	goto	l4323
  3291     043E  2C3F               	goto	l4331
  3292     043F                     l4331:
  3293                           
  3294                           ;C:\Program Files\Microchip\xc8\v2.50\pic\sources\c99\common\doprnt.c: 1595:   if (*cp =
      +                          = 'n') {
  3295     043F  1683               	bsf	3,5	;RP0=1, select bank3
  3296     0440  1703               	bsf	3,6	;RP1=1, select bank3
  3297     0441  082B               	movf	(vfpfcnvrt@cp+1)^(0+384),w
  3298     0442  1283               	bcf	3,5	;RP0=0, select bank0
  3299     0443  1303               	bcf	3,6	;RP1=0, select bank0
  3300     0444  00FF               	movwf	btemp+1
  3301     0445  1683               	bsf	3,5	;RP0=1, select bank3
  3302     0446  1703               	bsf	3,6	;RP1=1, select bank3
  3303     0447  082A               	movf	vfpfcnvrt@cp^(0+384),w
  3304     0448  0084               	movwf	4
  3305     0449  1283               	bcf	3,5	;RP0=0, select bank0
  3306     044A  1303               	bcf	3,6	;RP1=0, select bank0
  3307     044B  160A  158A  2000  120A  118A  	fcall	stringtab
  3308     0450  3A6E               	xorlw	110
  3309     0451  1D03               	skipz
  3310     0452  2C54               	goto	u6081
  3311     0453  2C55               	goto	u6080
  3312     0454                     u6081:
  3313     0454  2D0B               	goto	l4355
  3314     0455                     u6080:
  3315     0455  2CDF               	goto	l4347
  3316     0456                     l4335:
  3317                           
  3318                           ;C:\Program Files\Microchip\xc8\v2.50\pic\sources\c99\common\doprnt.c: 1599:      *(*(in
      +                          t* *)__va_arg(*(int* **)ap, (int*)0)) = (int) nout;
  3319     0456  081E               	movf	vfpfcnvrt@ap^(0+384),w
  3320     0457  0084               	movwf	4
  3321     0458  1783               	bsf	3,7
  3322     0459  1C1F               	btfss	(vfpfcnvrt@ap+1)^(0+384),0
  3323     045A  1383               	bcf	3,7
  3324     045B  0800               	movf	0,w
  3325     045C  00FF               	movwf	btemp+1
  3326     045D  3002               	movlw	2
  3327     045E  0780               	addwf	0,f
  3328     045F  087F               	movf	btemp+1,w
  3329     0460  0084               	movwf	4
  3330     0461  1783               	bsf	3,7	;select IRP bank2
  3331     0462  0800               	movf	0,w
  3332     0463  00A0               	movwf	??_vfpfcnvrt^(0+384)
  3333     0464  0A84               	incf	4,f
  3334     0465  0800               	movf	0,w
  3335     0466  00A1               	movwf	(??_vfpfcnvrt^(0+384)+1)
  3336     0467  0820               	movf	??_vfpfcnvrt^(0+384),w
  3337     0468  0084               	movwf	4
  3338     0469  1783               	bsf	3,7
  3339     046A  1C21               	btfss	(??_vfpfcnvrt+1)^(0+384),0
  3340     046B  1383               	bcf	3,7
  3341     046C  0867               	movf	_nout^(0+384),w
  3342     046D  0080               	movwf	0
  3343     046E  0A84               	incf	4,f
  3344     046F  0868               	movf	(_nout+1)^(0+384),w
  3345     0470  0080               	movwf	0
  3346                           
  3347                           ;C:\Program Files\Microchip\xc8\v2.50\pic\sources\c99\common\doprnt.c: 1600:      break;
  3348     0471  2CF2               	goto	l4349
  3349     0472                     l4337:
  3350                           
  3351                           ;C:\Program Files\Microchip\xc8\v2.50\pic\sources\c99\common\doprnt.c: 1603:      *(*(sh
      +                          ort* *)__va_arg(*(short* **)ap, (short*)0)) = (short) nout;
  3352     0472  081E               	movf	vfpfcnvrt@ap^(0+384),w
  3353     0473  0084               	movwf	4
  3354     0474  1783               	bsf	3,7
  3355     0475  1C1F               	btfss	(vfpfcnvrt@ap+1)^(0+384),0
  3356     0476  1383               	bcf	3,7
  3357     0477  0800               	movf	0,w
  3358     0478  00FF               	movwf	btemp+1
  3359     0479  3002               	movlw	2
  3360     047A  0780               	addwf	0,f
  3361     047B  087F               	movf	btemp+1,w
  3362     047C  0084               	movwf	4
  3363     047D  1783               	bsf	3,7	;select IRP bank2
  3364     047E  0800               	movf	0,w
  3365     047F  00A0               	movwf	??_vfpfcnvrt^(0+384)
  3366     0480  0A84               	incf	4,f
  3367     0481  0800               	movf	0,w
  3368     0482  00A1               	movwf	(??_vfpfcnvrt^(0+384)+1)
  3369     0483  0820               	movf	??_vfpfcnvrt^(0+384),w
  3370     0484  0084               	movwf	4
  3371     0485  1783               	bsf	3,7
  3372     0486  1C21               	btfss	(??_vfpfcnvrt+1)^(0+384),0
  3373     0487  1383               	bcf	3,7
  3374     0488  0867               	movf	_nout^(0+384),w
  3375     0489  0080               	movwf	0
  3376     048A  0A84               	incf	4,f
  3377     048B  0868               	movf	(_nout+1)^(0+384),w
  3378     048C  0080               	movwf	0
  3379                           
  3380                           ;C:\Program Files\Microchip\xc8\v2.50\pic\sources\c99\common\doprnt.c: 1604:      break;
  3381     048D  2CF2               	goto	l4349
  3382     048E                     l4339:
  3383                           
  3384                           ;C:\Program Files\Microchip\xc8\v2.50\pic\sources\c99\common\doprnt.c: 1608:      *(*(si
      +                          gned char* *)__va_arg(*(signed char* **)ap, (signed char*)0)) = (signed char) nout;
  3385     048E  081E               	movf	vfpfcnvrt@ap^(0+384),w
  3386     048F  0084               	movwf	4
  3387     0490  1783               	bsf	3,7
  3388     0491  1C1F               	btfss	(vfpfcnvrt@ap+1)^(0+384),0
  3389     0492  1383               	bcf	3,7
  3390     0493  0800               	movf	0,w
  3391     0494  00FF               	movwf	btemp+1
  3392     0495  3002               	movlw	2
  3393     0496  0780               	addwf	0,f
  3394     0497  087F               	movf	btemp+1,w
  3395     0498  0084               	movwf	4
  3396     0499  1783               	bsf	3,7	;select IRP bank2
  3397     049A  0800               	movf	0,w
  3398     049B  00A0               	movwf	??_vfpfcnvrt^(0+384)
  3399     049C  0A84               	incf	4,f
  3400     049D  0800               	movf	0,w
  3401     049E  00A1               	movwf	(??_vfpfcnvrt^(0+384)+1)
  3402     049F  0820               	movf	??_vfpfcnvrt^(0+384),w
  3403     04A0  0084               	movwf	4
  3404     04A1  1783               	bsf	3,7
  3405     04A2  1C21               	btfss	(??_vfpfcnvrt+1)^(0+384),0
  3406     04A3  1383               	bcf	3,7
  3407     04A4  0867               	movf	_nout^(0+384),w
  3408     04A5  0080               	movwf	0
  3409                           
  3410                           ;C:\Program Files\Microchip\xc8\v2.50\pic\sources\c99\common\doprnt.c: 1609:      break;
  3411     04A6  2CF2               	goto	l4349
  3412     04A7                     l4341:
  3413                           
  3414                           ;C:\Program Files\Microchip\xc8\v2.50\pic\sources\c99\common\doprnt.c: 1623:      *(*(pt
      +                          rdiff_t* *)__va_arg(*(ptrdiff_t* **)ap, (ptrdiff_t*)0)) = (ptrdiff_t) nout;
  3415     04A7  081E               	movf	vfpfcnvrt@ap^(0+384),w
  3416     04A8  0084               	movwf	4
  3417     04A9  1783               	bsf	3,7
  3418     04AA  1C1F               	btfss	(vfpfcnvrt@ap+1)^(0+384),0
  3419     04AB  1383               	bcf	3,7
  3420     04AC  0800               	movf	0,w
  3421     04AD  00FF               	movwf	btemp+1
  3422     04AE  3002               	movlw	2
  3423     04AF  0780               	addwf	0,f
  3424     04B0  087F               	movf	btemp+1,w
  3425     04B1  0084               	movwf	4
  3426     04B2  1783               	bsf	3,7	;select IRP bank2
  3427     04B3  0800               	movf	0,w
  3428     04B4  00A0               	movwf	??_vfpfcnvrt^(0+384)
  3429     04B5  0A84               	incf	4,f
  3430     04B6  0800               	movf	0,w
  3431     04B7  00A1               	movwf	(??_vfpfcnvrt^(0+384)+1)
  3432     04B8  0820               	movf	??_vfpfcnvrt^(0+384),w
  3433     04B9  0084               	movwf	4
  3434     04BA  1783               	bsf	3,7
  3435     04BB  1C21               	btfss	(??_vfpfcnvrt+1)^(0+384),0
  3436     04BC  1383               	bcf	3,7
  3437     04BD  0867               	movf	_nout^(0+384),w
  3438     04BE  0080               	movwf	0
  3439     04BF  0A84               	incf	4,f
  3440     04C0  0868               	movf	(_nout+1)^(0+384),w
  3441     04C1  0080               	movwf	0
  3442                           
  3443                           ;C:\Program Files\Microchip\xc8\v2.50\pic\sources\c99\common\doprnt.c: 1624:      break;
  3444     04C2  2CF2               	goto	l4349
  3445     04C3                     l4343:
  3446                           
  3447                           ;C:\Program Files\Microchip\xc8\v2.50\pic\sources\c99\common\doprnt.c: 1633:      *(*(si
      +                          ze_t* *)__va_arg(*(size_t* **)ap, (size_t*)0)) = (size_t) nout;
  3448     04C3  081E               	movf	vfpfcnvrt@ap^(0+384),w
  3449     04C4  0084               	movwf	4
  3450     04C5  1783               	bsf	3,7
  3451     04C6  1C1F               	btfss	(vfpfcnvrt@ap+1)^(0+384),0
  3452     04C7  1383               	bcf	3,7
  3453     04C8  0800               	movf	0,w
  3454     04C9  00FF               	movwf	btemp+1
  3455     04CA  3002               	movlw	2
  3456     04CB  0780               	addwf	0,f
  3457     04CC  087F               	movf	btemp+1,w
  3458     04CD  0084               	movwf	4
  3459     04CE  1783               	bsf	3,7	;select IRP bank2
  3460     04CF  0800               	movf	0,w
  3461     04D0  00A0               	movwf	??_vfpfcnvrt^(0+384)
  3462     04D1  0A84               	incf	4,f
  3463     04D2  0800               	movf	0,w
  3464     04D3  00A1               	movwf	(??_vfpfcnvrt^(0+384)+1)
  3465     04D4  0820               	movf	??_vfpfcnvrt^(0+384),w
  3466     04D5  0084               	movwf	4
  3467     04D6  1783               	bsf	3,7
  3468     04D7  1C21               	btfss	(??_vfpfcnvrt+1)^(0+384),0
  3469     04D8  1383               	bcf	3,7
  3470     04D9  0867               	movf	_nout^(0+384),w
  3471     04DA  0080               	movwf	0
  3472     04DB  0A84               	incf	4,f
  3473     04DC  0868               	movf	(_nout+1)^(0+384),w
  3474     04DD  0080               	movwf	0
  3475                           
  3476                           ;C:\Program Files\Microchip\xc8\v2.50\pic\sources\c99\common\doprnt.c: 1634:      break;
  3477     04DE  2CF2               	goto	l4349
  3478     04DF                     l4347:
  3479     04DF  1683               	bsf	3,5	;RP0=1, select bank3
  3480     04E0  1703               	bsf	3,6	;RP1=1, select bank3
  3481     04E1  0825               	movf	vfpfcnvrt@c^(0+384),w
  3482                           
  3483                           ; Switch size 1, requested type "simple"
  3484                           ; Number of cases is 5, Range of values is 72 to 122
  3485                           ; switch strategies available:
  3486                           ; Name         Instructions Cycles
  3487                           ; simple_byte           16     9 (average)
  3488                           ; direct_byte          164    11 (fixed)
  3489                           ; jumptable            263     9 (fixed)
  3490                           ;	Chosen strategy is simple_byte
  3491     04E2  3A48               	xorlw	72	; case 72
  3492     04E3  1903               	skipnz
  3493     04E4  2C8E               	goto	l4339
  3494     04E5  3A20               	xorlw	32	; case 104
  3495     04E6  1903               	skipnz
  3496     04E7  2C72               	goto	l4337
  3497     04E8  3A01               	xorlw	1	; case 105
  3498     04E9  1903               	skipnz
  3499     04EA  2C56               	goto	l4335
  3500     04EB  3A1D               	xorlw	29	; case 116
  3501     04EC  1903               	skipnz
  3502     04ED  2CA7               	goto	l4341
  3503     04EE  3A0E               	xorlw	14	; case 122
  3504     04EF  1903               	skipnz
  3505     04F0  2CC3               	goto	l4343
  3506     04F1  2CF2               	goto	l4349
  3507     04F2                     l4349:
  3508                           
  3509                           ;C:\Program Files\Microchip\xc8\v2.50\pic\sources\c99\common\doprnt.c: 1640:    *fmt = c
      +                          p+1;
  3510     04F2  3001               	movlw	1
  3511     04F3  00A0               	movwf	??_vfpfcnvrt^(0+384)
  3512     04F4  0820               	movf	??_vfpfcnvrt^(0+384),w
  3513     04F5  072A               	addwf	vfpfcnvrt@cp^(0+384),w
  3514     04F6  00A2               	movwf	(??_vfpfcnvrt+2)^(0+384)
  3515     04F7  082B               	movf	(vfpfcnvrt@cp+1)^(0+384),w
  3516     04F8  00A1               	movwf	(??_vfpfcnvrt+1)^(0+384)
  3517     04F9  1803               	skipnc
  3518     04FA  0AA1               	incf	(??_vfpfcnvrt+1)^(0+384),f
  3519     04FB  1BA0               	btfsc	??_vfpfcnvrt^(0+384),7
  3520     04FC  03A1               	decf	(??_vfpfcnvrt+1)^(0+384),f
  3521     04FD  0821               	movf	(??_vfpfcnvrt+1)^(0+384),w
  3522     04FE  00A3               	movwf	((??_vfpfcnvrt+2)^(0+384)+1)
  3523     04FF  081D               	movf	vfpfcnvrt@fmt^(0+384),w
  3524     0500  0084               	movwf	4
  3525     0501  0822               	movf	(??_vfpfcnvrt+2)^(0+384),w
  3526     0502  1383               	bcf	3,7	;select IRP bank0
  3527     0503  0080               	movwf	0
  3528     0504  0823               	movf	((??_vfpfcnvrt+2)^(0+384)+1),w
  3529     0505  0A84               	incf	4,f
  3530     0506  0080               	movwf	0
  3531     0507  0384               	decf	4,f
  3532     0508                     l4351:
  3533                           
  3534                           ;C:\Program Files\Microchip\xc8\v2.50\pic\sources\c99\common\doprnt.c: 1641:    return (
      +                          int) 0;
  3535     0508  019B               	clrf	?_vfpfcnvrt^(0+384)
  3536     0509  019C               	clrf	(?_vfpfcnvrt+1)^(0+384)
  3537     050A  2D9F               	goto	l778
  3538     050B                     l4355:
  3539                           
  3540                           ;C:\Program Files\Microchip\xc8\v2.50\pic\sources\c99\common\doprnt.c: 1798:         if 
      +                          ((*fmt)[0] == '%') {
  3541     050B  1683               	bsf	3,5	;RP0=1, select bank3
  3542     050C  1703               	bsf	3,6	;RP1=1, select bank3
  3543     050D  081D               	movf	vfpfcnvrt@fmt^(0+384),w
  3544     050E  0084               	movwf	4
  3545     050F  1383               	bcf	3,7	;select IRP bank0
  3546     0510  0800               	movf	0,w
  3547     0511  00A0               	movwf	??_vfpfcnvrt^(0+384)
  3548     0512  0A84               	incf	4,f
  3549     0513  0800               	movf	0,w
  3550     0514  00A1               	movwf	(??_vfpfcnvrt^(0+384)+1)
  3551     0515  0821               	movf	(??_vfpfcnvrt+1)^(0+384),w
  3552     0516  1283               	bcf	3,5	;RP0=0, select bank0
  3553     0517  1303               	bcf	3,6	;RP1=0, select bank0
  3554     0518  00FF               	movwf	btemp+1
  3555     0519  1683               	bsf	3,5	;RP0=1, select bank3
  3556     051A  1703               	bsf	3,6	;RP1=1, select bank3
  3557     051B  0820               	movf	??_vfpfcnvrt^(0+384),w
  3558     051C  0084               	movwf	4
  3559     051D  1283               	bcf	3,5	;RP0=0, select bank0
  3560     051E  1303               	bcf	3,6	;RP1=0, select bank0
  3561     051F  160A  158A  2000  120A  118A  	fcall	stringtab
  3562     0524  3A25               	xorlw	37
  3563     0525  1D03               	skipz
  3564     0526  2D28               	goto	u6091
  3565     0527  2D29               	goto	u6090
  3566     0528                     u6091:
  3567     0528  2D51               	goto	l4365
  3568     0529                     u6090:
  3569     0529                     l4357:
  3570                           
  3571                           ;C:\Program Files\Microchip\xc8\v2.50\pic\sources\c99\common\doprnt.c: 1799:            
      +                           ++*fmt;
  3572     0529  1683               	bsf	3,5	;RP0=1, select bank3
  3573     052A  1703               	bsf	3,6	;RP1=1, select bank3
  3574     052B  081D               	movf	vfpfcnvrt@fmt^(0+384),w
  3575     052C  0084               	movwf	4
  3576     052D  3001               	movlw	1
  3577     052E  1383               	bcf	3,7	;select IRP bank0
  3578     052F  0780               	addwf	0,f
  3579     0530  0A84               	incf	4,f
  3580     0531  1803               	skipnc
  3581     0532  0A80               	incf	0,f
  3582     0533                     l4359:
  3583                           
  3584                           ;C:\Program Files\Microchip\xc8\v2.50\pic\sources\c99\common\doprnt.c: 1800:            
      +                           fputc((int)'%', fp);
  3585     0533  3025               	movlw	37
  3586     0534  1683               	bsf	3,5	;RP0=1, select bank1
  3587     0535  1303               	bcf	3,6	;RP1=0, select bank1
  3588     0536  00B2               	movwf	fputc@c^(0+128)
  3589     0537  3000               	movlw	0
  3590     0538  00B3               	movwf	(fputc@c^(0+128)+1)
  3591     0539  1683               	bsf	3,5	;RP0=1, select bank3
  3592     053A  1703               	bsf	3,6	;RP1=1, select bank3
  3593     053B  081B               	movf	vfpfcnvrt@fp^(0+384),w
  3594     053C  1683               	bsf	3,5	;RP0=1, select bank1
  3595     053D  1303               	bcf	3,6	;RP1=0, select bank1
  3596     053E  00B4               	movwf	fputc@fp^(0+128)
  3597     053F  1683               	bsf	3,5	;RP0=1, select bank3
  3598     0540  1703               	bsf	3,6	;RP1=1, select bank3
  3599     0541  081C               	movf	(vfpfcnvrt@fp+1)^(0+384),w
  3600     0542  1683               	bsf	3,5	;RP0=1, select bank1
  3601     0543  1303               	bcf	3,6	;RP1=0, select bank1
  3602     0544  00B5               	movwf	(fputc@fp+1)^(0+128)
  3603     0545  120A  158A  200E  120A  118A  	fcall	_fputc
  3604     054A                     l4361:
  3605                           
  3606                           ;C:\Program Files\Microchip\xc8\v2.50\pic\sources\c99\common\doprnt.c: 1801:            
      +                           return (int) 1;
  3607     054A  3001               	movlw	1
  3608     054B  1683               	bsf	3,5	;RP0=1, select bank3
  3609     054C  1703               	bsf	3,6	;RP1=1, select bank3
  3610     054D  009B               	movwf	?_vfpfcnvrt^(0+384)
  3611     054E  3000               	movlw	0
  3612     054F  009C               	movwf	(?_vfpfcnvrt^(0+384)+1)
  3613     0550  2D9F               	goto	l778
  3614     0551                     l4365:
  3615                           
  3616                           ;C:\Program Files\Microchip\xc8\v2.50\pic\sources\c99\common\doprnt.c: 1806:         ++*
      +                          fmt;
  3617     0551  1683               	bsf	3,5	;RP0=1, select bank3
  3618     0552  1703               	bsf	3,6	;RP1=1, select bank3
  3619     0553  081D               	movf	vfpfcnvrt@fmt^(0+384),w
  3620     0554  0084               	movwf	4
  3621     0555  3001               	movlw	1
  3622     0556  1383               	bcf	3,7	;select IRP bank0
  3623     0557  0780               	addwf	0,f
  3624     0558  0A84               	incf	4,f
  3625     0559  1803               	skipnc
  3626     055A  0A80               	incf	0,f
  3627     055B  2D08               	goto	l4351
  3628     055C                     l4371:
  3629                           
  3630                           ;C:\Program Files\Microchip\xc8\v2.50\pic\sources\c99\common\doprnt.c: 1811:     fputc((
      +                          int)(*fmt)[0], fp);
  3631     055C  1683               	bsf	3,5	;RP0=1, select bank3
  3632     055D  1703               	bsf	3,6	;RP1=1, select bank3
  3633     055E  081D               	movf	vfpfcnvrt@fmt^(0+384),w
  3634     055F  0084               	movwf	4
  3635     0560  1383               	bcf	3,7	;select IRP bank0
  3636     0561  0800               	movf	0,w
  3637     0562  00A0               	movwf	??_vfpfcnvrt^(0+384)
  3638     0563  0A84               	incf	4,f
  3639     0564  0800               	movf	0,w
  3640     0565  00A1               	movwf	(??_vfpfcnvrt^(0+384)+1)
  3641     0566  0821               	movf	(??_vfpfcnvrt+1)^(0+384),w
  3642     0567  1283               	bcf	3,5	;RP0=0, select bank0
  3643     0568  1303               	bcf	3,6	;RP1=0, select bank0
  3644     0569  00FF               	movwf	btemp+1
  3645     056A  1683               	bsf	3,5	;RP0=1, select bank3
  3646     056B  1703               	bsf	3,6	;RP1=1, select bank3
  3647     056C  0820               	movf	??_vfpfcnvrt^(0+384),w
  3648     056D  0084               	movwf	4
  3649     056E  1283               	bcf	3,5	;RP0=0, select bank0
  3650     056F  1303               	bcf	3,6	;RP1=0, select bank0
  3651     0570  160A  158A  2000  120A  118A  	fcall	stringtab
  3652     0575  1683               	bsf	3,5	;RP0=1, select bank3
  3653     0576  1703               	bsf	3,6	;RP1=1, select bank3
  3654     0577  00A2               	movwf	(??_vfpfcnvrt+2)^(0+384)
  3655     0578  01A3               	clrf	((??_vfpfcnvrt+2)^(0+384)+1)
  3656     0579  0822               	movf	(??_vfpfcnvrt+2)^(0+384),w
  3657     057A  1683               	bsf	3,5	;RP0=1, select bank1
  3658     057B  1303               	bcf	3,6	;RP1=0, select bank1
  3659     057C  00B2               	movwf	fputc@c^(0+128)
  3660     057D  1683               	bsf	3,5	;RP0=1, select bank3
  3661     057E  1703               	bsf	3,6	;RP1=1, select bank3
  3662     057F  0823               	movf	(??_vfpfcnvrt+3)^(0+384),w
  3663     0580  1683               	bsf	3,5	;RP0=1, select bank1
  3664     0581  1303               	bcf	3,6	;RP1=0, select bank1
  3665     0582  00B3               	movwf	(fputc@c+1)^(0+128)
  3666     0583  1683               	bsf	3,5	;RP0=1, select bank3
  3667     0584  1703               	bsf	3,6	;RP1=1, select bank3
  3668     0585  081B               	movf	vfpfcnvrt@fp^(0+384),w
  3669     0586  1683               	bsf	3,5	;RP0=1, select bank1
  3670     0587  1303               	bcf	3,6	;RP1=0, select bank1
  3671     0588  00B4               	movwf	fputc@fp^(0+128)
  3672     0589  1683               	bsf	3,5	;RP0=1, select bank3
  3673     058A  1703               	bsf	3,6	;RP1=1, select bank3
  3674     058B  081C               	movf	(vfpfcnvrt@fp+1)^(0+384),w
  3675     058C  1683               	bsf	3,5	;RP0=1, select bank1
  3676     058D  1303               	bcf	3,6	;RP1=0, select bank1
  3677     058E  00B5               	movwf	(fputc@fp+1)^(0+128)
  3678     058F  120A  158A  200E  120A  118A  	fcall	_fputc
  3679     0594                     l4373:
  3680                           
  3681                           ;C:\Program Files\Microchip\xc8\v2.50\pic\sources\c99\common\doprnt.c: 1812:     ++*fmt;
  3682     0594  1683               	bsf	3,5	;RP0=1, select bank3
  3683     0595  1703               	bsf	3,6	;RP1=1, select bank3
  3684     0596  081D               	movf	vfpfcnvrt@fmt^(0+384),w
  3685     0597  0084               	movwf	4
  3686     0598  3001               	movlw	1
  3687     0599  1383               	bcf	3,7	;select IRP bank0
  3688     059A  0780               	addwf	0,f
  3689     059B  0A84               	incf	4,f
  3690     059C  1803               	skipnc
  3691     059D  0A80               	incf	0,f
  3692     059E  2D4A               	goto	l4361
  3693     059F                     l778:
  3694     059F  0008               	return
  3695     05A0                     __end_of_vfpfcnvrt:
  3696                           
  3697                           	psect	text4
  3698     09DF                     __ptext4:	
  3699 ;; *************** function _xtoa *****************
  3700 ;; Defined at:
  3701 ;;		line 1052 in file "C:\Program Files\Microchip\xc8\v2.50\pic\sources\c99\common\doprnt.c"
  3702 ;; Parameters:    Size  Location     Type
  3703 ;;  fp              2   47[BANK1 ] PTR struct _IO_FILE
  3704 ;;		 -> sprintf@f(11), 
  3705 ;;  d               2   49[BANK1 ] unsigned int 
  3706 ;;  x               1   51[BANK1 ] unsigned char 
  3707 ;; Auto vars:     Size  Location     Type
  3708 ;;  i               2    9[BANK3 ] int 
  3709 ;;  w               2    6[BANK3 ] int 
  3710 ;;  p               2    3[BANK3 ] int 
  3711 ;;  c               1    8[BANK3 ] unsigned char 
  3712 ;;  d_nonzero       1    5[BANK3 ] _Bool 
  3713 ;;  a               1    0[BANK3 ] unsigned char 
  3714 ;; Return value:  Size  Location     Type
  3715 ;;                  2   47[BANK1 ] int 
  3716 ;; Registers used:
  3717 ;;		wreg, fsr0l, fsr0h, status,2, status,0, btemp+1, pclath, cstack
  3718 ;; Tracked objects:
  3719 ;;		On entry : 0/0
  3720 ;;		On exit  : 0/0
  3721 ;;		Unchanged: 0/0
  3722 ;; Data sizes:     COMMON   BANK0   BANK1   BANK3   BANK2
  3723 ;;      Params:         0       0       5       0       0
  3724 ;;      Locals:         0       0       0      11       0
  3725 ;;      Temps:          0       0       0       0       0
  3726 ;;      Totals:         0       0       5      11       0
  3727 ;;Total ram usage:       16 bytes
  3728 ;; Hardware stack levels used: 1
  3729 ;; Hardware stack levels required when called: 13
  3730 ;; This function calls:
  3731 ;;		_pad
  3732 ;; This function is called by:
  3733 ;;		_vfpfcnvrt
  3734 ;; This function uses a non-reentrant model
  3735 ;;
  3736                           
  3737     09DF                     _xtoa:	
  3738                           ;psect for function _xtoa
  3739                           
  3740     09DF                     l4125:	
  3741                           ;incstack = 0
  3742 ;; hardware stack exceeded
  3743                           ; Regs used in _xtoa: [wreg-fsr0h+status,2+status,0+btemp+1+pclath+cstack]
  3744                           
  3745     09DF                     l4127:
  3746                           
  3747                           ;C:\Program Files\Microchip\xc8\v2.50\pic\sources\c99\common\doprnt.c: 1076:     if (!(p
      +                          rec < 0)) {
  3748     09DF  1683               	bsf	3,5	;RP0=1, select bank1
  3749     09E0  1303               	bcf	3,6	;RP1=0, select bank1
  3750     09E1  1BDA               	btfsc	(_prec+1)^(0+128),7
  3751     09E2  29E4               	goto	u5791
  3752     09E3  29E5               	goto	u5790
  3753     09E4                     u5791:
  3754     09E4  29E7               	goto	l4131
  3755     09E5                     u5790:
  3756     09E5                     l4129:
  3757                           
  3758                           ;C:\Program Files\Microchip\xc8\v2.50\pic\sources\c99\common\doprnt.c: 1077:         fla
      +                          gs &= ~(1 << 1);
  3759     09E5  30FD               	movlw	253
  3760     09E6  05DD               	andwf	_flags^(0+128),f
  3761     09E7                     l4131:
  3762                           
  3763                           ;C:\Program Files\Microchip\xc8\v2.50\pic\sources\c99\common\doprnt.c: 1080:     p = (0 
      +                          <= prec) ? prec : 1;
  3764     09E7  1FDA               	btfss	(_prec+1)^(0+128),7
  3765     09E8  29EA               	goto	u5801
  3766     09E9  29EB               	goto	u5800
  3767     09EA                     u5801:
  3768     09EA  29F2               	goto	l4135
  3769     09EB                     u5800:
  3770     09EB                     l4133:
  3771     09EB  3001               	movlw	1
  3772     09EC  1683               	bsf	3,5	;RP0=1, select bank3
  3773     09ED  1703               	bsf	3,6	;RP1=1, select bank3
  3774     09EE  0093               	movwf	xtoa@p^(0+384)
  3775     09EF  3000               	movlw	0
  3776     09F0  0094               	movwf	(xtoa@p^(0+384)+1)
  3777     09F1  29FC               	goto	l735
  3778     09F2                     l4135:
  3779     09F2  085A               	movf	(_prec+1)^(0+128),w
  3780     09F3  1683               	bsf	3,5	;RP0=1, select bank3
  3781     09F4  1703               	bsf	3,6	;RP1=1, select bank3
  3782     09F5  0094               	movwf	(xtoa@p+1)^(0+384)
  3783     09F6  1683               	bsf	3,5	;RP0=1, select bank1
  3784     09F7  1303               	bcf	3,6	;RP1=0, select bank1
  3785     09F8  0859               	movf	_prec^(0+128),w
  3786     09F9  1683               	bsf	3,5	;RP0=1, select bank3
  3787     09FA  1703               	bsf	3,6	;RP1=1, select bank3
  3788     09FB  0093               	movwf	xtoa@p^(0+384)
  3789     09FC                     l735:
  3790                           
  3791                           ;C:\Program Files\Microchip\xc8\v2.50\pic\sources\c99\common\doprnt.c: 1082:     w = wid
      +                          th;
  3792     09FC  1683               	bsf	3,5	;RP0=1, select bank1
  3793     09FD  1303               	bcf	3,6	;RP1=0, select bank1
  3794     09FE  0858               	movf	(_width+1)^(0+128),w
  3795     09FF  1683               	bsf	3,5	;RP0=1, select bank3
  3796     0A00  1703               	bsf	3,6	;RP1=1, select bank3
  3797     0A01  0097               	movwf	(xtoa@w+1)^(0+384)
  3798     0A02  1683               	bsf	3,5	;RP0=1, select bank1
  3799     0A03  1303               	bcf	3,6	;RP1=0, select bank1
  3800     0A04  0857               	movf	_width^(0+128),w
  3801     0A05  1683               	bsf	3,5	;RP0=1, select bank3
  3802     0A06  1703               	bsf	3,6	;RP1=1, select bank3
  3803     0A07  0096               	movwf	xtoa@w^(0+384)
  3804     0A08                     l4137:
  3805                           
  3806                           ;C:\Program Files\Microchip\xc8\v2.50\pic\sources\c99\common\doprnt.c: 1084:  d_nonzero 
      +                          = d != 0;
  3807     0A08  1683               	bsf	3,5	;RP0=1, select bank1
  3808     0A09  1303               	bcf	3,6	;RP1=0, select bank1
  3809     0A0A  0851               	movf	xtoa@d^(0+128),w
  3810     0A0B  0452               	iorwf	(xtoa@d+1)^(0+128),w
  3811     0A0C  1D03               	btfss	3,2
  3812     0A0D  2A0F               	goto	u5811
  3813     0A0E  2A11               	goto	u5810
  3814     0A0F                     u5811:
  3815     0A0F  3001               	movlw	1
  3816     0A10  2A12               	goto	u5820
  3817     0A11                     u5810:
  3818     0A11  3000               	movlw	0
  3819     0A12                     u5820:
  3820     0A12  1683               	bsf	3,5	;RP0=1, select bank3
  3821     0A13  1703               	bsf	3,6	;RP1=1, select bank3
  3822     0A14  0095               	movwf	xtoa@d_nonzero^(0+384)
  3823     0A15                     l4139:
  3824                           
  3825                           ;C:\Program Files\Microchip\xc8\v2.50\pic\sources\c99\common\doprnt.c: 1085:     if ((fl
      +                          ags & (1 << 4)) && d_nonzero) {
  3826     0A15  1683               	bsf	3,5	;RP0=1, select bank1
  3827     0A16  1303               	bcf	3,6	;RP1=0, select bank1
  3828     0A17  1E5D               	btfss	_flags^(0+128),4
  3829     0A18  2A1A               	goto	u5831
  3830     0A19  2A1B               	goto	u5830
  3831     0A1A                     u5831:
  3832     0A1A  2A28               	goto	l4145
  3833     0A1B                     u5830:
  3834     0A1B                     l4141:
  3835     0A1B  1683               	bsf	3,5	;RP0=1, select bank3
  3836     0A1C  1703               	bsf	3,6	;RP1=1, select bank3
  3837     0A1D  0815               	movf	xtoa@d_nonzero^(0+384),w
  3838     0A1E  1903               	btfsc	3,2
  3839     0A1F  2A21               	goto	u5841
  3840     0A20  2A22               	goto	u5840
  3841     0A21                     u5841:
  3842     0A21  2A28               	goto	l4145
  3843     0A22                     u5840:
  3844     0A22                     l4143:
  3845                           
  3846                           ;C:\Program Files\Microchip\xc8\v2.50\pic\sources\c99\common\doprnt.c: 1086:         w -
      +                          = 2;
  3847     0A22  30FE               	movlw	254
  3848     0A23  0796               	addwf	xtoa@w^(0+384),f
  3849     0A24  1803               	skipnc
  3850     0A25  0A97               	incf	(xtoa@w+1)^(0+384),f
  3851     0A26  30FF               	movlw	255
  3852     0A27  0797               	addwf	(xtoa@w+1)^(0+384),f
  3853     0A28                     l4145:
  3854                           
  3855                           ;C:\Program Files\Microchip\xc8\v2.50\pic\sources\c99\common\doprnt.c: 1091:  a = x == '
      +                          x' ? 'a' : 'A';
  3856     0A28  3078               	movlw	120
  3857     0A29  1303               	bcf	3,6	;RP1=0, select bank1
  3858     0A2A  0653               	xorwf	xtoa@x^(0+128),w
  3859     0A2B  1903               	btfsc	3,2
  3860     0A2C  2A2E               	goto	u5851
  3861     0A2D  2A2F               	goto	u5850
  3862     0A2E                     u5851:
  3863     0A2E  2A36               	goto	l4149
  3864     0A2F                     u5850:
  3865     0A2F                     l4147:
  3866     0A2F  3041               	movlw	65
  3867     0A30  1683               	bsf	3,5	;RP0=1, select bank3
  3868     0A31  1703               	bsf	3,6	;RP1=1, select bank3
  3869     0A32  0091               	movwf	_xtoa$641^(0+384)
  3870     0A33  3000               	movlw	0
  3871     0A34  0092               	movwf	(_xtoa$641^(0+384)+1)
  3872     0A35  2A3C               	goto	l740
  3873     0A36                     l4149:
  3874     0A36  3061               	movlw	97
  3875     0A37  1683               	bsf	3,5	;RP0=1, select bank3
  3876     0A38  1703               	bsf	3,6	;RP1=1, select bank3
  3877     0A39  0091               	movwf	_xtoa$641^(0+384)
  3878     0A3A  3000               	movlw	0
  3879     0A3B  0092               	movwf	(_xtoa$641^(0+384)+1)
  3880     0A3C                     l740:
  3881     0A3C  0811               	movf	_xtoa$641^(0+384),w
  3882     0A3D  0090               	movwf	xtoa@a^(0+384)
  3883                           
  3884                           ;C:\Program Files\Microchip\xc8\v2.50\pic\sources\c99\common\doprnt.c: 1095:     i = siz
      +                          eof(dbuf) - 1;
  3885     0A3E  301F               	movlw	31
  3886     0A3F  0099               	movwf	xtoa@i^(0+384)
  3887     0A40  3000               	movlw	0
  3888     0A41  009A               	movwf	(xtoa@i^(0+384)+1)
  3889     0A42                     l4151:
  3890                           
  3891                           ;C:\Program Files\Microchip\xc8\v2.50\pic\sources\c99\common\doprnt.c: 1096:     dbuf[i]
      +                           = '\0';
  3892     0A42  1283               	bcf	3,5	;RP0=0, select bank2
  3893     0A43  1703               	bsf	3,6	;RP1=1, select bank2
  3894     0A44  01AF               	clrf	(_dbuf^(0+256)+31)
  3895                           
  3896                           ;C:\Program Files\Microchip\xc8\v2.50\pic\sources\c99\common\doprnt.c: 1097:     while (
      +                          !(i < 2) && (d != 0
  3897     0A45  2A7F               	goto	l4171
  3898     0A46                     l4153:
  3899                           
  3900                           ;C:\Program Files\Microchip\xc8\v2.50\pic\sources\c99\common\doprnt.c: 1106:     )) {;C:
      +                          \Program Files\Microchip\xc8\v2.50\pic\sources\c99\common\doprnt.c: 1107:         --i;
  3901     0A46  30FF               	movlw	255
  3902     0A47  1683               	bsf	3,5	;RP0=1, select bank3
  3903     0A48  1703               	bsf	3,6	;RP1=1, select bank3
  3904     0A49  0799               	addwf	xtoa@i^(0+384),f
  3905     0A4A  1803               	skipnc
  3906     0A4B  0A9A               	incf	(xtoa@i+1)^(0+384),f
  3907     0A4C  30FF               	movlw	255
  3908     0A4D  079A               	addwf	(xtoa@i+1)^(0+384),f
  3909                           
  3910                           ;C:\Program Files\Microchip\xc8\v2.50\pic\sources\c99\common\doprnt.c: 1108:         c =
      +                           d & 0x0f;
  3911     0A4E  1683               	bsf	3,5	;RP0=1, select bank1
  3912     0A4F  1303               	bcf	3,6	;RP1=0, select bank1
  3913     0A50  0851               	movf	xtoa@d^(0+128),w
  3914     0A51  1683               	bsf	3,5	;RP0=1, select bank3
  3915     0A52  1703               	bsf	3,6	;RP1=1, select bank3
  3916     0A53  0098               	movwf	xtoa@c^(0+384)
  3917     0A54                     l4155:
  3918     0A54  300F               	movlw	15
  3919     0A55  0598               	andwf	xtoa@c^(0+384),f
  3920     0A56                     l4157:
  3921                           
  3922                           ;C:\Program Files\Microchip\xc8\v2.50\pic\sources\c99\common\doprnt.c: 1109:   if (c < 1
      +                          0) {
  3923     0A56  300A               	movlw	10
  3924     0A57  0218               	subwf	xtoa@c^(0+384),w
  3925     0A58  1803               	skipnc
  3926     0A59  2A5B               	goto	u5861
  3927     0A5A  2A5C               	goto	u5860
  3928     0A5B                     u5861:
  3929     0A5B  2A5F               	goto	l4161
  3930     0A5C                     u5860:
  3931     0A5C                     l4159:
  3932                           
  3933                           ;C:\Program Files\Microchip\xc8\v2.50\pic\sources\c99\common\doprnt.c: 1110:    c += '0'
      +                          ;
  3934     0A5C  3030               	movlw	48
  3935     0A5D  0798               	addwf	xtoa@c^(0+384),f
  3936                           
  3937                           ;C:\Program Files\Microchip\xc8\v2.50\pic\sources\c99\common\doprnt.c: 1111:   }
  3938     0A5E  2A62               	goto	l4163
  3939     0A5F                     l4161:
  3940                           
  3941                           ;C:\Program Files\Microchip\xc8\v2.50\pic\sources\c99\common\doprnt.c: 1114:    c += a -
      +                           10;
  3942     0A5F  0810               	movf	xtoa@a^(0+384),w
  3943     0A60  3EF6               	addlw	246
  3944     0A61  0798               	addwf	xtoa@c^(0+384),f
  3945     0A62                     l4163:
  3946                           
  3947                           ;C:\Program Files\Microchip\xc8\v2.50\pic\sources\c99\common\doprnt.c: 1121:   dbuf[i] =
      +                           c;
  3948     0A62  0819               	movf	xtoa@i^(0+384),w
  3949     0A63  3E10               	addlw	(low (_dbuf| (0+256)))& (0+255)
  3950     0A64  0084               	movwf	4
  3951     0A65  0818               	movf	xtoa@c^(0+384),w
  3952     0A66  1783               	bsf	3,7	;select IRP bank2
  3953     0A67  0080               	movwf	0
  3954     0A68                     l4165:
  3955                           
  3956                           ;C:\Program Files\Microchip\xc8\v2.50\pic\sources\c99\common\doprnt.c: 1123:         --p
      +                          ;
  3957     0A68  30FF               	movlw	255
  3958     0A69  0793               	addwf	xtoa@p^(0+384),f
  3959     0A6A  1803               	skipnc
  3960     0A6B  0A94               	incf	(xtoa@p+1)^(0+384),f
  3961     0A6C  30FF               	movlw	255
  3962     0A6D  0794               	addwf	(xtoa@p+1)^(0+384),f
  3963     0A6E                     l4167:
  3964                           
  3965                           ;C:\Program Files\Microchip\xc8\v2.50\pic\sources\c99\common\doprnt.c: 1127:         --w
      +                          ;
  3966     0A6E  30FF               	movlw	255
  3967     0A6F  0796               	addwf	xtoa@w^(0+384),f
  3968     0A70  1803               	skipnc
  3969     0A71  0A97               	incf	(xtoa@w+1)^(0+384),f
  3970     0A72  30FF               	movlw	255
  3971     0A73  0797               	addwf	(xtoa@w+1)^(0+384),f
  3972     0A74                     l4169:
  3973                           
  3974                           ;C:\Program Files\Microchip\xc8\v2.50\pic\sources\c99\common\doprnt.c: 1128:         d =
      +                           d >> 4;
  3975     0A74  1683               	bsf	3,5	;RP0=1, select bank1
  3976     0A75  1303               	bcf	3,6	;RP1=0, select bank1
  3977     0A76  0E51               	swapf	xtoa@d^(0+128),w
  3978     0A77  390F               	andlw	15
  3979     0A78  00D1               	movwf	xtoa@d^(0+128)
  3980     0A79  0E52               	swapf	(xtoa@d+1)^(0+128),w
  3981     0A7A  39F0               	andlw	240
  3982     0A7B  04D1               	iorwf	xtoa@d^(0+128),f
  3983     0A7C  0E52               	swapf	(xtoa@d+1)^(0+128),w
  3984     0A7D  390F               	andlw	15
  3985     0A7E  00D2               	movwf	(xtoa@d^(0+128)+1)
  3986     0A7F                     l4171:
  3987                           
  3988                           ;C:\Program Files\Microchip\xc8\v2.50\pic\sources\c99\common\doprnt.c: 1097:     while (
      +                          !(i < 2) && (d != 0
  3989     0A7F  1683               	bsf	3,5	;RP0=1, select bank3
  3990     0A80  1703               	bsf	3,6	;RP1=1, select bank3
  3991     0A81  081A               	movf	(xtoa@i+1)^(0+384),w
  3992     0A82  3A80               	xorlw	128
  3993     0A83  00FF               	movwf	btemp+1
  3994     0A84  3080               	movlw	128
  3995     0A85  027F               	subwf	btemp+1,w
  3996     0A86  1D03               	skipz
  3997     0A87  2A8A               	goto	u5875
  3998     0A88  3002               	movlw	2
  3999     0A89  0219               	subwf	xtoa@i^(0+384),w
  4000     0A8A                     u5875:
  4001     0A8A  1C03               	skipc
  4002     0A8B  2A8D               	goto	u5871
  4003     0A8C  2A8E               	goto	u5870
  4004     0A8D                     u5871:
  4005     0A8D  2ABA               	goto	l749
  4006     0A8E                     u5870:
  4007     0A8E                     l4173:
  4008     0A8E  1683               	bsf	3,5	;RP0=1, select bank1
  4009     0A8F  1303               	bcf	3,6	;RP1=0, select bank1
  4010     0A90  0851               	movf	xtoa@d^(0+128),w
  4011     0A91  0452               	iorwf	(xtoa@d+1)^(0+128),w
  4012     0A92  1D03               	btfss	3,2
  4013     0A93  2A95               	goto	u5881
  4014     0A94  2A96               	goto	u5880
  4015     0A95                     u5881:
  4016     0A95  2A46               	goto	l4153
  4017     0A96                     u5880:
  4018     0A96                     l4175:
  4019     0A96  1683               	bsf	3,5	;RP0=1, select bank3
  4020     0A97  1703               	bsf	3,6	;RP1=1, select bank3
  4021     0A98  0814               	movf	(xtoa@p+1)^(0+384),w
  4022     0A99  3A80               	xorlw	128
  4023     0A9A  00FF               	movwf	btemp+1
  4024     0A9B  3080               	movlw	128
  4025     0A9C  027F               	subwf	btemp+1,w
  4026     0A9D  1D03               	skipz
  4027     0A9E  2AA1               	goto	u5895
  4028     0A9F  3001               	movlw	1
  4029     0AA0  0213               	subwf	xtoa@p^(0+384),w
  4030     0AA1                     u5895:
  4031     0AA1  1803               	skipnc
  4032     0AA2  2AA4               	goto	u5891
  4033     0AA3  2AA5               	goto	u5890
  4034     0AA4                     u5891:
  4035     0AA4  2A46               	goto	l4153
  4036     0AA5                     u5890:
  4037     0AA5                     l4177:
  4038     0AA5  1683               	bsf	3,5	;RP0=1, select bank3
  4039     0AA6  1703               	bsf	3,6	;RP1=1, select bank3
  4040     0AA7  0817               	movf	(xtoa@w+1)^(0+384),w
  4041     0AA8  3A80               	xorlw	128
  4042     0AA9  00FF               	movwf	btemp+1
  4043     0AAA  3080               	movlw	128
  4044     0AAB  027F               	subwf	btemp+1,w
  4045     0AAC  1D03               	skipz
  4046     0AAD  2AB0               	goto	u5905
  4047     0AAE  3001               	movlw	1
  4048     0AAF  0216               	subwf	xtoa@w^(0+384),w
  4049     0AB0                     u5905:
  4050     0AB0  1C03               	skipc
  4051     0AB1  2AB3               	goto	u5901
  4052     0AB2  2AB4               	goto	u5900
  4053     0AB3                     u5901:
  4054     0AB3  2ABA               	goto	l749
  4055     0AB4                     u5900:
  4056     0AB4                     l4179:
  4057     0AB4  1683               	bsf	3,5	;RP0=1, select bank1
  4058     0AB5  1303               	bcf	3,6	;RP1=0, select bank1
  4059     0AB6  18DD               	btfsc	_flags^(0+128),1
  4060     0AB7  2AB9               	goto	u5911
  4061     0AB8  2ABA               	goto	u5910
  4062     0AB9                     u5911:
  4063     0AB9  2A46               	goto	l4153
  4064     0ABA                     u5910:
  4065     0ABA                     l749:
  4066                           
  4067                           ;C:\Program Files\Microchip\xc8\v2.50\pic\sources\c99\common\doprnt.c: 1133:     if ((fl
      +                          ags & (1 << 4)) && d_nonzero
  4068     0ABA  1683               	bsf	3,5	;RP0=1, select bank1
  4069     0ABB  1303               	bcf	3,6	;RP1=0, select bank1
  4070     0ABC  1E5D               	btfss	_flags^(0+128),4
  4071     0ABD  2ABF               	goto	u5921
  4072     0ABE  2AC0               	goto	u5920
  4073     0ABF                     u5921:
  4074     0ABF  2AEC               	goto	l4191
  4075     0AC0                     u5920:
  4076     0AC0                     l4181:
  4077     0AC0  1683               	bsf	3,5	;RP0=1, select bank3
  4078     0AC1  1703               	bsf	3,6	;RP1=1, select bank3
  4079     0AC2  0815               	movf	xtoa@d_nonzero^(0+384),w
  4080     0AC3  1903               	btfsc	3,2
  4081     0AC4  2AC6               	goto	u5931
  4082     0AC5  2AC7               	goto	u5930
  4083     0AC6                     u5931:
  4084     0AC6  2AEC               	goto	l4191
  4085     0AC7                     u5930:
  4086     0AC7                     l4183:
  4087     0AC7  1683               	bsf	3,5	;RP0=1, select bank1
  4088     0AC8  1303               	bcf	3,6	;RP1=0, select bank1
  4089     0AC9  0859               	movf	_prec^(0+128),w
  4090     0ACA  045A               	iorwf	(_prec+1)^(0+128),w
  4091     0ACB  1903               	btfsc	3,2
  4092     0ACC  2ACE               	goto	u5941
  4093     0ACD  2ACF               	goto	u5940
  4094     0ACE                     u5941:
  4095     0ACE  2AEC               	goto	l4191
  4096     0ACF                     u5940:
  4097     0ACF                     l4185:
  4098                           
  4099                           ;C:\Program Files\Microchip\xc8\v2.50\pic\sources\c99\common\doprnt.c: 1137:     ) {;C:\
      +                          Program Files\Microchip\xc8\v2.50\pic\sources\c99\common\doprnt.c: 1138:         --i;
  4100     0ACF  30FF               	movlw	255
  4101     0AD0  1683               	bsf	3,5	;RP0=1, select bank3
  4102     0AD1  1703               	bsf	3,6	;RP1=1, select bank3
  4103     0AD2  0799               	addwf	xtoa@i^(0+384),f
  4104     0AD3  1803               	skipnc
  4105     0AD4  0A9A               	incf	(xtoa@i+1)^(0+384),f
  4106     0AD5  30FF               	movlw	255
  4107     0AD6  079A               	addwf	(xtoa@i+1)^(0+384),f
  4108     0AD7                     l4187:
  4109                           
  4110                           ;C:\Program Files\Microchip\xc8\v2.50\pic\sources\c99\common\doprnt.c: 1140:         dbu
      +                          f[i] = x;
  4111     0AD7  0819               	movf	xtoa@i^(0+384),w
  4112     0AD8  3E10               	addlw	(low (_dbuf| (0+256)))& (0+255)
  4113     0AD9  0084               	movwf	4
  4114     0ADA  1683               	bsf	3,5	;RP0=1, select bank1
  4115     0ADB  1303               	bcf	3,6	;RP1=0, select bank1
  4116     0ADC  0853               	movf	xtoa@x^(0+128),w
  4117     0ADD  1783               	bsf	3,7	;select IRP bank2
  4118     0ADE  0080               	movwf	0
  4119     0ADF                     l4189:
  4120                           
  4121                           ;C:\Program Files\Microchip\xc8\v2.50\pic\sources\c99\common\doprnt.c: 1146:         --i
      +                          ;
  4122     0ADF  30FF               	movlw	255
  4123     0AE0  1683               	bsf	3,5	;RP0=1, select bank3
  4124     0AE1  1703               	bsf	3,6	;RP1=1, select bank3
  4125     0AE2  0799               	addwf	xtoa@i^(0+384),f
  4126     0AE3  1803               	skipnc
  4127     0AE4  0A9A               	incf	(xtoa@i+1)^(0+384),f
  4128     0AE5  30FF               	movlw	255
  4129     0AE6  079A               	addwf	(xtoa@i+1)^(0+384),f
  4130                           
  4131                           ;C:\Program Files\Microchip\xc8\v2.50\pic\sources\c99\common\doprnt.c: 1147:         dbu
      +                          f[i] = '0';
  4132     0AE7  0819               	movf	xtoa@i^(0+384),w
  4133     0AE8  3E10               	addlw	(low (_dbuf| (0+256)))& (0+255)
  4134     0AE9  0084               	movwf	4
  4135     0AEA  3030               	movlw	48
  4136     0AEB  0080               	movwf	0
  4137     0AEC                     l4191:
  4138                           
  4139                           ;C:\Program Files\Microchip\xc8\v2.50\pic\sources\c99\common\doprnt.c: 1152:     return 
      +                          (int) pad(fp, &dbuf[i], w);
  4140     0AEC  1303               	bcf	3,6	;RP1=0, select bank1
  4141     0AED  084F               	movf	xtoa@fp^(0+128),w
  4142     0AEE  00C7               	movwf	pad@fp^(0+128)
  4143     0AEF  0850               	movf	(xtoa@fp+1)^(0+128),w
  4144     0AF0  00C8               	movwf	(pad@fp+1)^(0+128)
  4145     0AF1  1683               	bsf	3,5	;RP0=1, select bank3
  4146     0AF2  1703               	bsf	3,6	;RP1=1, select bank3
  4147     0AF3  0819               	movf	xtoa@i^(0+384),w
  4148     0AF4  3E10               	addlw	(low (_dbuf| (0+256)))& (0+255)
  4149     0AF5  1683               	bsf	3,5	;RP0=1, select bank1
  4150     0AF6  1303               	bcf	3,6	;RP1=0, select bank1
  4151     0AF7  00C9               	movwf	pad@buf^(0+128)
  4152     0AF8  1683               	bsf	3,5	;RP0=1, select bank3
  4153     0AF9  1703               	bsf	3,6	;RP1=1, select bank3
  4154     0AFA  0817               	movf	(xtoa@w+1)^(0+384),w
  4155     0AFB  1683               	bsf	3,5	;RP0=1, select bank1
  4156     0AFC  1303               	bcf	3,6	;RP1=0, select bank1
  4157     0AFD  00CB               	movwf	(pad@p+1)^(0+128)
  4158     0AFE  1683               	bsf	3,5	;RP0=1, select bank3
  4159     0AFF  1703               	bsf	3,6	;RP1=1, select bank3
  4160     0B00  0816               	movf	xtoa@w^(0+384),w
  4161     0B01  1683               	bsf	3,5	;RP0=1, select bank1
  4162     0B02  1303               	bcf	3,6	;RP1=0, select bank1
  4163     0B03  00CA               	movwf	pad@p^(0+128)
  4164     0B04  160A  158A  279A  120A  158A  	fcall	_pad
  4165     0B09  1683               	bsf	3,5	;RP0=1, select bank1
  4166     0B0A  1303               	bcf	3,6	;RP1=0, select bank1
  4167     0B0B  0848               	movf	(?_pad+1)^(0+128),w
  4168     0B0C  00D0               	movwf	(?_xtoa+1)^(0+128)
  4169     0B0D  0847               	movf	?_pad^(0+128),w
  4170     0B0E  00CF               	movwf	?_xtoa^(0+128)
  4171     0B0F                     l751:
  4172     0B0F  0008               	return
  4173     0B10                     __end_of_xtoa:
  4174                           
  4175                           	psect	text5
  4176     1433                     __ptext5:	
  4177 ;; *************** function _utoa *****************
  4178 ;; Defined at:
  4179 ;;		line 1001 in file "C:\Program Files\Microchip\xc8\v2.50\pic\sources\c99\common\doprnt.c"
  4180 ;; Parameters:    Size  Location     Type
  4181 ;;  fp              2   47[BANK1 ] PTR struct _IO_FILE
  4182 ;;		 -> sprintf@f(11), 
  4183 ;;  d               2   49[BANK1 ] unsigned int 
  4184 ;; Auto vars:     Size  Location     Type
  4185 ;;  i               2    4[BANK3 ] int 
  4186 ;;  w               2    2[BANK3 ] int 
  4187 ;;  p               2    0[BANK3 ] int 
  4188 ;; Return value:  Size  Location     Type
  4189 ;;                  2   47[BANK1 ] int 
  4190 ;; Registers used:
  4191 ;;		wreg, fsr0l, fsr0h, status,2, status,0, btemp+1, pclath, cstack
  4192 ;; Tracked objects:
  4193 ;;		On entry : 0/0
  4194 ;;		On exit  : 0/0
  4195 ;;		Unchanged: 0/0
  4196 ;; Data sizes:     COMMON   BANK0   BANK1   BANK3   BANK2
  4197 ;;      Params:         0       0       4       0       0
  4198 ;;      Locals:         0       0       0       6       0
  4199 ;;      Temps:          0       0       0       0       0
  4200 ;;      Totals:         0       0       4       6       0
  4201 ;;Total ram usage:       10 bytes
  4202 ;; Hardware stack levels used: 1
  4203 ;; Hardware stack levels required when called: 13
  4204 ;; This function calls:
  4205 ;;		___lwdiv
  4206 ;;		___lwmod
  4207 ;;		_pad
  4208 ;; This function is called by:
  4209 ;;		_vfpfcnvrt
  4210 ;; This function uses a non-reentrant model
  4211 ;;
  4212                           
  4213     1433                     _utoa:	
  4214                           ;psect for function _utoa
  4215                           
  4216     1433                     l4089:	
  4217                           ;incstack = 0
  4218 ;; hardware stack exceeded
  4219                           ; Regs used in _utoa: [wreg-fsr0h+status,2+status,0+btemp+1+pclath+cstack]
  4220                           
  4221                           
  4222                           ;C:\Program Files\Microchip\xc8\v2.50\pic\sources\c99\common\doprnt.c: 1001: static int 
      +                          utoa(FILE *fp, vfpf_uint_t d);C:\Program Files\Microchip\xc8\v2.50\pic\sources\c99\commo
      +                          n\doprnt.c: 1002: {;C:\Program Files\Microchip\xc8\v2.50\pic\sources\c99\common\doprnt.c
      +                          : 1003:     int i, w;;C:\Program Files\Microchip\xc8\v2.50\pic\sources\c99\common\doprnt
      +                          .c: 1005:  int p;;C:\Program Files\Microchip\xc8\v2.50\pic\sources\c99\common\doprnt.c: 
      +                          1013:     if (!(prec < 0)) {
  4223     1433  1683               	bsf	3,5	;RP0=1, select bank1
  4224     1434  1303               	bcf	3,6	;RP1=0, select bank1
  4225     1435  1BDA               	btfsc	(_prec+1)^(0+128),7
  4226     1436  2C38               	goto	u5721
  4227     1437  2C39               	goto	u5720
  4228     1438                     u5721:
  4229     1438  2C3B               	goto	l4093
  4230     1439                     u5720:
  4231     1439                     l4091:
  4232                           
  4233                           ;C:\Program Files\Microchip\xc8\v2.50\pic\sources\c99\common\doprnt.c: 1014:         fla
      +                          gs &= ~(1 << 1);
  4234     1439  30FD               	movlw	253
  4235     143A  05DD               	andwf	_flags^(0+128),f
  4236     143B                     l4093:
  4237                           
  4238                           ;C:\Program Files\Microchip\xc8\v2.50\pic\sources\c99\common\doprnt.c: 1017:     p = (0 
      +                          <= prec) ? prec : 1;
  4239     143B  1FDA               	btfss	(_prec+1)^(0+128),7
  4240     143C  2C3E               	goto	u5731
  4241     143D  2C3F               	goto	u5730
  4242     143E                     u5731:
  4243     143E  2C46               	goto	l4097
  4244     143F                     u5730:
  4245     143F                     l4095:
  4246     143F  3001               	movlw	1
  4247     1440  1683               	bsf	3,5	;RP0=1, select bank3
  4248     1441  1703               	bsf	3,6	;RP1=1, select bank3
  4249     1442  0090               	movwf	utoa@p^(0+384)
  4250     1443  3000               	movlw	0
  4251     1444  0091               	movwf	(utoa@p^(0+384)+1)
  4252     1445  2C50               	goto	l720
  4253     1446                     l4097:
  4254     1446  085A               	movf	(_prec+1)^(0+128),w
  4255     1447  1683               	bsf	3,5	;RP0=1, select bank3
  4256     1448  1703               	bsf	3,6	;RP1=1, select bank3
  4257     1449  0091               	movwf	(utoa@p+1)^(0+384)
  4258     144A  1683               	bsf	3,5	;RP0=1, select bank1
  4259     144B  1303               	bcf	3,6	;RP1=0, select bank1
  4260     144C  0859               	movf	_prec^(0+128),w
  4261     144D  1683               	bsf	3,5	;RP0=1, select bank3
  4262     144E  1703               	bsf	3,6	;RP1=1, select bank3
  4263     144F  0090               	movwf	utoa@p^(0+384)
  4264     1450                     l720:
  4265                           
  4266                           ;C:\Program Files\Microchip\xc8\v2.50\pic\sources\c99\common\doprnt.c: 1019:     w = wid
      +                          th;
  4267     1450  1683               	bsf	3,5	;RP0=1, select bank1
  4268     1451  1303               	bcf	3,6	;RP1=0, select bank1
  4269     1452  0858               	movf	(_width+1)^(0+128),w
  4270     1453  1683               	bsf	3,5	;RP0=1, select bank3
  4271     1454  1703               	bsf	3,6	;RP1=1, select bank3
  4272     1455  0093               	movwf	(utoa@w+1)^(0+384)
  4273     1456  1683               	bsf	3,5	;RP0=1, select bank1
  4274     1457  1303               	bcf	3,6	;RP1=0, select bank1
  4275     1458  0857               	movf	_width^(0+128),w
  4276     1459  1683               	bsf	3,5	;RP0=1, select bank3
  4277     145A  1703               	bsf	3,6	;RP1=1, select bank3
  4278     145B  0092               	movwf	utoa@w^(0+384)
  4279                           
  4280                           ;C:\Program Files\Microchip\xc8\v2.50\pic\sources\c99\common\doprnt.c: 1022:     i = siz
      +                          eof(dbuf) - 1;
  4281     145C  301F               	movlw	31
  4282     145D  0094               	movwf	utoa@i^(0+384)
  4283     145E  3000               	movlw	0
  4284     145F  0095               	movwf	(utoa@i^(0+384)+1)
  4285     1460                     l4099:
  4286                           
  4287                           ;C:\Program Files\Microchip\xc8\v2.50\pic\sources\c99\common\doprnt.c: 1023:     dbuf[i]
      +                           = '\0';
  4288     1460  1283               	bcf	3,5	;RP0=0, select bank2
  4289     1461  1703               	bsf	3,6	;RP1=1, select bank2
  4290     1462  01AF               	clrf	(_dbuf^(0+256)+31)
  4291                           
  4292                           ;C:\Program Files\Microchip\xc8\v2.50\pic\sources\c99\common\doprnt.c: 1024:     while (
      +                          i && (d != 0
  4293     1463  2CA7               	goto	l4111
  4294     1464                     l4101:
  4295                           
  4296                           ;C:\Program Files\Microchip\xc8\v2.50\pic\sources\c99\common\doprnt.c: 1033:     )) {;C:
      +                          \Program Files\Microchip\xc8\v2.50\pic\sources\c99\common\doprnt.c: 1034:         --i;
  4297     1464  30FF               	movlw	255
  4298     1465  1683               	bsf	3,5	;RP0=1, select bank3
  4299     1466  1703               	bsf	3,6	;RP1=1, select bank3
  4300     1467  0794               	addwf	utoa@i^(0+384),f
  4301     1468  1803               	skipnc
  4302     1469  0A95               	incf	(utoa@i+1)^(0+384),f
  4303     146A  30FF               	movlw	255
  4304     146B  0795               	addwf	(utoa@i+1)^(0+384),f
  4305     146C                     l4103:
  4306                           
  4307                           ;C:\Program Files\Microchip\xc8\v2.50\pic\sources\c99\common\doprnt.c: 1035:         dbu
      +                          f[i] = '0' + (d % 10);
  4308     146C  0814               	movf	utoa@i^(0+384),w
  4309     146D  3E10               	addlw	(low (_dbuf| (0+256)))& (0+255)
  4310     146E  0084               	movwf	4
  4311     146F  300A               	movlw	10
  4312     1470  1683               	bsf	3,5	;RP0=1, select bank1
  4313     1471  1303               	bcf	3,6	;RP1=0, select bank1
  4314     1472  00B2               	movwf	___lwmod@divisor^(0+128)
  4315     1473  3000               	movlw	0
  4316     1474  00B3               	movwf	(___lwmod@divisor^(0+128)+1)
  4317     1475  0852               	movf	(utoa@d+1)^(0+128),w
  4318     1476  00B5               	movwf	(___lwmod@dividend+1)^(0+128)
  4319     1477  0851               	movf	utoa@d^(0+128),w
  4320     1478  00B4               	movwf	___lwmod@dividend^(0+128)
  4321     1479  160A  158A  24E2  160A  118A  	fcall	___lwmod
  4322     147E  1683               	bsf	3,5	;RP0=1, select bank1
  4323     147F  1303               	bcf	3,6	;RP1=0, select bank1
  4324     1480  0832               	movf	?___lwmod^(0+128),w
  4325     1481  3E30               	addlw	48
  4326     1482  1783               	bsf	3,7	;select IRP bank2
  4327     1483  0080               	movwf	0
  4328     1484                     l4105:
  4329                           
  4330                           ;C:\Program Files\Microchip\xc8\v2.50\pic\sources\c99\common\doprnt.c: 1037:         --p
      +                          ;
  4331     1484  30FF               	movlw	255
  4332     1485  1683               	bsf	3,5	;RP0=1, select bank3
  4333     1486  1703               	bsf	3,6	;RP1=1, select bank3
  4334     1487  0790               	addwf	utoa@p^(0+384),f
  4335     1488  1803               	skipnc
  4336     1489  0A91               	incf	(utoa@p+1)^(0+384),f
  4337     148A  30FF               	movlw	255
  4338     148B  0791               	addwf	(utoa@p+1)^(0+384),f
  4339     148C                     l4107:
  4340                           
  4341                           ;C:\Program Files\Microchip\xc8\v2.50\pic\sources\c99\common\doprnt.c: 1041:         --w
      +                          ;
  4342     148C  30FF               	movlw	255
  4343     148D  0792               	addwf	utoa@w^(0+384),f
  4344     148E  1803               	skipnc
  4345     148F  0A93               	incf	(utoa@w+1)^(0+384),f
  4346     1490  30FF               	movlw	255
  4347     1491  0793               	addwf	(utoa@w+1)^(0+384),f
  4348     1492                     l4109:
  4349                           
  4350                           ;C:\Program Files\Microchip\xc8\v2.50\pic\sources\c99\common\doprnt.c: 1042:         d =
      +                           d / 10;
  4351     1492  300A               	movlw	10
  4352     1493  1683               	bsf	3,5	;RP0=1, select bank1
  4353     1494  1303               	bcf	3,6	;RP1=0, select bank1
  4354     1495  00B2               	movwf	___lwdiv@divisor^(0+128)
  4355     1496  3000               	movlw	0
  4356     1497  00B3               	movwf	(___lwdiv@divisor^(0+128)+1)
  4357     1498  0852               	movf	(utoa@d+1)^(0+128),w
  4358     1499  00B5               	movwf	(___lwdiv@dividend+1)^(0+128)
  4359     149A  0851               	movf	utoa@d^(0+128),w
  4360     149B  00B4               	movwf	___lwdiv@dividend^(0+128)
  4361     149C  160A  158A  2599  160A  118A  	fcall	___lwdiv
  4362     14A1  1683               	bsf	3,5	;RP0=1, select bank1
  4363     14A2  1303               	bcf	3,6	;RP1=0, select bank1
  4364     14A3  0833               	movf	(?___lwdiv+1)^(0+128),w
  4365     14A4  00D2               	movwf	(utoa@d+1)^(0+128)
  4366     14A5  0832               	movf	?___lwdiv^(0+128),w
  4367     14A6  00D1               	movwf	utoa@d^(0+128)
  4368     14A7                     l4111:
  4369                           
  4370                           ;C:\Program Files\Microchip\xc8\v2.50\pic\sources\c99\common\doprnt.c: 1024:     while (
      +                          i && (d != 0
  4371     14A7  1683               	bsf	3,5	;RP0=1, select bank3
  4372     14A8  1703               	bsf	3,6	;RP1=1, select bank3
  4373     14A9  0814               	movf	utoa@i^(0+384),w
  4374     14AA  0415               	iorwf	(utoa@i+1)^(0+384),w
  4375     14AB  1903               	btfsc	3,2
  4376     14AC  2CAE               	goto	u5741
  4377     14AD  2CAF               	goto	u5740
  4378     14AE                     u5741:
  4379     14AE  2CDB               	goto	l4121
  4380     14AF                     u5740:
  4381     14AF                     l4113:
  4382     14AF  1683               	bsf	3,5	;RP0=1, select bank1
  4383     14B0  1303               	bcf	3,6	;RP1=0, select bank1
  4384     14B1  0851               	movf	utoa@d^(0+128),w
  4385     14B2  0452               	iorwf	(utoa@d+1)^(0+128),w
  4386     14B3  1D03               	btfss	3,2
  4387     14B4  2CB6               	goto	u5751
  4388     14B5  2CB7               	goto	u5750
  4389     14B6                     u5751:
  4390     14B6  2C64               	goto	l4101
  4391     14B7                     u5750:
  4392     14B7                     l4115:
  4393     14B7  1683               	bsf	3,5	;RP0=1, select bank3
  4394     14B8  1703               	bsf	3,6	;RP1=1, select bank3
  4395     14B9  0811               	movf	(utoa@p+1)^(0+384),w
  4396     14BA  3A80               	xorlw	128
  4397     14BB  00FF               	movwf	btemp+1
  4398     14BC  3080               	movlw	128
  4399     14BD  027F               	subwf	btemp+1,w
  4400     14BE  1D03               	skipz
  4401     14BF  2CC2               	goto	u5765
  4402     14C0  3001               	movlw	1
  4403     14C1  0210               	subwf	utoa@p^(0+384),w
  4404     14C2                     u5765:
  4405     14C2  1803               	skipnc
  4406     14C3  2CC5               	goto	u5761
  4407     14C4  2CC6               	goto	u5760
  4408     14C5                     u5761:
  4409     14C5  2C64               	goto	l4101
  4410     14C6                     u5760:
  4411     14C6                     l4117:
  4412     14C6  1683               	bsf	3,5	;RP0=1, select bank3
  4413     14C7  1703               	bsf	3,6	;RP1=1, select bank3
  4414     14C8  0813               	movf	(utoa@w+1)^(0+384),w
  4415     14C9  3A80               	xorlw	128
  4416     14CA  00FF               	movwf	btemp+1
  4417     14CB  3080               	movlw	128
  4418     14CC  027F               	subwf	btemp+1,w
  4419     14CD  1D03               	skipz
  4420     14CE  2CD1               	goto	u5775
  4421     14CF  3001               	movlw	1
  4422     14D0  0212               	subwf	utoa@w^(0+384),w
  4423     14D1                     u5775:
  4424     14D1  1C03               	skipc
  4425     14D2  2CD4               	goto	u5771
  4426     14D3  2CD5               	goto	u5770
  4427     14D4                     u5771:
  4428     14D4  2CDB               	goto	l4121
  4429     14D5                     u5770:
  4430     14D5                     l4119:
  4431     14D5  1683               	bsf	3,5	;RP0=1, select bank1
  4432     14D6  1303               	bcf	3,6	;RP1=0, select bank1
  4433     14D7  18DD               	btfsc	_flags^(0+128),1
  4434     14D8  2CDA               	goto	u5781
  4435     14D9  2CDB               	goto	u5780
  4436     14DA                     u5781:
  4437     14DA  2C64               	goto	l4101
  4438     14DB                     u5780:
  4439     14DB                     l4121:
  4440                           
  4441                           ;C:\Program Files\Microchip\xc8\v2.50\pic\sources\c99\common\doprnt.c: 1046:     return 
      +                          (int) pad(fp, &dbuf[i], w);
  4442     14DB  1683               	bsf	3,5	;RP0=1, select bank1
  4443     14DC  1303               	bcf	3,6	;RP1=0, select bank1
  4444     14DD  084F               	movf	utoa@fp^(0+128),w
  4445     14DE  00C7               	movwf	pad@fp^(0+128)
  4446     14DF  0850               	movf	(utoa@fp+1)^(0+128),w
  4447     14E0  00C8               	movwf	(pad@fp+1)^(0+128)
  4448     14E1  1683               	bsf	3,5	;RP0=1, select bank3
  4449     14E2  1703               	bsf	3,6	;RP1=1, select bank3
  4450     14E3  0814               	movf	utoa@i^(0+384),w
  4451     14E4  3E10               	addlw	(low (_dbuf| (0+256)))& (0+255)
  4452     14E5  1683               	bsf	3,5	;RP0=1, select bank1
  4453     14E6  1303               	bcf	3,6	;RP1=0, select bank1
  4454     14E7  00C9               	movwf	pad@buf^(0+128)
  4455     14E8  1683               	bsf	3,5	;RP0=1, select bank3
  4456     14E9  1703               	bsf	3,6	;RP1=1, select bank3
  4457     14EA  0813               	movf	(utoa@w+1)^(0+384),w
  4458     14EB  1683               	bsf	3,5	;RP0=1, select bank1
  4459     14EC  1303               	bcf	3,6	;RP1=0, select bank1
  4460     14ED  00CB               	movwf	(pad@p+1)^(0+128)
  4461     14EE  1683               	bsf	3,5	;RP0=1, select bank3
  4462     14EF  1703               	bsf	3,6	;RP1=1, select bank3
  4463     14F0  0812               	movf	utoa@w^(0+384),w
  4464     14F1  1683               	bsf	3,5	;RP0=1, select bank1
  4465     14F2  1303               	bcf	3,6	;RP1=0, select bank1
  4466     14F3  00CA               	movwf	pad@p^(0+128)
  4467     14F4  160A  158A  279A  160A  118A  	fcall	_pad
  4468     14F9  1683               	bsf	3,5	;RP0=1, select bank1
  4469     14FA  1303               	bcf	3,6	;RP1=0, select bank1
  4470     14FB  0848               	movf	(?_pad+1)^(0+128),w
  4471     14FC  00D0               	movwf	(?_utoa+1)^(0+128)
  4472     14FD  0847               	movf	?_pad^(0+128),w
  4473     14FE  00CF               	movwf	?_utoa^(0+128)
  4474     14FF                     l728:
  4475     14FF  0008               	return
  4476     1500                     __end_of_utoa:
  4477                           
  4478                           	psect	text6
  4479     1CE2                     __ptext6:	
  4480 ;; *************** function ___lwmod *****************
  4481 ;; Defined at:
  4482 ;;		line 5 in file "C:\Program Files\Microchip\xc8\v2.50\pic\sources\c99\common\lwmod.c"
  4483 ;; Parameters:    Size  Location     Type
  4484 ;;  divisor         2   18[BANK1 ] unsigned int 
  4485 ;;  dividend        2   20[BANK1 ] unsigned int 
  4486 ;; Auto vars:     Size  Location     Type
  4487 ;;  counter         1   22[BANK1 ] unsigned char 
  4488 ;; Return value:  Size  Location     Type
  4489 ;;                  2   18[BANK1 ] unsigned int 
  4490 ;; Registers used:
  4491 ;;		wreg, status,2, status,0
  4492 ;; Tracked objects:
  4493 ;;		On entry : 0/0
  4494 ;;		On exit  : 0/0
  4495 ;;		Unchanged: 0/0
  4496 ;; Data sizes:     COMMON   BANK0   BANK1   BANK3   BANK2
  4497 ;;      Params:         0       0       4       0       0
  4498 ;;      Locals:         0       0       1       0       0
  4499 ;;      Temps:          0       0       0       0       0
  4500 ;;      Totals:         0       0       5       0       0
  4501 ;;Total ram usage:        5 bytes
  4502 ;; Hardware stack levels used: 1
  4503 ;; Hardware stack levels required when called: 9
  4504 ;; This function calls:
  4505 ;;		Nothing
  4506 ;; This function is called by:
  4507 ;;		_utoa
  4508 ;; This function uses a non-reentrant model
  4509 ;;
  4510                           
  4511     1CE2                     ___lwmod:	
  4512                           ;psect for function ___lwmod
  4513                           
  4514     1CE2                     l3903:	
  4515                           ;incstack = 0
  4516 ;; hardware stack exceeded
  4517                           ; Regs used in ___lwmod: [wreg+status,2+status,0]
  4518                           
  4519     1CE2  1683               	bsf	3,5	;RP0=1, select bank1
  4520     1CE3  1303               	bcf	3,6	;RP1=0, select bank1
  4521     1CE4  0832               	movf	___lwmod@divisor^(0+128),w
  4522     1CE5  0433               	iorwf	(___lwmod@divisor+1)^(0+128),w
  4523     1CE6  1903               	btfsc	3,2
  4524     1CE7  2CE9               	goto	u5321
  4525     1CE8  2CEA               	goto	u5320
  4526     1CE9                     u5321:
  4527     1CE9  2D17               	goto	l3921
  4528     1CEA                     u5320:
  4529     1CEA                     l3905:
  4530     1CEA  3001               	movlw	1
  4531     1CEB  00B6               	movwf	___lwmod@counter^(0+128)
  4532     1CEC  2CF6               	goto	l3911
  4533     1CED                     l3907:
  4534     1CED  3001               	movlw	1
  4535     1CEE                     u5335:
  4536     1CEE  1003               	clrc
  4537     1CEF  0DB2               	rlf	___lwmod@divisor^(0+128),f
  4538     1CF0  0DB3               	rlf	(___lwmod@divisor+1)^(0+128),f
  4539     1CF1  3EFF               	addlw	-1
  4540     1CF2  1D03               	skipz
  4541     1CF3  2CEE               	goto	u5335
  4542     1CF4                     l3909:
  4543     1CF4  3001               	movlw	1
  4544     1CF5  07B6               	addwf	___lwmod@counter^(0+128),f
  4545     1CF6                     l3911:
  4546     1CF6  1FB3               	btfss	(___lwmod@divisor+1)^(0+128),7
  4547     1CF7  2CF9               	goto	u5341
  4548     1CF8  2CFA               	goto	u5340
  4549     1CF9                     u5341:
  4550     1CF9  2CED               	goto	l3907
  4551     1CFA                     u5340:
  4552     1CFA                     l3913:
  4553     1CFA  0833               	movf	(___lwmod@divisor+1)^(0+128),w
  4554     1CFB  0235               	subwf	(___lwmod@dividend+1)^(0+128),w
  4555     1CFC  1D03               	skipz
  4556     1CFD  2D00               	goto	u5355
  4557     1CFE  0832               	movf	___lwmod@divisor^(0+128),w
  4558     1CFF  0234               	subwf	___lwmod@dividend^(0+128),w
  4559     1D00                     u5355:
  4560     1D00  1C03               	skipc
  4561     1D01  2D03               	goto	u5351
  4562     1D02  2D04               	goto	u5350
  4563     1D03                     u5351:
  4564     1D03  2D0A               	goto	l3917
  4565     1D04                     u5350:
  4566     1D04                     l3915:
  4567     1D04  0832               	movf	___lwmod@divisor^(0+128),w
  4568     1D05  02B4               	subwf	___lwmod@dividend^(0+128),f
  4569     1D06  0833               	movf	(___lwmod@divisor+1)^(0+128),w
  4570     1D07  1C03               	skipc
  4571     1D08  03B5               	decf	(___lwmod@dividend+1)^(0+128),f
  4572     1D09  02B5               	subwf	(___lwmod@dividend+1)^(0+128),f
  4573     1D0A                     l3917:
  4574     1D0A  3001               	movlw	1
  4575     1D0B                     u5365:
  4576     1D0B  1003               	clrc
  4577     1D0C  0CB3               	rrf	(___lwmod@divisor+1)^(0+128),f
  4578     1D0D  0CB2               	rrf	___lwmod@divisor^(0+128),f
  4579     1D0E  3EFF               	addlw	-1
  4580     1D0F  1D03               	skipz
  4581     1D10  2D0B               	goto	u5365
  4582     1D11                     l3919:
  4583     1D11  3001               	movlw	1
  4584     1D12  02B6               	subwf	___lwmod@counter^(0+128),f
  4585     1D13  1D03               	btfss	3,2
  4586     1D14  2D16               	goto	u5371
  4587     1D15  2D17               	goto	u5370
  4588     1D16                     u5371:
  4589     1D16  2CFA               	goto	l3913
  4590     1D17                     u5370:
  4591     1D17                     l3921:
  4592     1D17  0835               	movf	(___lwmod@dividend+1)^(0+128),w
  4593     1D18  00B3               	movwf	(?___lwmod+1)^(0+128)
  4594     1D19  0834               	movf	___lwmod@dividend^(0+128),w
  4595     1D1A  00B2               	movwf	?___lwmod^(0+128)
  4596     1D1B                     l452:
  4597     1D1B  0008               	return
  4598     1D1C                     __end_of___lwmod:
  4599                           
  4600                           	psect	text7
  4601     1D99                     __ptext7:	
  4602 ;; *************** function ___lwdiv *****************
  4603 ;; Defined at:
  4604 ;;		line 5 in file "C:\Program Files\Microchip\xc8\v2.50\pic\sources\c99\common\lwdiv.c"
  4605 ;; Parameters:    Size  Location     Type
  4606 ;;  divisor         2   18[BANK1 ] unsigned int 
  4607 ;;  dividend        2   20[BANK1 ] unsigned int 
  4608 ;; Auto vars:     Size  Location     Type
  4609 ;;  quotient        2   23[BANK1 ] unsigned int 
  4610 ;;  counter         1   22[BANK1 ] unsigned char 
  4611 ;; Return value:  Size  Location     Type
  4612 ;;                  2   18[BANK1 ] unsigned int 
  4613 ;; Registers used:
  4614 ;;		wreg, status,2, status,0
  4615 ;; Tracked objects:
  4616 ;;		On entry : 0/0
  4617 ;;		On exit  : 0/0
  4618 ;;		Unchanged: 0/0
  4619 ;; Data sizes:     COMMON   BANK0   BANK1   BANK3   BANK2
  4620 ;;      Params:         0       0       4       0       0
  4621 ;;      Locals:         0       0       3       0       0
  4622 ;;      Temps:          0       0       0       0       0
  4623 ;;      Totals:         0       0       7       0       0
  4624 ;;Total ram usage:        7 bytes
  4625 ;; Hardware stack levels used: 1
  4626 ;; Hardware stack levels required when called: 9
  4627 ;; This function calls:
  4628 ;;		Nothing
  4629 ;; This function is called by:
  4630 ;;		_utoa
  4631 ;; This function uses a non-reentrant model
  4632 ;;
  4633                           
  4634     1D99                     ___lwdiv:	
  4635                           ;psect for function ___lwdiv
  4636                           
  4637     1D99                     l3877:	
  4638                           ;incstack = 0
  4639 ;; hardware stack exceeded
  4640                           ; Regs used in ___lwdiv: [wreg+status,2+status,0]
  4641                           
  4642     1D99  1683               	bsf	3,5	;RP0=1, select bank1
  4643     1D9A  1303               	bcf	3,6	;RP1=0, select bank1
  4644     1D9B  01B7               	clrf	___lwdiv@quotient^(0+128)
  4645     1D9C  01B8               	clrf	(___lwdiv@quotient+1)^(0+128)
  4646     1D9D                     l3879:
  4647     1D9D  0832               	movf	___lwdiv@divisor^(0+128),w
  4648     1D9E  0433               	iorwf	(___lwdiv@divisor+1)^(0+128),w
  4649     1D9F  1903               	btfsc	3,2
  4650     1DA0  2DA2               	goto	u5251
  4651     1DA1  2DA3               	goto	u5250
  4652     1DA2                     u5251:
  4653     1DA2  2DD8               	goto	l3899
  4654     1DA3                     u5250:
  4655     1DA3                     l3881:
  4656     1DA3  3001               	movlw	1
  4657     1DA4  00B6               	movwf	___lwdiv@counter^(0+128)
  4658     1DA5  2DAF               	goto	l3887
  4659     1DA6                     l3883:
  4660     1DA6  3001               	movlw	1
  4661     1DA7                     u5265:
  4662     1DA7  1003               	clrc
  4663     1DA8  0DB2               	rlf	___lwdiv@divisor^(0+128),f
  4664     1DA9  0DB3               	rlf	(___lwdiv@divisor+1)^(0+128),f
  4665     1DAA  3EFF               	addlw	-1
  4666     1DAB  1D03               	skipz
  4667     1DAC  2DA7               	goto	u5265
  4668     1DAD                     l3885:
  4669     1DAD  3001               	movlw	1
  4670     1DAE  07B6               	addwf	___lwdiv@counter^(0+128),f
  4671     1DAF                     l3887:
  4672     1DAF  1FB3               	btfss	(___lwdiv@divisor+1)^(0+128),7
  4673     1DB0  2DB2               	goto	u5271
  4674     1DB1  2DB3               	goto	u5270
  4675     1DB2                     u5271:
  4676     1DB2  2DA6               	goto	l3883
  4677     1DB3                     u5270:
  4678     1DB3                     l3889:
  4679     1DB3  3001               	movlw	1
  4680     1DB4                     u5285:
  4681     1DB4  1003               	clrc
  4682     1DB5  0DB7               	rlf	___lwdiv@quotient^(0+128),f
  4683     1DB6  0DB8               	rlf	(___lwdiv@quotient+1)^(0+128),f
  4684     1DB7  3EFF               	addlw	-1
  4685     1DB8  1D03               	skipz
  4686     1DB9  2DB4               	goto	u5285
  4687     1DBA  0833               	movf	(___lwdiv@divisor+1)^(0+128),w
  4688     1DBB  0235               	subwf	(___lwdiv@dividend+1)^(0+128),w
  4689     1DBC  1D03               	skipz
  4690     1DBD  2DC0               	goto	u5295
  4691     1DBE  0832               	movf	___lwdiv@divisor^(0+128),w
  4692     1DBF  0234               	subwf	___lwdiv@dividend^(0+128),w
  4693     1DC0                     u5295:
  4694     1DC0  1C03               	skipc
  4695     1DC1  2DC3               	goto	u5291
  4696     1DC2  2DC4               	goto	u5290
  4697     1DC3                     u5291:
  4698     1DC3  2DCB               	goto	l3895
  4699     1DC4                     u5290:
  4700     1DC4                     l3891:
  4701     1DC4  0832               	movf	___lwdiv@divisor^(0+128),w
  4702     1DC5  02B4               	subwf	___lwdiv@dividend^(0+128),f
  4703     1DC6  0833               	movf	(___lwdiv@divisor+1)^(0+128),w
  4704     1DC7  1C03               	skipc
  4705     1DC8  03B5               	decf	(___lwdiv@dividend+1)^(0+128),f
  4706     1DC9  02B5               	subwf	(___lwdiv@dividend+1)^(0+128),f
  4707     1DCA                     l3893:
  4708     1DCA  1437               	bsf	___lwdiv@quotient^(0+128),0
  4709     1DCB                     l3895:
  4710     1DCB  3001               	movlw	1
  4711     1DCC                     u5305:
  4712     1DCC  1003               	clrc
  4713     1DCD  0CB3               	rrf	(___lwdiv@divisor+1)^(0+128),f
  4714     1DCE  0CB2               	rrf	___lwdiv@divisor^(0+128),f
  4715     1DCF  3EFF               	addlw	-1
  4716     1DD0  1D03               	skipz
  4717     1DD1  2DCC               	goto	u5305
  4718     1DD2                     l3897:
  4719     1DD2  3001               	movlw	1
  4720     1DD3  02B6               	subwf	___lwdiv@counter^(0+128),f
  4721     1DD4  1D03               	btfss	3,2
  4722     1DD5  2DD7               	goto	u5311
  4723     1DD6  2DD8               	goto	u5310
  4724     1DD7                     u5311:
  4725     1DD7  2DB3               	goto	l3889
  4726     1DD8                     u5310:
  4727     1DD8                     l3899:
  4728     1DD8  0838               	movf	(___lwdiv@quotient+1)^(0+128),w
  4729     1DD9  00B3               	movwf	(?___lwdiv+1)^(0+128)
  4730     1DDA  0837               	movf	___lwdiv@quotient^(0+128),w
  4731     1DDB  00B2               	movwf	?___lwdiv^(0+128)
  4732     1DDC                     l442:
  4733     1DDC  0008               	return
  4734     1DDD                     __end_of___lwdiv:
  4735                           
  4736                           	psect	text8
  4737     11D6                     __ptext8:	
  4738 ;; *************** function _read_prec_or_width *****************
  4739 ;; Defined at:
  4740 ;;		line 1158 in file "C:\Program Files\Microchip\xc8\v2.50\pic\sources\c99\common\doprnt.c"
  4741 ;; Parameters:    Size  Location     Type
  4742 ;;  fmt             1   24[BANK1 ] PTR PTR const unsigned c
  4743 ;;		 -> vfprintf@cfmt(2), 
  4744 ;;  ap              1   25[BANK1 ] PTR PTR void [1]
  4745 ;;		 -> sprintf@ap(1), 
  4746 ;; Auto vars:     Size  Location     Type
  4747 ;;  c               1   28[BANK1 ] unsigned char 
  4748 ;;  n               2   29[BANK1 ] int 
  4749 ;; Return value:  Size  Location     Type
  4750 ;;                  2   24[BANK1 ] int 
  4751 ;; Registers used:
  4752 ;;		wreg, fsr0l, fsr0h, status,2, status,0, btemp+1, pclath, cstack
  4753 ;; Tracked objects:
  4754 ;;		On entry : 0/0
  4755 ;;		On exit  : 0/0
  4756 ;;		Unchanged: 0/0
  4757 ;; Data sizes:     COMMON   BANK0   BANK1   BANK3   BANK2
  4758 ;;      Params:         0       0       2       0       0
  4759 ;;      Locals:         0       0       3       0       0
  4760 ;;      Temps:          0       0       2       0       0
  4761 ;;      Totals:         0       0       7       0       0
  4762 ;;Total ram usage:        7 bytes
  4763 ;; Hardware stack levels used: 1
  4764 ;; Hardware stack levels required when called: 10
  4765 ;; This function calls:
  4766 ;;		___wmul
  4767 ;; This function is called by:
  4768 ;;		_vfpfcnvrt
  4769 ;; This function uses a non-reentrant model
  4770 ;;
  4771                           
  4772     11D6                     _read_prec_or_width:	
  4773                           ;psect for function _read_prec_or_width
  4774                           
  4775     11D6                     l2967:	
  4776                           ;incstack = 0
  4777 ;; hardware stack exceeded
  4778                           ; Regs used in _read_prec_or_width: [wreg-fsr0h+status,2+status,0+btemp+1+pclath+cstack]
  4779                           
  4780                           
  4781                           ;C:\Program Files\Microchip\xc8\v2.50\pic\sources\c99\common\doprnt.c: 1159:     int n =
      +                           0;
  4782     11D6  1683               	bsf	3,5	;RP0=1, select bank1
  4783     11D7  1303               	bcf	3,6	;RP1=0, select bank1
  4784     11D8  01BD               	clrf	read_prec_or_width@n^(0+128)
  4785     11D9  01BE               	clrf	(read_prec_or_width@n+1)^(0+128)
  4786     11DA                     l2969:
  4787                           
  4788                           ;C:\Program Files\Microchip\xc8\v2.50\pic\sources\c99\common\doprnt.c: 1160:     if ((*f
      +                          mt)[0] == '*') {
  4789     11DA  0838               	movf	read_prec_or_width@fmt^(0+128),w
  4790     11DB  0084               	movwf	4
  4791     11DC  1383               	bcf	3,7	;select IRP bank0
  4792     11DD  0800               	movf	0,w
  4793     11DE  00BA               	movwf	??_read_prec_or_width^(0+128)
  4794     11DF  0A84               	incf	4,f
  4795     11E0  0800               	movf	0,w
  4796     11E1  00BB               	movwf	(??_read_prec_or_width^(0+128)+1)
  4797     11E2  083B               	movf	(??_read_prec_or_width+1)^(0+128),w
  4798     11E3  1283               	bcf	3,5	;RP0=0, select bank0
  4799     11E4  1303               	bcf	3,6	;RP1=0, select bank0
  4800     11E5  00FF               	movwf	btemp+1
  4801     11E6  1683               	bsf	3,5	;RP0=1, select bank1
  4802     11E7  1303               	bcf	3,6	;RP1=0, select bank1
  4803     11E8  083A               	movf	??_read_prec_or_width^(0+128),w
  4804     11E9  0084               	movwf	4
  4805     11EA  1283               	bcf	3,5	;RP0=0, select bank0
  4806     11EB  1303               	bcf	3,6	;RP1=0, select bank0
  4807     11EC  160A  158A  2000  160A  118A  	fcall	stringtab
  4808     11F1  3A2A               	xorlw	42
  4809     11F2  1D03               	skipz
  4810     11F3  29F5               	goto	u3981
  4811     11F4  29F6               	goto	u3980
  4812     11F5                     u3981:
  4813     11F5  2A2E               	goto	l2979
  4814     11F6                     u3980:
  4815     11F6                     l2971:
  4816                           
  4817                           ;C:\Program Files\Microchip\xc8\v2.50\pic\sources\c99\common\doprnt.c: 1161:         ++*
      +                          fmt;
  4818     11F6  1683               	bsf	3,5	;RP0=1, select bank1
  4819     11F7  1303               	bcf	3,6	;RP1=0, select bank1
  4820     11F8  0838               	movf	read_prec_or_width@fmt^(0+128),w
  4821     11F9  0084               	movwf	4
  4822     11FA  3001               	movlw	1
  4823     11FB  1383               	bcf	3,7	;select IRP bank0
  4824     11FC  0780               	addwf	0,f
  4825     11FD  0A84               	incf	4,f
  4826     11FE  1803               	skipnc
  4827     11FF  0A80               	incf	0,f
  4828     1200                     l2973:
  4829                           
  4830                           ;C:\Program Files\Microchip\xc8\v2.50\pic\sources\c99\common\doprnt.c: 1162:         n =
      +                           (*(int *)__va_arg(*(int **)*ap, (int)0));
  4831     1200  0839               	movf	read_prec_or_width@ap^(0+128),w
  4832     1201  0084               	movwf	4
  4833     1202  1783               	bsf	3,7	;select IRP bank2
  4834     1203  0800               	movf	0,w
  4835     1204  00FF               	movwf	btemp+1
  4836     1205  3002               	movlw	2
  4837     1206  0780               	addwf	0,f
  4838     1207  087F               	movf	btemp+1,w
  4839     1208  0084               	movwf	4
  4840     1209  0800               	movf	0,w
  4841     120A  00BD               	movwf	read_prec_or_width@n^(0+128)
  4842     120B  0A84               	incf	4,f
  4843     120C  0800               	movf	0,w
  4844     120D  00BE               	movwf	(read_prec_or_width@n+1)^(0+128)
  4845                           
  4846                           ;C:\Program Files\Microchip\xc8\v2.50\pic\sources\c99\common\doprnt.c: 1163:     } else 
      +                          {
  4847     120E  2A51               	goto	l2981
  4848     120F                     l2975:
  4849                           
  4850                           ;C:\Program Files\Microchip\xc8\v2.50\pic\sources\c99\common\doprnt.c: 1166:            
      +                           n = n * 10 + c;
  4851     120F  083E               	movf	(read_prec_or_width@n+1)^(0+128),w
  4852     1210  00B3               	movwf	(___wmul@multiplier+1)^(0+128)
  4853     1211  083D               	movf	read_prec_or_width@n^(0+128),w
  4854     1212  00B2               	movwf	___wmul@multiplier^(0+128)
  4855     1213  300A               	movlw	10
  4856     1214  00B4               	movwf	___wmul@multiplicand^(0+128)
  4857     1215  3000               	movlw	0
  4858     1216  00B5               	movwf	(___wmul@multiplicand^(0+128)+1)
  4859     1217  160A  158A  2398  160A  118A  	fcall	___wmul
  4860     121C  1683               	bsf	3,5	;RP0=1, select bank1
  4861     121D  1303               	bcf	3,6	;RP1=0, select bank1
  4862     121E  083C               	movf	read_prec_or_width@c^(0+128),w
  4863     121F  0732               	addwf	?___wmul^(0+128),w
  4864     1220  00BD               	movwf	read_prec_or_width@n^(0+128)
  4865     1221  3000               	movlw	0
  4866     1222  1803               	skipnc
  4867     1223  3001               	movlw	1
  4868     1224  0733               	addwf	(?___wmul+1)^(0+128),w
  4869     1225  00BE               	movwf	(read_prec_or_width@n+1)^(0+128)
  4870     1226                     l2977:
  4871                           
  4872                           ;C:\Program Files\Microchip\xc8\v2.50\pic\sources\c99\common\doprnt.c: 1167:            
      +                           ++*fmt;
  4873     1226  0838               	movf	read_prec_or_width@fmt^(0+128),w
  4874     1227  0084               	movwf	4
  4875     1228  3001               	movlw	1
  4876     1229  1383               	bcf	3,7	;select IRP bank0
  4877     122A  0780               	addwf	0,f
  4878     122B  0A84               	incf	4,f
  4879     122C  1803               	skipnc
  4880     122D  0A80               	incf	0,f
  4881     122E                     l2979:
  4882                           
  4883                           ;C:\Program Files\Microchip\xc8\v2.50\pic\sources\c99\common\doprnt.c: 1165:         whi
      +                          le ((c = ((unsigned)(*fmt)[0]) - '0') < 10) {
  4884     122E  1683               	bsf	3,5	;RP0=1, select bank1
  4885     122F  1303               	bcf	3,6	;RP1=0, select bank1
  4886     1230  0838               	movf	read_prec_or_width@fmt^(0+128),w
  4887     1231  0084               	movwf	4
  4888     1232  1383               	bcf	3,7	;select IRP bank0
  4889     1233  0800               	movf	0,w
  4890     1234  00BA               	movwf	??_read_prec_or_width^(0+128)
  4891     1235  0A84               	incf	4,f
  4892     1236  0800               	movf	0,w
  4893     1237  00BB               	movwf	(??_read_prec_or_width^(0+128)+1)
  4894     1238  083B               	movf	(??_read_prec_or_width+1)^(0+128),w
  4895     1239  1283               	bcf	3,5	;RP0=0, select bank0
  4896     123A  1303               	bcf	3,6	;RP1=0, select bank0
  4897     123B  00FF               	movwf	btemp+1
  4898     123C  1683               	bsf	3,5	;RP0=1, select bank1
  4899     123D  1303               	bcf	3,6	;RP1=0, select bank1
  4900     123E  083A               	movf	??_read_prec_or_width^(0+128),w
  4901     123F  0084               	movwf	4
  4902     1240  1283               	bcf	3,5	;RP0=0, select bank0
  4903     1241  1303               	bcf	3,6	;RP1=0, select bank0
  4904     1242  160A  158A  2000  160A  118A  	fcall	stringtab
  4905     1247  3ED0               	addlw	208
  4906     1248  1683               	bsf	3,5	;RP0=1, select bank1
  4907     1249  1303               	bcf	3,6	;RP1=0, select bank1
  4908     124A  00BC               	movwf	read_prec_or_width@c^(0+128)
  4909     124B  300A               	movlw	10
  4910     124C  023C               	subwf	read_prec_or_width@c^(0+128),w
  4911     124D  1C03               	skipc
  4912     124E  2A50               	goto	u3991
  4913     124F  2A51               	goto	u3990
  4914     1250                     u3991:
  4915     1250  2A0F               	goto	l2975
  4916     1251                     u3990:
  4917     1251                     l2981:
  4918                           
  4919                           ;C:\Program Files\Microchip\xc8\v2.50\pic\sources\c99\common\doprnt.c: 1170:     return 
      +                          n;
  4920     1251  083E               	movf	(read_prec_or_width@n+1)^(0+128),w
  4921     1252  00B9               	movwf	(?_read_prec_or_width+1)^(0+128)
  4922     1253  083D               	movf	read_prec_or_width@n^(0+128),w
  4923     1254  00B8               	movwf	?_read_prec_or_width^(0+128)
  4924     1255                     l759:
  4925     1255  0008               	return
  4926     1256                     __end_of_read_prec_or_width:
  4927                           
  4928                           	psect	text9
  4929     1B98                     __ptext9:	
  4930 ;; *************** function ___wmul *****************
  4931 ;; Defined at:
  4932 ;;		line 15 in file "C:\Program Files\Microchip\xc8\v2.50\pic\sources\c99\common\Umul16.c"
  4933 ;; Parameters:    Size  Location     Type
  4934 ;;  multiplier      2   18[BANK1 ] unsigned int 
  4935 ;;  multiplicand    2   20[BANK1 ] unsigned int 
  4936 ;; Auto vars:     Size  Location     Type
  4937 ;;  product         2   22[BANK1 ] unsigned int 
  4938 ;; Return value:  Size  Location     Type
  4939 ;;                  2   18[BANK1 ] unsigned int 
  4940 ;; Registers used:
  4941 ;;		wreg, status,2, status,0
  4942 ;; Tracked objects:
  4943 ;;		On entry : 0/0
  4944 ;;		On exit  : 0/0
  4945 ;;		Unchanged: 0/0
  4946 ;; Data sizes:     COMMON   BANK0   BANK1   BANK3   BANK2
  4947 ;;      Params:         0       0       4       0       0
  4948 ;;      Locals:         0       0       2       0       0
  4949 ;;      Temps:          0       0       0       0       0
  4950 ;;      Totals:         0       0       6       0       0
  4951 ;;Total ram usage:        6 bytes
  4952 ;; Hardware stack levels used: 1
  4953 ;; Hardware stack levels required when called: 9
  4954 ;; This function calls:
  4955 ;;		Nothing
  4956 ;; This function is called by:
  4957 ;;		_read_prec_or_width
  4958 ;; This function uses a non-reentrant model
  4959 ;;
  4960                           
  4961     1B98                     ___wmul:	
  4962                           ;psect for function ___wmul
  4963                           
  4964     1B98                     l2383:	
  4965                           ;incstack = 0
  4966 ;; hardware stack exceeded
  4967                           ; Regs used in ___wmul: [wreg+status,2+status,0]
  4968                           
  4969     1B98  1683               	bsf	3,5	;RP0=1, select bank1
  4970     1B99  1303               	bcf	3,6	;RP1=0, select bank1
  4971     1B9A  01B6               	clrf	___wmul@product^(0+128)
  4972     1B9B  01B7               	clrf	(___wmul@product+1)^(0+128)
  4973     1B9C                     l2385:
  4974     1B9C  1C32               	btfss	___wmul@multiplier^(0+128),0
  4975     1B9D  2B9F               	goto	u2641
  4976     1B9E  2BA0               	goto	u2640
  4977     1B9F                     u2641:
  4978     1B9F  2BA6               	goto	l162
  4979     1BA0                     u2640:
  4980     1BA0                     l2387:
  4981     1BA0  0834               	movf	___wmul@multiplicand^(0+128),w
  4982     1BA1  07B6               	addwf	___wmul@product^(0+128),f
  4983     1BA2  1803               	skipnc
  4984     1BA3  0AB7               	incf	(___wmul@product+1)^(0+128),f
  4985     1BA4  0835               	movf	(___wmul@multiplicand+1)^(0+128),w
  4986     1BA5  07B7               	addwf	(___wmul@product+1)^(0+128),f
  4987     1BA6                     l162:
  4988     1BA6  3001               	movlw	1
  4989     1BA7                     u2655:
  4990     1BA7  1003               	clrc
  4991     1BA8  0DB4               	rlf	___wmul@multiplicand^(0+128),f
  4992     1BA9  0DB5               	rlf	(___wmul@multiplicand+1)^(0+128),f
  4993     1BAA  3EFF               	addlw	-1
  4994     1BAB  1D03               	skipz
  4995     1BAC  2BA7               	goto	u2655
  4996     1BAD                     l2389:
  4997     1BAD  3001               	movlw	1
  4998     1BAE                     u2665:
  4999     1BAE  1003               	clrc
  5000     1BAF  0CB3               	rrf	(___wmul@multiplier+1)^(0+128),f
  5001     1BB0  0CB2               	rrf	___wmul@multiplier^(0+128),f
  5002     1BB1  3EFF               	addlw	-1
  5003     1BB2  1D03               	skipz
  5004     1BB3  2BAE               	goto	u2665
  5005     1BB4                     l2391:
  5006     1BB4  0832               	movf	___wmul@multiplier^(0+128),w
  5007     1BB5  0433               	iorwf	(___wmul@multiplier+1)^(0+128),w
  5008     1BB6  1D03               	btfss	3,2
  5009     1BB7  2BB9               	goto	u2671
  5010     1BB8  2BBA               	goto	u2670
  5011     1BB9                     u2671:
  5012     1BB9  2B9C               	goto	l2385
  5013     1BBA                     u2670:
  5014     1BBA                     l2393:
  5015     1BBA  0837               	movf	(___wmul@product+1)^(0+128),w
  5016     1BBB  00B3               	movwf	(?___wmul+1)^(0+128)
  5017     1BBC  0836               	movf	___wmul@product^(0+128),w
  5018     1BBD  00B2               	movwf	?___wmul^(0+128)
  5019     1BBE                     l164:
  5020     1BBE  0008               	return
  5021     1BBF                     __end_of___wmul:
  5022                           
  5023                           	psect	text10
  5024     0705                     __ptext10:	
  5025 ;; *************** function _otoa *****************
  5026 ;; Defined at:
  5027 ;;		line 872 in file "C:\Program Files\Microchip\xc8\v2.50\pic\sources\c99\common\doprnt.c"
  5028 ;; Parameters:    Size  Location     Type
  5029 ;;  fp              2   47[BANK1 ] PTR struct _IO_FILE
  5030 ;;		 -> sprintf@f(11), 
  5031 ;;  d               2   49[BANK1 ] unsigned int 
  5032 ;; Auto vars:     Size  Location     Type
  5033 ;;  i               2    5[BANK3 ] int 
  5034 ;;  w               2    2[BANK3 ] int 
  5035 ;;  p               2    0[BANK3 ] int 
  5036 ;;  t               1    4[BANK3 ] unsigned char 
  5037 ;; Return value:  Size  Location     Type
  5038 ;;                  2   47[BANK1 ] int 
  5039 ;; Registers used:
  5040 ;;		wreg, fsr0l, fsr0h, status,2, status,0, btemp+1, pclath, cstack
  5041 ;; Tracked objects:
  5042 ;;		On entry : 0/0
  5043 ;;		On exit  : 0/0
  5044 ;;		Unchanged: 0/0
  5045 ;; Data sizes:     COMMON   BANK0   BANK1   BANK3   BANK2
  5046 ;;      Params:         0       0       4       0       0
  5047 ;;      Locals:         0       0       0       7       0
  5048 ;;      Temps:          0       0       2       0       0
  5049 ;;      Totals:         0       0       6       7       0
  5050 ;;Total ram usage:       13 bytes
  5051 ;; Hardware stack levels used: 1
  5052 ;; Hardware stack levels required when called: 13
  5053 ;; This function calls:
  5054 ;;		_pad
  5055 ;; This function is called by:
  5056 ;;		_vfpfcnvrt
  5057 ;; This function uses a non-reentrant model
  5058 ;;
  5059                           
  5060     0705                     _otoa:	
  5061                           ;psect for function _otoa
  5062                           
  5063     0705                     l4039:	
  5064                           ;incstack = 0
  5065 ;; hardware stack exceeded
  5066                           ; Regs used in _otoa: [wreg-fsr0h+status,2+status,0+btemp+1+pclath+cstack]
  5067                           
  5068                           
  5069                           ;C:\Program Files\Microchip\xc8\v2.50\pic\sources\c99\common\doprnt.c: 872: static int o
      +                          toa(FILE *fp, vfpf_uint_t d);C:\Program Files\Microchip\xc8\v2.50\pic\sources\c99\common
      +                          \doprnt.c: 873: {;C:\Program Files\Microchip\xc8\v2.50\pic\sources\c99\common\doprnt.c: 
      +                          875:  char t;;C:\Program Files\Microchip\xc8\v2.50\pic\sources\c99\common\doprnt.c: 877:
      +                               int i, w;;C:\Program Files\Microchip\xc8\v2.50\pic\sources\c99\common\doprnt.c: 879
      +                          :  int p;;C:\Program Files\Microchip\xc8\v2.50\pic\sources\c99\common\doprnt.c: 887:    
      +                           if (!(prec < 0)) {
  5070     0705  1683               	bsf	3,5	;RP0=1, select bank1
  5071     0706  1303               	bcf	3,6	;RP1=0, select bank1
  5072     0707  1BDA               	btfsc	(_prec+1)^(0+128),7
  5073     0708  2F0A               	goto	u5621
  5074     0709  2F0B               	goto	u5620
  5075     070A                     u5621:
  5076     070A  2F0D               	goto	l4043
  5077     070B                     u5620:
  5078     070B                     l4041:
  5079                           
  5080                           ;C:\Program Files\Microchip\xc8\v2.50\pic\sources\c99\common\doprnt.c: 888:         flag
      +                          s &= ~(1 << 1);
  5081     070B  30FD               	movlw	253
  5082     070C  05DD               	andwf	_flags^(0+128),f
  5083     070D                     l4043:
  5084                           
  5085                           ;C:\Program Files\Microchip\xc8\v2.50\pic\sources\c99\common\doprnt.c: 891:     p = (0 <
      +                          = prec) ? prec : 1;
  5086     070D  1FDA               	btfss	(_prec+1)^(0+128),7
  5087     070E  2F10               	goto	u5631
  5088     070F  2F11               	goto	u5630
  5089     0710                     u5631:
  5090     0710  2F18               	goto	l4047
  5091     0711                     u5630:
  5092     0711                     l4045:
  5093     0711  3001               	movlw	1
  5094     0712  1683               	bsf	3,5	;RP0=1, select bank3
  5095     0713  1703               	bsf	3,6	;RP1=1, select bank3
  5096     0714  0090               	movwf	otoa@p^(0+384)
  5097     0715  3000               	movlw	0
  5098     0716  0091               	movwf	(otoa@p^(0+384)+1)
  5099     0717  2F22               	goto	l702
  5100     0718                     l4047:
  5101     0718  085A               	movf	(_prec+1)^(0+128),w
  5102     0719  1683               	bsf	3,5	;RP0=1, select bank3
  5103     071A  1703               	bsf	3,6	;RP1=1, select bank3
  5104     071B  0091               	movwf	(otoa@p+1)^(0+384)
  5105     071C  1683               	bsf	3,5	;RP0=1, select bank1
  5106     071D  1303               	bcf	3,6	;RP1=0, select bank1
  5107     071E  0859               	movf	_prec^(0+128),w
  5108     071F  1683               	bsf	3,5	;RP0=1, select bank3
  5109     0720  1703               	bsf	3,6	;RP1=1, select bank3
  5110     0721  0090               	movwf	otoa@p^(0+384)
  5111     0722                     l702:
  5112                           
  5113                           ;C:\Program Files\Microchip\xc8\v2.50\pic\sources\c99\common\doprnt.c: 893:     w = widt
      +                          h;
  5114     0722  1683               	bsf	3,5	;RP0=1, select bank1
  5115     0723  1303               	bcf	3,6	;RP1=0, select bank1
  5116     0724  0858               	movf	(_width+1)^(0+128),w
  5117     0725  1683               	bsf	3,5	;RP0=1, select bank3
  5118     0726  1703               	bsf	3,6	;RP1=1, select bank3
  5119     0727  0093               	movwf	(otoa@w+1)^(0+384)
  5120     0728  1683               	bsf	3,5	;RP0=1, select bank1
  5121     0729  1303               	bcf	3,6	;RP1=0, select bank1
  5122     072A  0857               	movf	_width^(0+128),w
  5123     072B  1683               	bsf	3,5	;RP0=1, select bank3
  5124     072C  1703               	bsf	3,6	;RP1=1, select bank3
  5125     072D  0092               	movwf	otoa@w^(0+384)
  5126                           
  5127                           ;C:\Program Files\Microchip\xc8\v2.50\pic\sources\c99\common\doprnt.c: 896:     i = size
      +                          of(dbuf) - 1;
  5128     072E  301F               	movlw	31
  5129     072F  0095               	movwf	otoa@i^(0+384)
  5130     0730  3000               	movlw	0
  5131     0731  0096               	movwf	(otoa@i^(0+384)+1)
  5132     0732                     l4049:
  5133                           
  5134                           ;C:\Program Files\Microchip\xc8\v2.50\pic\sources\c99\common\doprnt.c: 897:     dbuf[i] 
      +                          = '\0';
  5135     0732  1283               	bcf	3,5	;RP0=0, select bank2
  5136     0733  1703               	bsf	3,6	;RP1=1, select bank2
  5137     0734  01AF               	clrf	(_dbuf^(0+256)+31)
  5138     0735                     l4051:
  5139                           
  5140                           ;C:\Program Files\Microchip\xc8\v2.50\pic\sources\c99\common\doprnt.c: 899:     t = 0;
  5141     0735  1683               	bsf	3,5	;RP0=1, select bank3
  5142     0736  1703               	bsf	3,6	;RP1=1, select bank3
  5143     0737  0194               	clrf	otoa@t^(0+384)
  5144                           
  5145                           ;C:\Program Files\Microchip\xc8\v2.50\pic\sources\c99\common\doprnt.c: 901:     while (!
      +                          (i < 1) && (d != 0
  5146     0738  2F6F               	goto	l4065
  5147     0739                     l4053:
  5148                           
  5149                           ;C:\Program Files\Microchip\xc8\v2.50\pic\sources\c99\common\doprnt.c: 910:     )) {;C:\
      +                          Program Files\Microchip\xc8\v2.50\pic\sources\c99\common\doprnt.c: 911:         --i;
  5150     0739  30FF               	movlw	255
  5151     073A  1683               	bsf	3,5	;RP0=1, select bank3
  5152     073B  1703               	bsf	3,6	;RP1=1, select bank3
  5153     073C  0795               	addwf	otoa@i^(0+384),f
  5154     073D  1803               	skipnc
  5155     073E  0A96               	incf	(otoa@i+1)^(0+384),f
  5156     073F  30FF               	movlw	255
  5157     0740  0796               	addwf	(otoa@i+1)^(0+384),f
  5158                           
  5159                           ;C:\Program Files\Microchip\xc8\v2.50\pic\sources\c99\common\doprnt.c: 913:         t = 
      +                          d & 07;
  5160     0741  1683               	bsf	3,5	;RP0=1, select bank1
  5161     0742  1303               	bcf	3,6	;RP1=0, select bank1
  5162     0743  0851               	movf	otoa@d^(0+128),w
  5163     0744  1683               	bsf	3,5	;RP0=1, select bank3
  5164     0745  1703               	bsf	3,6	;RP1=1, select bank3
  5165     0746  0094               	movwf	otoa@t^(0+384)
  5166     0747                     l4055:
  5167     0747  3007               	movlw	7
  5168     0748  0594               	andwf	otoa@t^(0+384),f
  5169     0749                     l4057:
  5170                           
  5171                           ;C:\Program Files\Microchip\xc8\v2.50\pic\sources\c99\common\doprnt.c: 914:         dbuf
      +                          [i] = (char)((int)'0' + t);
  5172     0749  0815               	movf	otoa@i^(0+384),w
  5173     074A  3E10               	addlw	(low (_dbuf| (0+256)))& (0+255)
  5174     074B  0084               	movwf	4
  5175     074C  0814               	movf	otoa@t^(0+384),w
  5176     074D  3E30               	addlw	48
  5177     074E  1783               	bsf	3,7	;select IRP bank2
  5178     074F  0080               	movwf	0
  5179     0750                     l4059:
  5180                           
  5181                           ;C:\Program Files\Microchip\xc8\v2.50\pic\sources\c99\common\doprnt.c: 919:         --p;
  5182     0750  30FF               	movlw	255
  5183     0751  0790               	addwf	otoa@p^(0+384),f
  5184     0752  1803               	skipnc
  5185     0753  0A91               	incf	(otoa@p+1)^(0+384),f
  5186     0754  30FF               	movlw	255
  5187     0755  0791               	addwf	(otoa@p+1)^(0+384),f
  5188     0756                     l4061:
  5189                           
  5190                           ;C:\Program Files\Microchip\xc8\v2.50\pic\sources\c99\common\doprnt.c: 923:         --w;
  5191     0756  30FF               	movlw	255
  5192     0757  0792               	addwf	otoa@w^(0+384),f
  5193     0758  1803               	skipnc
  5194     0759  0A93               	incf	(otoa@w+1)^(0+384),f
  5195     075A  30FF               	movlw	255
  5196     075B  0793               	addwf	(otoa@w+1)^(0+384),f
  5197     075C                     l4063:
  5198                           
  5199                           ;C:\Program Files\Microchip\xc8\v2.50\pic\sources\c99\common\doprnt.c: 924:         d = 
      +                          d >> 3;
  5200     075C  1683               	bsf	3,5	;RP0=1, select bank1
  5201     075D  1303               	bcf	3,6	;RP1=0, select bank1
  5202     075E  0852               	movf	(otoa@d+1)^(0+128),w
  5203     075F  00D4               	movwf	(??_otoa^(0+128)+1)
  5204     0760  0851               	movf	otoa@d^(0+128),w
  5205     0761  00D3               	movwf	??_otoa^(0+128)
  5206     0762  1003               	clrc
  5207     0763  0CD4               	rrf	(??_otoa^(0+128)+1),f
  5208     0764  0CD3               	rrf	??_otoa^(0+128),f
  5209     0765  1003               	clrc
  5210     0766  0CD4               	rrf	(??_otoa^(0+128)+1),f
  5211     0767  0CD3               	rrf	??_otoa^(0+128),f
  5212     0768  1003               	clrc
  5213     0769  0CD4               	rrf	(??_otoa^(0+128)+1),f
  5214     076A  0CD3               	rrf	??_otoa^(0+128),f
  5215     076B  0853               	movf	??_otoa^(0+128),w
  5216     076C  00D1               	movwf	otoa@d^(0+128)
  5217     076D  0854               	movf	(??_otoa+1)^(0+128),w
  5218     076E  00D2               	movwf	(otoa@d+1)^(0+128)
  5219     076F                     l4065:
  5220                           
  5221                           ;C:\Program Files\Microchip\xc8\v2.50\pic\sources\c99\common\doprnt.c: 901:     while (!
      +                          (i < 1) && (d != 0
  5222     076F  1683               	bsf	3,5	;RP0=1, select bank3
  5223     0770  1703               	bsf	3,6	;RP1=1, select bank3
  5224     0771  0816               	movf	(otoa@i+1)^(0+384),w
  5225     0772  3A80               	xorlw	128
  5226     0773  00FF               	movwf	btemp+1
  5227     0774  3080               	movlw	128
  5228     0775  027F               	subwf	btemp+1,w
  5229     0776  1D03               	skipz
  5230     0777  2F7A               	goto	u5645
  5231     0778  3001               	movlw	1
  5232     0779  0215               	subwf	otoa@i^(0+384),w
  5233     077A                     u5645:
  5234     077A  1C03               	skipc
  5235     077B  2F7D               	goto	u5641
  5236     077C  2F7E               	goto	u5640
  5237     077D                     u5641:
  5238     077D  2FAA               	goto	l4075
  5239     077E                     u5640:
  5240     077E                     l4067:
  5241     077E  1683               	bsf	3,5	;RP0=1, select bank1
  5242     077F  1303               	bcf	3,6	;RP1=0, select bank1
  5243     0780  0851               	movf	otoa@d^(0+128),w
  5244     0781  0452               	iorwf	(otoa@d+1)^(0+128),w
  5245     0782  1D03               	btfss	3,2
  5246     0783  2F85               	goto	u5651
  5247     0784  2F86               	goto	u5650
  5248     0785                     u5651:
  5249     0785  2F39               	goto	l4053
  5250     0786                     u5650:
  5251     0786                     l4069:
  5252     0786  1683               	bsf	3,5	;RP0=1, select bank3
  5253     0787  1703               	bsf	3,6	;RP1=1, select bank3
  5254     0788  0811               	movf	(otoa@p+1)^(0+384),w
  5255     0789  3A80               	xorlw	128
  5256     078A  00FF               	movwf	btemp+1
  5257     078B  3080               	movlw	128
  5258     078C  027F               	subwf	btemp+1,w
  5259     078D  1D03               	skipz
  5260     078E  2F91               	goto	u5665
  5261     078F  3001               	movlw	1
  5262     0790  0210               	subwf	otoa@p^(0+384),w
  5263     0791                     u5665:
  5264     0791  1803               	skipnc
  5265     0792  2F94               	goto	u5661
  5266     0793  2F95               	goto	u5660
  5267     0794                     u5661:
  5268     0794  2F39               	goto	l4053
  5269     0795                     u5660:
  5270     0795                     l4071:
  5271     0795  1683               	bsf	3,5	;RP0=1, select bank3
  5272     0796  1703               	bsf	3,6	;RP1=1, select bank3
  5273     0797  0813               	movf	(otoa@w+1)^(0+384),w
  5274     0798  3A80               	xorlw	128
  5275     0799  00FF               	movwf	btemp+1
  5276     079A  3080               	movlw	128
  5277     079B  027F               	subwf	btemp+1,w
  5278     079C  1D03               	skipz
  5279     079D  2FA0               	goto	u5675
  5280     079E  3001               	movlw	1
  5281     079F  0212               	subwf	otoa@w^(0+384),w
  5282     07A0                     u5675:
  5283     07A0  1C03               	skipc
  5284     07A1  2FA3               	goto	u5671
  5285     07A2  2FA4               	goto	u5670
  5286     07A3                     u5671:
  5287     07A3  2FAA               	goto	l4075
  5288     07A4                     u5670:
  5289     07A4                     l4073:
  5290     07A4  1683               	bsf	3,5	;RP0=1, select bank1
  5291     07A5  1303               	bcf	3,6	;RP1=0, select bank1
  5292     07A6  18DD               	btfsc	_flags^(0+128),1
  5293     07A7  2FA9               	goto	u5681
  5294     07A8  2FAA               	goto	u5680
  5295     07A9                     u5681:
  5296     07A9  2F39               	goto	l4053
  5297     07AA                     u5680:
  5298     07AA                     l4075:
  5299                           
  5300                           ;C:\Program Files\Microchip\xc8\v2.50\pic\sources\c99\common\doprnt.c: 929:     if ((t |
      +                          | prec == 0) && (flags & (1 << 4))) {
  5301     07AA  1683               	bsf	3,5	;RP0=1, select bank3
  5302     07AB  1703               	bsf	3,6	;RP1=1, select bank3
  5303     07AC  0814               	movf	otoa@t^(0+384),w
  5304     07AD  1D03               	btfss	3,2
  5305     07AE  2FB0               	goto	u5691
  5306     07AF  2FB1               	goto	u5690
  5307     07B0                     u5691:
  5308     07B0  2FB9               	goto	l712
  5309     07B1                     u5690:
  5310     07B1                     l4077:
  5311     07B1  1683               	bsf	3,5	;RP0=1, select bank1
  5312     07B2  1303               	bcf	3,6	;RP1=0, select bank1
  5313     07B3  0859               	movf	_prec^(0+128),w
  5314     07B4  045A               	iorwf	(_prec+1)^(0+128),w
  5315     07B5  1D03               	btfss	3,2
  5316     07B6  2FB8               	goto	u5701
  5317     07B7  2FB9               	goto	u5700
  5318     07B8                     u5701:
  5319     07B8  2FD2               	goto	l4085
  5320     07B9                     u5700:
  5321     07B9                     l712:
  5322     07B9  1303               	bcf	3,6	;RP1=0, select bank1
  5323     07BA  1E5D               	btfss	_flags^(0+128),4
  5324     07BB  2FBD               	goto	u5711
  5325     07BC  2FBE               	goto	u5710
  5326     07BD                     u5711:
  5327     07BD  2FD2               	goto	l4085
  5328     07BE                     u5710:
  5329     07BE                     l4079:
  5330                           
  5331                           ;C:\Program Files\Microchip\xc8\v2.50\pic\sources\c99\common\doprnt.c: 930:         --i;
  5332     07BE  30FF               	movlw	255
  5333     07BF  1683               	bsf	3,5	;RP0=1, select bank3
  5334     07C0  1703               	bsf	3,6	;RP1=1, select bank3
  5335     07C1  0795               	addwf	otoa@i^(0+384),f
  5336     07C2  1803               	skipnc
  5337     07C3  0A96               	incf	(otoa@i+1)^(0+384),f
  5338     07C4  30FF               	movlw	255
  5339     07C5  0796               	addwf	(otoa@i+1)^(0+384),f
  5340     07C6                     l4081:
  5341                           
  5342                           ;C:\Program Files\Microchip\xc8\v2.50\pic\sources\c99\common\doprnt.c: 931:         dbuf
      +                          [i] = '0';
  5343     07C6  0815               	movf	otoa@i^(0+384),w
  5344     07C7  3E10               	addlw	(low (_dbuf| (0+256)))& (0+255)
  5345     07C8  0084               	movwf	4
  5346     07C9  3030               	movlw	48
  5347     07CA  1783               	bsf	3,7	;select IRP bank2
  5348     07CB  0080               	movwf	0
  5349     07CC                     l4083:
  5350                           
  5351                           ;C:\Program Files\Microchip\xc8\v2.50\pic\sources\c99\common\doprnt.c: 932:         --w;
  5352     07CC  30FF               	movlw	255
  5353     07CD  0792               	addwf	otoa@w^(0+384),f
  5354     07CE  1803               	skipnc
  5355     07CF  0A93               	incf	(otoa@w+1)^(0+384),f
  5356     07D0  30FF               	movlw	255
  5357     07D1  0793               	addwf	(otoa@w+1)^(0+384),f
  5358     07D2                     l4085:
  5359                           
  5360                           ;C:\Program Files\Microchip\xc8\v2.50\pic\sources\c99\common\doprnt.c: 937:     return (
      +                          int) pad(fp, &dbuf[i], w);
  5361     07D2  1303               	bcf	3,6	;RP1=0, select bank1
  5362     07D3  084F               	movf	otoa@fp^(0+128),w
  5363     07D4  00C7               	movwf	pad@fp^(0+128)
  5364     07D5  0850               	movf	(otoa@fp+1)^(0+128),w
  5365     07D6  00C8               	movwf	(pad@fp+1)^(0+128)
  5366     07D7  1683               	bsf	3,5	;RP0=1, select bank3
  5367     07D8  1703               	bsf	3,6	;RP1=1, select bank3
  5368     07D9  0815               	movf	otoa@i^(0+384),w
  5369     07DA  3E10               	addlw	(low (_dbuf| (0+256)))& (0+255)
  5370     07DB  1683               	bsf	3,5	;RP0=1, select bank1
  5371     07DC  1303               	bcf	3,6	;RP1=0, select bank1
  5372     07DD  00C9               	movwf	pad@buf^(0+128)
  5373     07DE  1683               	bsf	3,5	;RP0=1, select bank3
  5374     07DF  1703               	bsf	3,6	;RP1=1, select bank3
  5375     07E0  0813               	movf	(otoa@w+1)^(0+384),w
  5376     07E1  1683               	bsf	3,5	;RP0=1, select bank1
  5377     07E2  1303               	bcf	3,6	;RP1=0, select bank1
  5378     07E3  00CB               	movwf	(pad@p+1)^(0+128)
  5379     07E4  1683               	bsf	3,5	;RP0=1, select bank3
  5380     07E5  1703               	bsf	3,6	;RP1=1, select bank3
  5381     07E6  0812               	movf	otoa@w^(0+384),w
  5382     07E7  1683               	bsf	3,5	;RP0=1, select bank1
  5383     07E8  1303               	bcf	3,6	;RP1=0, select bank1
  5384     07E9  00CA               	movwf	pad@p^(0+128)
  5385     07EA  160A  158A  279A  120A  118A  	fcall	_pad
  5386     07EF  1683               	bsf	3,5	;RP0=1, select bank1
  5387     07F0  1303               	bcf	3,6	;RP1=0, select bank1
  5388     07F1  0848               	movf	(?_pad+1)^(0+128),w
  5389     07F2  00D0               	movwf	(?_otoa+1)^(0+128)
  5390     07F3  0847               	movf	?_pad^(0+128),w
  5391     07F4  00CF               	movwf	?_otoa^(0+128)
  5392     07F5                     l713:
  5393     07F5  0008               	return
  5394     07F6                     __end_of_otoa:
  5395                           
  5396                           	psect	text11
  5397     08AE                     __ptext11:	
  5398 ;; *************** function _dtoa *****************
  5399 ;; Defined at:
  5400 ;;		line 513 in file "C:\Program Files\Microchip\xc8\v2.50\pic\sources\c99\common\doprnt.c"
  5401 ;; Parameters:    Size  Location     Type
  5402 ;;  fp              2   47[BANK1 ] PTR struct _IO_FILE
  5403 ;;		 -> sprintf@f(11), 
  5404 ;;  d               2   49[BANK1 ] int 
  5405 ;; Auto vars:     Size  Location     Type
  5406 ;;  i               2    7[BANK3 ] int 
  5407 ;;  w               2    4[BANK3 ] int 
  5408 ;;  p               2    2[BANK3 ] int 
  5409 ;;  s               1    6[BANK3 ] unsigned char 
  5410 ;; Return value:  Size  Location     Type
  5411 ;;                  2   47[BANK1 ] int 
  5412 ;; Registers used:
  5413 ;;		wreg, fsr0l, fsr0h, status,2, status,0, btemp+1, pclath, cstack
  5414 ;; Tracked objects:
  5415 ;;		On entry : 0/0
  5416 ;;		On exit  : 0/0
  5417 ;;		Unchanged: 0/0
  5418 ;; Data sizes:     COMMON   BANK0   BANK1   BANK3   BANK2
  5419 ;;      Params:         0       0       4       0       0
  5420 ;;      Locals:         0       0       0       9       0
  5421 ;;      Temps:          0       0       0       0       0
  5422 ;;      Totals:         0       0       4       9       0
  5423 ;;Total ram usage:       13 bytes
  5424 ;; Hardware stack levels used: 1
  5425 ;; Hardware stack levels required when called: 13
  5426 ;; This function calls:
  5427 ;;		___awdiv
  5428 ;;		___awmod
  5429 ;;		_abs
  5430 ;;		_pad
  5431 ;; This function is called by:
  5432 ;;		_vfpfcnvrt
  5433 ;; This function uses a non-reentrant model
  5434 ;;
  5435                           
  5436     08AE                     _dtoa:	
  5437                           ;psect for function _dtoa
  5438                           
  5439     08AE                     l3979:	
  5440                           ;incstack = 0
  5441 ;; hardware stack exceeded
  5442                           ; Regs used in _dtoa: [wreg-fsr0h+status,2+status,0+btemp+1+pclath+cstack]
  5443                           
  5444                           
  5445                           ;C:\Program Files\Microchip\xc8\v2.50\pic\sources\c99\common\doprnt.c: 513: static int d
      +                          toa(FILE *fp, vfpf_sint_t d);C:\Program Files\Microchip\xc8\v2.50\pic\sources\c99\common
      +                          \doprnt.c: 514: {;C:\Program Files\Microchip\xc8\v2.50\pic\sources\c99\common\doprnt.c: 
      +                          515:  char s;;C:\Program Files\Microchip\xc8\v2.50\pic\sources\c99\common\doprnt.c: 516:
      +                               int i, w;;C:\Program Files\Microchip\xc8\v2.50\pic\sources\c99\common\doprnt.c: 518
      +                          :  int p;;C:\Program Files\Microchip\xc8\v2.50\pic\sources\c99\common\doprnt.c: 524:    
      +                           s = d < 0 ? 1 : 0;
  5446     08AE  1683               	bsf	3,5	;RP0=1, select bank1
  5447     08AF  1303               	bcf	3,6	;RP1=0, select bank1
  5448     08B0  1BD2               	btfsc	(dtoa@d+1)^(0+128),7
  5449     08B1  28B3               	goto	u5481
  5450     08B2  28B5               	goto	u5480
  5451     08B3                     u5481:
  5452     08B3  3001               	movlw	1
  5453     08B4  28B6               	goto	u5490
  5454     08B5                     u5480:
  5455     08B5  3000               	movlw	0
  5456     08B6                     u5490:
  5457     08B6  1683               	bsf	3,5	;RP0=1, select bank3
  5458     08B7  1703               	bsf	3,6	;RP1=1, select bank3
  5459     08B8  0096               	movwf	dtoa@s^(0+384)
  5460     08B9                     l3981:
  5461                           
  5462                           ;C:\Program Files\Microchip\xc8\v2.50\pic\sources\c99\common\doprnt.c: 529:     if (!(pr
      +                          ec < 0)) {
  5463     08B9  1683               	bsf	3,5	;RP0=1, select bank1
  5464     08BA  1303               	bcf	3,6	;RP1=0, select bank1
  5465     08BB  1BDA               	btfsc	(_prec+1)^(0+128),7
  5466     08BC  28BE               	goto	u5501
  5467     08BD  28BF               	goto	u5500
  5468     08BE                     u5501:
  5469     08BE  28C1               	goto	l3985
  5470     08BF                     u5500:
  5471     08BF                     l3983:
  5472                           
  5473                           ;C:\Program Files\Microchip\xc8\v2.50\pic\sources\c99\common\doprnt.c: 530:         flag
      +                          s &= ~(1 << 1);
  5474     08BF  30FD               	movlw	253
  5475     08C0  05DD               	andwf	_flags^(0+128),f
  5476     08C1                     l3985:
  5477                           
  5478                           ;C:\Program Files\Microchip\xc8\v2.50\pic\sources\c99\common\doprnt.c: 533:     p = (0 <
      +                          = prec) ? prec : 1;
  5479     08C1  1FDA               	btfss	(_prec+1)^(0+128),7
  5480     08C2  28C4               	goto	u5511
  5481     08C3  28C5               	goto	u5510
  5482     08C4                     u5511:
  5483     08C4  28CC               	goto	l3989
  5484     08C5                     u5510:
  5485     08C5                     l3987:
  5486     08C5  3001               	movlw	1
  5487     08C6  1683               	bsf	3,5	;RP0=1, select bank3
  5488     08C7  1703               	bsf	3,6	;RP1=1, select bank3
  5489     08C8  0092               	movwf	dtoa@p^(0+384)
  5490     08C9  3000               	movlw	0
  5491     08CA  0093               	movwf	(dtoa@p^(0+384)+1)
  5492     08CB  28D6               	goto	l677
  5493     08CC                     l3989:
  5494     08CC  085A               	movf	(_prec+1)^(0+128),w
  5495     08CD  1683               	bsf	3,5	;RP0=1, select bank3
  5496     08CE  1703               	bsf	3,6	;RP1=1, select bank3
  5497     08CF  0093               	movwf	(dtoa@p+1)^(0+384)
  5498     08D0  1683               	bsf	3,5	;RP0=1, select bank1
  5499     08D1  1303               	bcf	3,6	;RP1=0, select bank1
  5500     08D2  0859               	movf	_prec^(0+128),w
  5501     08D3  1683               	bsf	3,5	;RP0=1, select bank3
  5502     08D4  1703               	bsf	3,6	;RP1=1, select bank3
  5503     08D5  0092               	movwf	dtoa@p^(0+384)
  5504     08D6                     l677:
  5505                           
  5506                           ;C:\Program Files\Microchip\xc8\v2.50\pic\sources\c99\common\doprnt.c: 535:     w = widt
      +                          h;
  5507     08D6  1683               	bsf	3,5	;RP0=1, select bank1
  5508     08D7  1303               	bcf	3,6	;RP1=0, select bank1
  5509     08D8  0858               	movf	(_width+1)^(0+128),w
  5510     08D9  1683               	bsf	3,5	;RP0=1, select bank3
  5511     08DA  1703               	bsf	3,6	;RP1=1, select bank3
  5512     08DB  0095               	movwf	(dtoa@w+1)^(0+384)
  5513     08DC  1683               	bsf	3,5	;RP0=1, select bank1
  5514     08DD  1303               	bcf	3,6	;RP1=0, select bank1
  5515     08DE  0857               	movf	_width^(0+128),w
  5516     08DF  1683               	bsf	3,5	;RP0=1, select bank3
  5517     08E0  1703               	bsf	3,6	;RP1=1, select bank3
  5518     08E1  0094               	movwf	dtoa@w^(0+384)
  5519     08E2                     l3991:
  5520                           
  5521                           ;C:\Program Files\Microchip\xc8\v2.50\pic\sources\c99\common\doprnt.c: 536:     if (s
  5522     08E2  0816               	movf	dtoa@s^(0+384),w
  5523     08E3  1D03               	btfss	3,2
  5524     08E4  28E6               	goto	u5521
  5525     08E5  28E7               	goto	u5520
  5526     08E6                     u5521:
  5527     08E6  28ED               	goto	l3995
  5528     08E7                     u5520:
  5529     08E7                     l3993:
  5530     08E7  1683               	bsf	3,5	;RP0=1, select bank1
  5531     08E8  1303               	bcf	3,6	;RP1=0, select bank1
  5532     08E9  1D5D               	btfss	_flags^(0+128),2
  5533     08EA  28EC               	goto	u5531
  5534     08EB  28ED               	goto	u5530
  5535     08EC                     u5531:
  5536     08EC  2906               	goto	l678
  5537     08ED                     u5530:
  5538     08ED                     l3995:
  5539                           
  5540                           ;C:\Program Files\Microchip\xc8\v2.50\pic\sources\c99\common\doprnt.c: 540:     ) {;C:\P
      +                          rogram Files\Microchip\xc8\v2.50\pic\sources\c99\common\doprnt.c: 541:         --w;
  5541     08ED  30FF               	movlw	255
  5542     08EE  1683               	bsf	3,5	;RP0=1, select bank3
  5543     08EF  1703               	bsf	3,6	;RP1=1, select bank3
  5544     08F0  0794               	addwf	dtoa@w^(0+384),f
  5545     08F1  1803               	skipnc
  5546     08F2  0A95               	incf	(dtoa@w+1)^(0+384),f
  5547     08F3  30FF               	movlw	255
  5548     08F4  0795               	addwf	(dtoa@w+1)^(0+384),f
  5549     08F5                     l3997:
  5550                           
  5551                           ;C:\Program Files\Microchip\xc8\v2.50\pic\sources\c99\common\doprnt.c: 542:   s = s ? '-
      +                          ' : '+';
  5552     08F5  0816               	movf	dtoa@s^(0+384),w
  5553     08F6  1D03               	btfss	3,2
  5554     08F7  28F9               	goto	u5541
  5555     08F8  28FA               	goto	u5540
  5556     08F9                     u5541:
  5557     08F9  28FF               	goto	l4001
  5558     08FA                     u5540:
  5559     08FA                     l3999:
  5560     08FA  302B               	movlw	43
  5561     08FB  0090               	movwf	_dtoa$616^(0+384)
  5562     08FC  3000               	movlw	0
  5563     08FD  0091               	movwf	(_dtoa$616^(0+384)+1)
  5564     08FE  2903               	goto	l684
  5565     08FF                     l4001:
  5566     08FF  302D               	movlw	45
  5567     0900  0090               	movwf	_dtoa$616^(0+384)
  5568     0901  3000               	movlw	0
  5569     0902  0091               	movwf	(_dtoa$616^(0+384)+1)
  5570     0903                     l684:
  5571     0903  0810               	movf	_dtoa$616^(0+384),w
  5572     0904  0096               	movwf	dtoa@s^(0+384)
  5573                           
  5574                           ;C:\Program Files\Microchip\xc8\v2.50\pic\sources\c99\common\doprnt.c: 543:     }
  5575     0905  2914               	goto	l685
  5576     0906                     l678:	
  5577                           ;C:\Program Files\Microchip\xc8\v2.50\pic\sources\c99\common\doprnt.c: 545:  else if (fl
      +                          ags & (1 << 3)) {
  5578                           
  5579     0906  1DDD               	btfss	_flags^(0+128),3
  5580     0907  2909               	goto	u5551
  5581     0908  290A               	goto	u5550
  5582     0909                     u5551:
  5583     0909  2914               	goto	l685
  5584     090A                     u5550:
  5585     090A                     l4003:
  5586                           
  5587                           ;C:\Program Files\Microchip\xc8\v2.50\pic\sources\c99\common\doprnt.c: 546:         --w;
  5588     090A  30FF               	movlw	255
  5589     090B  1683               	bsf	3,5	;RP0=1, select bank3
  5590     090C  1703               	bsf	3,6	;RP1=1, select bank3
  5591     090D  0794               	addwf	dtoa@w^(0+384),f
  5592     090E  1803               	skipnc
  5593     090F  0A95               	incf	(dtoa@w+1)^(0+384),f
  5594     0910  30FF               	movlw	255
  5595     0911  0795               	addwf	(dtoa@w+1)^(0+384),f
  5596     0912                     l4005:
  5597                           
  5598                           ;C:\Program Files\Microchip\xc8\v2.50\pic\sources\c99\common\doprnt.c: 547:   s = ' ';
  5599     0912  3020               	movlw	32
  5600     0913  0096               	movwf	dtoa@s^(0+384)
  5601     0914                     l685:
  5602                           
  5603                           ;C:\Program Files\Microchip\xc8\v2.50\pic\sources\c99\common\doprnt.c: 552:     i = size
      +                          of(dbuf) - 1;
  5604     0914  301F               	movlw	31
  5605     0915  1683               	bsf	3,5	;RP0=1, select bank3
  5606     0916  1703               	bsf	3,6	;RP1=1, select bank3
  5607     0917  0097               	movwf	dtoa@i^(0+384)
  5608     0918  3000               	movlw	0
  5609     0919  0098               	movwf	(dtoa@i^(0+384)+1)
  5610     091A                     l4007:
  5611                           
  5612                           ;C:\Program Files\Microchip\xc8\v2.50\pic\sources\c99\common\doprnt.c: 553:     dbuf[i] 
      +                          = '\0';
  5613     091A  1283               	bcf	3,5	;RP0=0, select bank2
  5614     091B  1703               	bsf	3,6	;RP1=1, select bank2
  5615     091C  01AF               	clrf	(_dbuf^(0+256)+31)
  5616                           
  5617                           ;C:\Program Files\Microchip\xc8\v2.50\pic\sources\c99\common\doprnt.c: 554:     while (!
      +                          (i < 1) && (d != 0
  5618     091D  296C               	goto	l4019
  5619     091E                     l4009:
  5620                           
  5621                           ;C:\Program Files\Microchip\xc8\v2.50\pic\sources\c99\common\doprnt.c: 563:     )) {;C:\
      +                          Program Files\Microchip\xc8\v2.50\pic\sources\c99\common\doprnt.c: 564:         --i;
  5622     091E  30FF               	movlw	255
  5623     091F  1683               	bsf	3,5	;RP0=1, select bank3
  5624     0920  1703               	bsf	3,6	;RP1=1, select bank3
  5625     0921  0797               	addwf	dtoa@i^(0+384),f
  5626     0922  1803               	skipnc
  5627     0923  0A98               	incf	(dtoa@i+1)^(0+384),f
  5628     0924  30FF               	movlw	255
  5629     0925  0798               	addwf	(dtoa@i+1)^(0+384),f
  5630     0926                     l4011:
  5631                           
  5632                           ;C:\Program Files\Microchip\xc8\v2.50\pic\sources\c99\common\doprnt.c: 565:         dbuf
      +                          [i] = (char)((int)'0' + abs(d % 10));
  5633     0926  0817               	movf	dtoa@i^(0+384),w
  5634     0927  3E10               	addlw	(low (_dbuf| (0+256)))& (0+255)
  5635     0928  0084               	movwf	4
  5636     0929  300A               	movlw	10
  5637     092A  1683               	bsf	3,5	;RP0=1, select bank1
  5638     092B  1303               	bcf	3,6	;RP1=0, select bank1
  5639     092C  00B2               	movwf	___awmod@divisor^(0+128)
  5640     092D  3000               	movlw	0
  5641     092E  00B3               	movwf	(___awmod@divisor^(0+128)+1)
  5642     092F  0852               	movf	(dtoa@d+1)^(0+128),w
  5643     0930  00B5               	movwf	(___awmod@dividend+1)^(0+128)
  5644     0931  0851               	movf	dtoa@d^(0+128),w
  5645     0932  00B4               	movwf	___awmod@dividend^(0+128)
  5646     0933  160A  158A  2679  120A  158A  	fcall	___awmod
  5647     0938  1683               	bsf	3,5	;RP0=1, select bank1
  5648     0939  1303               	bcf	3,6	;RP1=0, select bank1
  5649     093A  0833               	movf	(?___awmod+1)^(0+128),w
  5650     093B  00B9               	movwf	(abs@a+1)^(0+128)
  5651     093C  0832               	movf	?___awmod^(0+128),w
  5652     093D  00B8               	movwf	abs@a^(0+128)
  5653     093E  160A  158A  2313  120A  158A  	fcall	_abs
  5654     0943  1683               	bsf	3,5	;RP0=1, select bank1
  5655     0944  1303               	bcf	3,6	;RP1=0, select bank1
  5656     0945  0838               	movf	?_abs^(0+128),w
  5657     0946  3E30               	addlw	48
  5658     0947  1783               	bsf	3,7	;select IRP bank2
  5659     0948  0080               	movwf	0
  5660     0949                     l4013:
  5661                           
  5662                           ;C:\Program Files\Microchip\xc8\v2.50\pic\sources\c99\common\doprnt.c: 567:         --p;
  5663     0949  30FF               	movlw	255
  5664     094A  1683               	bsf	3,5	;RP0=1, select bank3
  5665     094B  1703               	bsf	3,6	;RP1=1, select bank3
  5666     094C  0792               	addwf	dtoa@p^(0+384),f
  5667     094D  1803               	skipnc
  5668     094E  0A93               	incf	(dtoa@p+1)^(0+384),f
  5669     094F  30FF               	movlw	255
  5670     0950  0793               	addwf	(dtoa@p+1)^(0+384),f
  5671     0951                     l4015:
  5672                           
  5673                           ;C:\Program Files\Microchip\xc8\v2.50\pic\sources\c99\common\doprnt.c: 571:         --w;
  5674     0951  30FF               	movlw	255
  5675     0952  0794               	addwf	dtoa@w^(0+384),f
  5676     0953  1803               	skipnc
  5677     0954  0A95               	incf	(dtoa@w+1)^(0+384),f
  5678     0955  30FF               	movlw	255
  5679     0956  0795               	addwf	(dtoa@w+1)^(0+384),f
  5680     0957                     l4017:
  5681                           
  5682                           ;C:\Program Files\Microchip\xc8\v2.50\pic\sources\c99\common\doprnt.c: 572:         d = 
      +                          d / 10;
  5683     0957  300A               	movlw	10
  5684     0958  1683               	bsf	3,5	;RP0=1, select bank1
  5685     0959  1303               	bcf	3,6	;RP1=0, select bank1
  5686     095A  00B2               	movwf	___awdiv@divisor^(0+128)
  5687     095B  3000               	movlw	0
  5688     095C  00B3               	movwf	(___awdiv@divisor^(0+128)+1)
  5689     095D  0852               	movf	(dtoa@d+1)^(0+128),w
  5690     095E  00B5               	movwf	(___awdiv@dividend+1)^(0+128)
  5691     095F  0851               	movf	dtoa@d^(0+128),w
  5692     0960  00B4               	movwf	___awdiv@dividend^(0+128)
  5693     0961  160A  158A  2735  120A  158A  	fcall	___awdiv
  5694     0966  1683               	bsf	3,5	;RP0=1, select bank1
  5695     0967  1303               	bcf	3,6	;RP1=0, select bank1
  5696     0968  0833               	movf	(?___awdiv+1)^(0+128),w
  5697     0969  00D2               	movwf	(dtoa@d+1)^(0+128)
  5698     096A  0832               	movf	?___awdiv^(0+128),w
  5699     096B  00D1               	movwf	dtoa@d^(0+128)
  5700     096C                     l4019:
  5701                           
  5702                           ;C:\Program Files\Microchip\xc8\v2.50\pic\sources\c99\common\doprnt.c: 554:     while (!
      +                          (i < 1) && (d != 0
  5703     096C  1683               	bsf	3,5	;RP0=1, select bank3
  5704     096D  1703               	bsf	3,6	;RP1=1, select bank3
  5705     096E  0818               	movf	(dtoa@i+1)^(0+384),w
  5706     096F  3A80               	xorlw	128
  5707     0970  00FF               	movwf	btemp+1
  5708     0971  3080               	movlw	128
  5709     0972  027F               	subwf	btemp+1,w
  5710     0973  1D03               	skipz
  5711     0974  2977               	goto	u5565
  5712     0975  3001               	movlw	1
  5713     0976  0217               	subwf	dtoa@i^(0+384),w
  5714     0977                     u5565:
  5715     0977  1C03               	skipc
  5716     0978  297A               	goto	u5561
  5717     0979  297B               	goto	u5560
  5718     097A                     u5561:
  5719     097A  29A7               	goto	l4029
  5720     097B                     u5560:
  5721     097B                     l4021:
  5722     097B  1683               	bsf	3,5	;RP0=1, select bank1
  5723     097C  1303               	bcf	3,6	;RP1=0, select bank1
  5724     097D  0851               	movf	dtoa@d^(0+128),w
  5725     097E  0452               	iorwf	(dtoa@d+1)^(0+128),w
  5726     097F  1D03               	btfss	3,2
  5727     0980  2982               	goto	u5571
  5728     0981  2983               	goto	u5570
  5729     0982                     u5571:
  5730     0982  291E               	goto	l4009
  5731     0983                     u5570:
  5732     0983                     l4023:
  5733     0983  1683               	bsf	3,5	;RP0=1, select bank3
  5734     0984  1703               	bsf	3,6	;RP1=1, select bank3
  5735     0985  0813               	movf	(dtoa@p+1)^(0+384),w
  5736     0986  3A80               	xorlw	128
  5737     0987  00FF               	movwf	btemp+1
  5738     0988  3080               	movlw	128
  5739     0989  027F               	subwf	btemp+1,w
  5740     098A  1D03               	skipz
  5741     098B  298E               	goto	u5585
  5742     098C  3001               	movlw	1
  5743     098D  0212               	subwf	dtoa@p^(0+384),w
  5744     098E                     u5585:
  5745     098E  1803               	skipnc
  5746     098F  2991               	goto	u5581
  5747     0990  2992               	goto	u5580
  5748     0991                     u5581:
  5749     0991  291E               	goto	l4009
  5750     0992                     u5580:
  5751     0992                     l4025:
  5752     0992  1683               	bsf	3,5	;RP0=1, select bank3
  5753     0993  1703               	bsf	3,6	;RP1=1, select bank3
  5754     0994  0815               	movf	(dtoa@w+1)^(0+384),w
  5755     0995  3A80               	xorlw	128
  5756     0996  00FF               	movwf	btemp+1
  5757     0997  3080               	movlw	128
  5758     0998  027F               	subwf	btemp+1,w
  5759     0999  1D03               	skipz
  5760     099A  299D               	goto	u5595
  5761     099B  3001               	movlw	1
  5762     099C  0214               	subwf	dtoa@w^(0+384),w
  5763     099D                     u5595:
  5764     099D  1C03               	skipc
  5765     099E  29A0               	goto	u5591
  5766     099F  29A1               	goto	u5590
  5767     09A0                     u5591:
  5768     09A0  29A7               	goto	l4029
  5769     09A1                     u5590:
  5770     09A1                     l4027:
  5771     09A1  1683               	bsf	3,5	;RP0=1, select bank1
  5772     09A2  1303               	bcf	3,6	;RP1=0, select bank1
  5773     09A3  18DD               	btfsc	_flags^(0+128),1
  5774     09A4  29A6               	goto	u5601
  5775     09A5  29A7               	goto	u5600
  5776     09A6                     u5601:
  5777     09A6  291E               	goto	l4009
  5778     09A7                     u5600:
  5779     09A7                     l4029:
  5780                           
  5781                           ;C:\Program Files\Microchip\xc8\v2.50\pic\sources\c99\common\doprnt.c: 576:     if (s !=
      +                           0) {
  5782     09A7  1683               	bsf	3,5	;RP0=1, select bank3
  5783     09A8  1703               	bsf	3,6	;RP1=1, select bank3
  5784     09A9  0816               	movf	dtoa@s^(0+384),w
  5785     09AA  1903               	btfsc	3,2
  5786     09AB  29AD               	goto	u5611
  5787     09AC  29AE               	goto	u5610
  5788     09AD                     u5611:
  5789     09AD  29BA               	goto	l4035
  5790     09AE                     u5610:
  5791     09AE                     l4031:
  5792                           
  5793                           ;C:\Program Files\Microchip\xc8\v2.50\pic\sources\c99\common\doprnt.c: 577:         --i;
  5794     09AE  30FF               	movlw	255
  5795     09AF  0797               	addwf	dtoa@i^(0+384),f
  5796     09B0  1803               	skipnc
  5797     09B1  0A98               	incf	(dtoa@i+1)^(0+384),f
  5798     09B2  30FF               	movlw	255
  5799     09B3  0798               	addwf	(dtoa@i+1)^(0+384),f
  5800     09B4                     l4033:
  5801                           
  5802                           ;C:\Program Files\Microchip\xc8\v2.50\pic\sources\c99\common\doprnt.c: 578:         dbuf
      +                          [i] = s;
  5803     09B4  0817               	movf	dtoa@i^(0+384),w
  5804     09B5  3E10               	addlw	(low (_dbuf| (0+256)))& (0+255)
  5805     09B6  0084               	movwf	4
  5806     09B7  0816               	movf	dtoa@s^(0+384),w
  5807     09B8  1783               	bsf	3,7	;select IRP bank2
  5808     09B9  0080               	movwf	0
  5809     09BA                     l4035:
  5810                           
  5811                           ;C:\Program Files\Microchip\xc8\v2.50\pic\sources\c99\common\doprnt.c: 582:     return (
      +                          int) pad(fp, &dbuf[i], w);
  5812     09BA  1683               	bsf	3,5	;RP0=1, select bank1
  5813     09BB  1303               	bcf	3,6	;RP1=0, select bank1
  5814     09BC  084F               	movf	dtoa@fp^(0+128),w
  5815     09BD  00C7               	movwf	pad@fp^(0+128)
  5816     09BE  0850               	movf	(dtoa@fp+1)^(0+128),w
  5817     09BF  00C8               	movwf	(pad@fp+1)^(0+128)
  5818     09C0  1683               	bsf	3,5	;RP0=1, select bank3
  5819     09C1  1703               	bsf	3,6	;RP1=1, select bank3
  5820     09C2  0817               	movf	dtoa@i^(0+384),w
  5821     09C3  3E10               	addlw	(low (_dbuf| (0+256)))& (0+255)
  5822     09C4  1683               	bsf	3,5	;RP0=1, select bank1
  5823     09C5  1303               	bcf	3,6	;RP1=0, select bank1
  5824     09C6  00C9               	movwf	pad@buf^(0+128)
  5825     09C7  1683               	bsf	3,5	;RP0=1, select bank3
  5826     09C8  1703               	bsf	3,6	;RP1=1, select bank3
  5827     09C9  0815               	movf	(dtoa@w+1)^(0+384),w
  5828     09CA  1683               	bsf	3,5	;RP0=1, select bank1
  5829     09CB  1303               	bcf	3,6	;RP1=0, select bank1
  5830     09CC  00CB               	movwf	(pad@p+1)^(0+128)
  5831     09CD  1683               	bsf	3,5	;RP0=1, select bank3
  5832     09CE  1703               	bsf	3,6	;RP1=1, select bank3
  5833     09CF  0814               	movf	dtoa@w^(0+384),w
  5834     09D0  1683               	bsf	3,5	;RP0=1, select bank1
  5835     09D1  1303               	bcf	3,6	;RP1=0, select bank1
  5836     09D2  00CA               	movwf	pad@p^(0+128)
  5837     09D3  160A  158A  279A  120A  158A  	fcall	_pad
  5838     09D8  1683               	bsf	3,5	;RP0=1, select bank1
  5839     09D9  1303               	bcf	3,6	;RP1=0, select bank1
  5840     09DA  0848               	movf	(?_pad+1)^(0+128),w
  5841     09DB  00D0               	movwf	(?_dtoa+1)^(0+128)
  5842     09DC  0847               	movf	?_pad^(0+128),w
  5843     09DD  00CF               	movwf	?_dtoa^(0+128)
  5844     09DE                     l695:
  5845     09DE  0008               	return
  5846     09DF                     __end_of_dtoa:
  5847                           
  5848                           	psect	text12
  5849     1F9A                     __ptext12:	
  5850 ;; *************** function _pad *****************
  5851 ;; Defined at:
  5852 ;;		line 193 in file "C:\Program Files\Microchip\xc8\v2.50\pic\sources\c99\common\doprnt.c"
  5853 ;; Parameters:    Size  Location     Type
  5854 ;;  fp              2   39[BANK1 ] PTR struct _IO_FILE
  5855 ;;		 -> sprintf@f(11), 
  5856 ;;  buf             1   41[BANK1 ] PTR unsigned char 
  5857 ;;		 -> dbuf(32), 
  5858 ;;  p               2   42[BANK1 ] int 
  5859 ;; Auto vars:     Size  Location     Type
  5860 ;;  i               2   45[BANK1 ] int 
  5861 ;; Return value:  Size  Location     Type
  5862 ;;                  2   39[BANK1 ] int 
  5863 ;; Registers used:
  5864 ;;		wreg, fsr0l, fsr0h, status,2, status,0, pclath, cstack
  5865 ;; Tracked objects:
  5866 ;;		On entry : 0/0
  5867 ;;		On exit  : 0/0
  5868 ;;		Unchanged: 0/0
  5869 ;; Data sizes:     COMMON   BANK0   BANK1   BANK3   BANK2
  5870 ;;      Params:         0       0       5       0       0
  5871 ;;      Locals:         0       0       2       0       0
  5872 ;;      Temps:          0       0       1       0       0
  5873 ;;      Totals:         0       0       8       0       0
  5874 ;;Total ram usage:        8 bytes
  5875 ;; Hardware stack levels used: 1
  5876 ;; Hardware stack levels required when called: 12
  5877 ;; This function calls:
  5878 ;;		_fputc
  5879 ;;		_fputs
  5880 ;;		_strlen
  5881 ;; This function is called by:
  5882 ;;		_dtoa
  5883 ;;		_otoa
  5884 ;;		_utoa
  5885 ;;		_xtoa
  5886 ;; This function uses a non-reentrant model
  5887 ;;
  5888                           
  5889     1F9A                     _pad:	
  5890                           ;psect for function _pad
  5891                           
  5892     1F9A                     l3925:	
  5893                           ;incstack = 0
  5894 ;; hardware stack exceeded
  5895                           ; Regs used in _pad: [wreg-fsr0h+status,2+status,0+pclath+cstack]
  5896                           
  5897                           
  5898                           ;C:\Program Files\Microchip\xc8\v2.50\pic\sources\c99\common\doprnt.c: 193: static int p
      +                          ad(FILE *fp, char *buf, int p);C:\Program Files\Microchip\xc8\v2.50\pic\sources\c99\comm
      +                          on\doprnt.c: 194: {;C:\Program Files\Microchip\xc8\v2.50\pic\sources\c99\common\doprnt.c
      +                          : 195:     int i;;C:\Program Files\Microchip\xc8\v2.50\pic\sources\c99\common\doprnt.c: 
      +                          199:     if (flags & (1 << 0)) {
  5899     1F9A  1683               	bsf	3,5	;RP0=1, select bank1
  5900     1F9B  1303               	bcf	3,6	;RP1=0, select bank1
  5901     1F9C  1C5D               	btfss	_flags^(0+128),0
  5902     1F9D  2F9F               	goto	u5381
  5903     1F9E  2FA0               	goto	u5380
  5904     1F9F                     u5381:
  5905     1F9F  2FAB               	goto	l3929
  5906     1FA0                     u5380:
  5907     1FA0                     l3927:
  5908                           
  5909                           ;C:\Program Files\Microchip\xc8\v2.50\pic\sources\c99\common\doprnt.c: 200:         fput
      +                          s((const char *)buf, fp);
  5910     1FA0  0849               	movf	pad@buf^(0+128),w
  5911     1FA1  00BF               	movwf	fputs@s^(0+128)
  5912     1FA2  0847               	movf	pad@fp^(0+128),w
  5913     1FA3  00C0               	movwf	fputs@fp^(0+128)
  5914     1FA4  0848               	movf	(pad@fp+1)^(0+128),w
  5915     1FA5  00C1               	movwf	(fputs@fp+1)^(0+128)
  5916     1FA6  160A  158A  23EA  160A  158A  	fcall	_fputs
  5917     1FAB                     l3929:
  5918                           
  5919                           ;C:\Program Files\Microchip\xc8\v2.50\pic\sources\c99\common\doprnt.c: 205:  if (p < 0) 
      +                          {
  5920     1FAB  1683               	bsf	3,5	;RP0=1, select bank1
  5921     1FAC  1303               	bcf	3,6	;RP1=0, select bank1
  5922     1FAD  1FCB               	btfss	(pad@p+1)^(0+128),7
  5923     1FAE  2FB0               	goto	u5391
  5924     1FAF  2FB1               	goto	u5390
  5925     1FB0                     u5391:
  5926     1FB0  2FB3               	goto	l649
  5927     1FB1                     u5390:
  5928     1FB1                     l3931:
  5929                           
  5930                           ;C:\Program Files\Microchip\xc8\v2.50\pic\sources\c99\common\doprnt.c: 206:   p = 0;
  5931     1FB1  01CA               	clrf	pad@p^(0+128)
  5932     1FB2  01CB               	clrf	(pad@p+1)^(0+128)
  5933     1FB3                     l649:	
  5934                           ;C:\Program Files\Microchip\xc8\v2.50\pic\sources\c99\common\doprnt.c: 207:  }
  5935                           
  5936                           
  5937                           ;C:\Program Files\Microchip\xc8\v2.50\pic\sources\c99\common\doprnt.c: 208:     i = 0;
  5938     1FB3  01CD               	clrf	pad@i^(0+128)
  5939     1FB4  01CE               	clrf	(pad@i+1)^(0+128)
  5940                           
  5941                           ;C:\Program Files\Microchip\xc8\v2.50\pic\sources\c99\common\doprnt.c: 209:     while (i
      +                           < p) {
  5942     1FB5  2FCD               	goto	l3937
  5943     1FB6                     l3933:
  5944                           
  5945                           ;C:\Program Files\Microchip\xc8\v2.50\pic\sources\c99\common\doprnt.c: 210:         fput
      +                          c(' ', fp);
  5946     1FB6  3020               	movlw	32
  5947     1FB7  1683               	bsf	3,5	;RP0=1, select bank1
  5948     1FB8  1303               	bcf	3,6	;RP1=0, select bank1
  5949     1FB9  00B2               	movwf	fputc@c^(0+128)
  5950     1FBA  3000               	movlw	0
  5951     1FBB  00B3               	movwf	(fputc@c^(0+128)+1)
  5952     1FBC  0847               	movf	pad@fp^(0+128),w
  5953     1FBD  00B4               	movwf	fputc@fp^(0+128)
  5954     1FBE  0848               	movf	(pad@fp+1)^(0+128),w
  5955     1FBF  00B5               	movwf	(fputc@fp+1)^(0+128)
  5956     1FC0  120A  158A  200E  160A  158A  	fcall	_fputc
  5957     1FC5                     l3935:
  5958                           
  5959                           ;C:\Program Files\Microchip\xc8\v2.50\pic\sources\c99\common\doprnt.c: 211:         ++i;
  5960     1FC5  3001               	movlw	1
  5961     1FC6  1683               	bsf	3,5	;RP0=1, select bank1
  5962     1FC7  1303               	bcf	3,6	;RP1=0, select bank1
  5963     1FC8  07CD               	addwf	pad@i^(0+128),f
  5964     1FC9  1803               	skipnc
  5965     1FCA  0ACE               	incf	(pad@i+1)^(0+128),f
  5966     1FCB  3000               	movlw	0
  5967     1FCC  07CE               	addwf	(pad@i+1)^(0+128),f
  5968     1FCD                     l3937:
  5969                           
  5970                           ;C:\Program Files\Microchip\xc8\v2.50\pic\sources\c99\common\doprnt.c: 209:     while (i
      +                           < p) {
  5971     1FCD  084E               	movf	(pad@i+1)^(0+128),w
  5972     1FCE  3A80               	xorlw	128
  5973     1FCF  00CC               	movwf	??_pad^(0+128)
  5974     1FD0  084B               	movf	(pad@p+1)^(0+128),w
  5975     1FD1  3A80               	xorlw	128
  5976     1FD2  024C               	subwf	??_pad^(0+128),w
  5977     1FD3  1D03               	skipz
  5978     1FD4  2FD7               	goto	u5405
  5979     1FD5  084A               	movf	pad@p^(0+128),w
  5980     1FD6  024D               	subwf	pad@i^(0+128),w
  5981     1FD7                     u5405:
  5982     1FD7  1C03               	skipc
  5983     1FD8  2FDA               	goto	u5401
  5984     1FD9  2FDB               	goto	u5400
  5985     1FDA                     u5401:
  5986     1FDA  2FB6               	goto	l3933
  5987     1FDB                     u5400:
  5988     1FDB                     l652:
  5989                           
  5990                           ;C:\Program Files\Microchip\xc8\v2.50\pic\sources\c99\common\doprnt.c: 216:     if (!(fl
      +                          ags & (1 << 0))) {
  5991     1FDB  1683               	bsf	3,5	;RP0=1, select bank1
  5992     1FDC  1303               	bcf	3,6	;RP1=0, select bank1
  5993     1FDD  185D               	btfsc	_flags^(0+128),0
  5994     1FDE  2FE0               	goto	u5411
  5995     1FDF  2FE1               	goto	u5410
  5996     1FE0                     u5411:
  5997     1FE0  2FEC               	goto	l653
  5998     1FE1                     u5410:
  5999     1FE1                     l3939:
  6000                           
  6001                           ;C:\Program Files\Microchip\xc8\v2.50\pic\sources\c99\common\doprnt.c: 218:         fput
      +                          s((const char *)buf, fp);
  6002     1FE1  0849               	movf	pad@buf^(0+128),w
  6003     1FE2  00BF               	movwf	fputs@s^(0+128)
  6004     1FE3  0847               	movf	pad@fp^(0+128),w
  6005     1FE4  00C0               	movwf	fputs@fp^(0+128)
  6006     1FE5  0848               	movf	(pad@fp+1)^(0+128),w
  6007     1FE6  00C1               	movwf	(fputs@fp+1)^(0+128)
  6008     1FE7  160A  158A  23EA  160A  158A  	fcall	_fputs
  6009     1FEC                     l653:	
  6010                           ;C:\Program Files\Microchip\xc8\v2.50\pic\sources\c99\common\doprnt.c: 220:     }
  6011                           
  6012                           
  6013                           ;C:\Program Files\Microchip\xc8\v2.50\pic\sources\c99\common\doprnt.c: 224:     return (
      +                          int)(strlen(buf) + (size_t)p);
  6014     1FEC  1683               	bsf	3,5	;RP0=1, select bank1
  6015     1FED  1303               	bcf	3,6	;RP1=0, select bank1
  6016     1FEE  0849               	movf	pad@buf^(0+128),w
  6017     1FEF  00B2               	movwf	strlen@s^(0+128)
  6018     1FF0  160A  158A  233A  160A  158A  	fcall	_strlen
  6019     1FF5  1683               	bsf	3,5	;RP0=1, select bank1
  6020     1FF6  1303               	bcf	3,6	;RP1=0, select bank1
  6021     1FF7  084A               	movf	pad@p^(0+128),w
  6022     1FF8  0732               	addwf	?_strlen^(0+128),w
  6023     1FF9  00C7               	movwf	?_pad^(0+128)
  6024     1FFA  084B               	movf	(pad@p+1)^(0+128),w
  6025     1FFB  1803               	skipnc
  6026     1FFC  0A4B               	incf	(pad@p+1)^(0+128),w
  6027     1FFD  0733               	addwf	(?_strlen+1)^(0+128),w
  6028     1FFE  00C8               	movwf	(?_pad+1)^(0+128)
  6029     1FFF                     l654:
  6030     1FFF  0008               	return
  6031     2000                     __end_of_pad:
  6032                           
  6033                           	psect	text13
  6034     1B3A                     __ptext13:	
  6035 ;; *************** function _strlen *****************
  6036 ;; Defined at:
  6037 ;;		line 5 in file "C:\Program Files\Microchip\xc8\v2.50\pic\sources\c99\common\strlen.c"
  6038 ;; Parameters:    Size  Location     Type
  6039 ;;  s               1   18[BANK1 ] PTR const unsigned char 
  6040 ;;		 -> dbuf(32), 
  6041 ;; Auto vars:     Size  Location     Type
  6042 ;;  a               1   20[BANK1 ] PTR const unsigned char 
  6043 ;;		 -> dbuf(32), 
  6044 ;; Return value:  Size  Location     Type
  6045 ;;                  2   18[BANK1 ] unsigned int 
  6046 ;; Registers used:
  6047 ;;		wreg, fsr0l, fsr0h, status,2, status,0
  6048 ;; Tracked objects:
  6049 ;;		On entry : 0/0
  6050 ;;		On exit  : 0/0
  6051 ;;		Unchanged: 0/0
  6052 ;; Data sizes:     COMMON   BANK0   BANK1   BANK3   BANK2
  6053 ;;      Params:         0       0       2       0       0
  6054 ;;      Locals:         0       0       1       0       0
  6055 ;;      Temps:          0       0       0       0       0
  6056 ;;      Totals:         0       0       3       0       0
  6057 ;;Total ram usage:        3 bytes
  6058 ;; Hardware stack levels used: 1
  6059 ;; Hardware stack levels required when called: 9
  6060 ;; This function calls:
  6061 ;;		Nothing
  6062 ;; This function is called by:
  6063 ;;		_pad
  6064 ;; This function uses a non-reentrant model
  6065 ;;
  6066                           
  6067     1B3A                     _strlen:	
  6068                           ;psect for function _strlen
  6069                           
  6070     1B3A                     l3785:	
  6071                           ;incstack = 0
  6072 ;; hardware stack exceeded
  6073                           ; Regs used in _strlen: [wreg-fsr0h+status,2+status,0]
  6074                           
  6075     1B3A  1683               	bsf	3,5	;RP0=1, select bank1
  6076     1B3B  1303               	bcf	3,6	;RP1=0, select bank1
  6077     1B3C  0832               	movf	strlen@s^(0+128),w
  6078     1B3D  00B4               	movwf	strlen@a^(0+128)
  6079     1B3E  2B41               	goto	l3789
  6080     1B3F                     l3787:
  6081     1B3F  3001               	movlw	1
  6082     1B40  07B2               	addwf	strlen@s^(0+128),f
  6083     1B41                     l3789:
  6084     1B41  0832               	movf	strlen@s^(0+128),w
  6085     1B42  0084               	movwf	4
  6086     1B43  1783               	bsf	3,7	;select IRP bank2
  6087     1B44  0800               	movf	0,w
  6088     1B45  1D03               	btfss	3,2
  6089     1B46  2B48               	goto	u5051
  6090     1B47  2B49               	goto	u5050
  6091     1B48                     u5051:
  6092     1B48  2B3F               	goto	l3787
  6093     1B49                     u5050:
  6094     1B49                     l3791:
  6095     1B49  0834               	movf	strlen@a^(0+128),w
  6096     1B4A  0232               	subwf	strlen@s^(0+128),w
  6097     1B4B  00B2               	movwf	?_strlen^(0+128)
  6098     1B4C  01B3               	clrf	(?_strlen+1)^(0+128)
  6099     1B4D  1BB2               	btfsc	?_strlen^(0+128),7
  6100     1B4E  03B3               	decf	(?_strlen+1)^(0+128),f
  6101     1B4F                     l869:
  6102     1B4F  0008               	return
  6103     1B50                     __end_of_strlen:
  6104                           
  6105                           	psect	text14
  6106     1BEA                     __ptext14:	
  6107 ;; *************** function _fputs *****************
  6108 ;; Defined at:
  6109 ;;		line 8 in file "C:\Program Files\Microchip\xc8\v2.50\pic\sources\c99\common\nf_fputs.c"
  6110 ;; Parameters:    Size  Location     Type
  6111 ;;  s               1   31[BANK1 ] PTR const unsigned char 
  6112 ;;		 -> dbuf(32), 
  6113 ;;  fp              2   32[BANK1 ] PTR struct _IO_FILE
  6114 ;;		 -> sprintf@f(11), 
  6115 ;; Auto vars:     Size  Location     Type
  6116 ;;  i               2   37[BANK1 ] int 
  6117 ;;  c               1   36[BANK1 ] unsigned char 
  6118 ;; Return value:  Size  Location     Type
  6119 ;;                  2   31[BANK1 ] int 
  6120 ;; Registers used:
  6121 ;;		wreg, fsr0l, fsr0h, status,2, status,0, pclath, cstack
  6122 ;; Tracked objects:
  6123 ;;		On entry : 0/0
  6124 ;;		On exit  : 0/0
  6125 ;;		Unchanged: 0/0
  6126 ;; Data sizes:     COMMON   BANK0   BANK1   BANK3   BANK2
  6127 ;;      Params:         0       0       3       0       0
  6128 ;;      Locals:         0       0       3       0       0
  6129 ;;      Temps:          0       0       2       0       0
  6130 ;;      Totals:         0       0       8       0       0
  6131 ;;Total ram usage:        8 bytes
  6132 ;; Hardware stack levels used: 1
  6133 ;; Hardware stack levels required when called: 11
  6134 ;; This function calls:
  6135 ;;		_fputc
  6136 ;; This function is called by:
  6137 ;;		_pad
  6138 ;; This function uses a non-reentrant model
  6139 ;;
  6140                           
  6141     1BEA                     _fputs:	
  6142                           ;psect for function _fputs
  6143                           
  6144     1BEA                     l3777:	
  6145                           ;incstack = 0
  6146 ;; hardware stack exceeded
  6147                           ; Regs used in _fputs: [wreg-fsr0h+status,2+status,0+pclath+cstack]
  6148                           
  6149     1BEA  1683               	bsf	3,5	;RP0=1, select bank1
  6150     1BEB  1303               	bcf	3,6	;RP1=0, select bank1
  6151     1BEC  01C5               	clrf	fputs@i^(0+128)
  6152     1BED  01C6               	clrf	(fputs@i+1)^(0+128)
  6153     1BEE  2C07               	goto	l3783
  6154     1BEF                     l3779:
  6155     1BEF  0844               	movf	fputs@c^(0+128),w
  6156     1BF0  00C2               	movwf	??_fputs^(0+128)
  6157     1BF1  01C3               	clrf	(??_fputs^(0+128)+1)
  6158     1BF2  0842               	movf	??_fputs^(0+128),w
  6159     1BF3  00B2               	movwf	fputc@c^(0+128)
  6160     1BF4  0843               	movf	(??_fputs+1)^(0+128),w
  6161     1BF5  00B3               	movwf	(fputc@c+1)^(0+128)
  6162     1BF6  0840               	movf	fputs@fp^(0+128),w
  6163     1BF7  00B4               	movwf	fputc@fp^(0+128)
  6164     1BF8  0841               	movf	(fputs@fp+1)^(0+128),w
  6165     1BF9  00B5               	movwf	(fputc@fp+1)^(0+128)
  6166     1BFA  120A  158A  200E  160A  158A  	fcall	_fputc
  6167     1BFF                     l3781:
  6168     1BFF  3001               	movlw	1
  6169     1C00  1683               	bsf	3,5	;RP0=1, select bank1
  6170     1C01  1303               	bcf	3,6	;RP1=0, select bank1
  6171     1C02  07C5               	addwf	fputs@i^(0+128),f
  6172     1C03  1803               	skipnc
  6173     1C04  0AC6               	incf	(fputs@i+1)^(0+128),f
  6174     1C05  3000               	movlw	0
  6175     1C06  07C6               	addwf	(fputs@i+1)^(0+128),f
  6176     1C07                     l3783:
  6177     1C07  0845               	movf	fputs@i^(0+128),w
  6178     1C08  073F               	addwf	fputs@s^(0+128),w
  6179     1C09  00C2               	movwf	??_fputs^(0+128)
  6180     1C0A  0842               	movf	??_fputs^(0+128),w
  6181     1C0B  0084               	movwf	4
  6182     1C0C  1783               	bsf	3,7	;select IRP bank2
  6183     1C0D  0800               	movf	0,w
  6184     1C0E  00C4               	movwf	fputs@c^(0+128)
  6185     1C0F  0844               	movf	fputs@c^(0+128),w
  6186     1C10  1D03               	btfss	3,2
  6187     1C11  2C13               	goto	u5041
  6188     1C12  2C14               	goto	u5040
  6189     1C13                     u5041:
  6190     1C13  2BEF               	goto	l3779
  6191     1C14                     u5040:
  6192     1C14                     l860:
  6193     1C14  0008               	return
  6194     1C15                     __end_of_fputs:
  6195                           
  6196                           	psect	text15
  6197     1B13                     __ptext15:	
  6198 ;; *************** function _abs *****************
  6199 ;; Defined at:
  6200 ;;		line 1 in file "C:\Program Files\Microchip\xc8\v2.50\pic\sources\c99\common\abs.c"
  6201 ;; Parameters:    Size  Location     Type
  6202 ;;  a               2   24[BANK1 ] int 
  6203 ;; Auto vars:     Size  Location     Type
  6204 ;;		None
  6205 ;; Return value:  Size  Location     Type
  6206 ;;                  2   24[BANK1 ] int 
  6207 ;; Registers used:
  6208 ;;		wreg, status,2, status,0
  6209 ;; Tracked objects:
  6210 ;;		On entry : 0/0
  6211 ;;		On exit  : 0/0
  6212 ;;		Unchanged: 0/0
  6213 ;; Data sizes:     COMMON   BANK0   BANK1   BANK3   BANK2
  6214 ;;      Params:         0       0       2       0       0
  6215 ;;      Locals:         0       0       0       0       0
  6216 ;;      Temps:          0       0       2       0       0
  6217 ;;      Totals:         0       0       4       0       0
  6218 ;;Total ram usage:        4 bytes
  6219 ;; Hardware stack levels used: 1
  6220 ;; Hardware stack levels required when called: 9
  6221 ;; This function calls:
  6222 ;;		Nothing
  6223 ;; This function is called by:
  6224 ;;		_dtoa
  6225 ;; This function uses a non-reentrant model
  6226 ;;
  6227                           
  6228     1B13                     _abs:	
  6229                           ;psect for function _abs
  6230                           
  6231     1B13                     l3943:	
  6232                           ;incstack = 0
  6233 ;; hardware stack exceeded
  6234                           ; Regs used in _abs: [wreg+status,2+status,0]
  6235                           
  6236     1B13  1683               	bsf	3,5	;RP0=1, select bank1
  6237     1B14  1303               	bcf	3,6	;RP1=0, select bank1
  6238     1B15  1BB9               	btfsc	(abs@a+1)^(0+128),7
  6239     1B16  2B18               	goto	u5421
  6240     1B17  2B19               	goto	u5420
  6241     1B18                     u5421:
  6242     1B18  2B1A               	goto	l3947
  6243     1B19                     u5420:
  6244     1B19                     l3945:
  6245     1B19  2B25               	goto	l840
  6246     1B1A                     l3947:
  6247     1B1A  0938               	comf	abs@a^(0+128),w
  6248     1B1B  00BA               	movwf	??_abs^(0+128)
  6249     1B1C  0939               	comf	(abs@a+1)^(0+128),w
  6250     1B1D  00BB               	movwf	(??_abs^(0+128)+1)
  6251     1B1E  0ABA               	incf	??_abs^(0+128),f
  6252     1B1F  1903               	skipnz
  6253     1B20  0ABB               	incf	(??_abs^(0+128)+1),f
  6254     1B21  083A               	movf	??_abs^(0+128),w
  6255     1B22  00B8               	movwf	?_abs^(0+128)
  6256     1B23  083B               	movf	(??_abs+1)^(0+128),w
  6257     1B24  00B9               	movwf	(?_abs+1)^(0+128)
  6258     1B25                     l840:
  6259     1B25  0008               	return
  6260     1B26                     __end_of_abs:
  6261                           
  6262                           	psect	text16
  6263     1E79                     __ptext16:	
  6264 ;; *************** function ___awmod *****************
  6265 ;; Defined at:
  6266 ;;		line 5 in file "C:\Program Files\Microchip\xc8\v2.50\pic\sources\c99\common\awmod.c"
  6267 ;; Parameters:    Size  Location     Type
  6268 ;;  divisor         2   18[BANK1 ] int 
  6269 ;;  dividend        2   20[BANK1 ] int 
  6270 ;; Auto vars:     Size  Location     Type
  6271 ;;  sign            1   23[BANK1 ] unsigned char 
  6272 ;;  counter         1   22[BANK1 ] unsigned char 
  6273 ;; Return value:  Size  Location     Type
  6274 ;;                  2   18[BANK1 ] int 
  6275 ;; Registers used:
  6276 ;;		wreg, status,2, status,0
  6277 ;; Tracked objects:
  6278 ;;		On entry : 0/0
  6279 ;;		On exit  : 0/0
  6280 ;;		Unchanged: 0/0
  6281 ;; Data sizes:     COMMON   BANK0   BANK1   BANK3   BANK2
  6282 ;;      Params:         0       0       4       0       0
  6283 ;;      Locals:         0       0       2       0       0
  6284 ;;      Temps:          0       0       0       0       0
  6285 ;;      Totals:         0       0       6       0       0
  6286 ;;Total ram usage:        6 bytes
  6287 ;; Hardware stack levels used: 1
  6288 ;; Hardware stack levels required when called: 9
  6289 ;; This function calls:
  6290 ;;		Nothing
  6291 ;; This function is called by:
  6292 ;;		_dtoa
  6293 ;; This function uses a non-reentrant model
  6294 ;;
  6295                           
  6296     1E79                     ___awmod:	
  6297                           ;psect for function ___awmod
  6298                           
  6299     1E79                     l3839:	
  6300                           ;incstack = 0
  6301 ;; hardware stack exceeded
  6302                           ; Regs used in ___awmod: [wreg+status,2+status,0]
  6303                           
  6304     1E79  1683               	bsf	3,5	;RP0=1, select bank1
  6305     1E7A  1303               	bcf	3,6	;RP1=0, select bank1
  6306     1E7B  01B7               	clrf	___awmod@sign^(0+128)
  6307     1E7C                     l3841:
  6308     1E7C  1FB5               	btfss	(___awmod@dividend+1)^(0+128),7
  6309     1E7D  2E7F               	goto	u5161
  6310     1E7E  2E80               	goto	u5160
  6311     1E7F                     u5161:
  6312     1E7F  2E87               	goto	l3847
  6313     1E80                     u5160:
  6314     1E80                     l3843:
  6315     1E80  09B4               	comf	___awmod@dividend^(0+128),f
  6316     1E81  09B5               	comf	(___awmod@dividend+1)^(0+128),f
  6317     1E82  0AB4               	incf	___awmod@dividend^(0+128),f
  6318     1E83  1903               	skipnz
  6319     1E84  0AB5               	incf	(___awmod@dividend+1)^(0+128),f
  6320     1E85                     l3845:
  6321     1E85  3001               	movlw	1
  6322     1E86  00B7               	movwf	___awmod@sign^(0+128)
  6323     1E87                     l3847:
  6324     1E87  1FB3               	btfss	(___awmod@divisor+1)^(0+128),7
  6325     1E88  2E8A               	goto	u5171
  6326     1E89  2E8B               	goto	u5170
  6327     1E8A                     u5171:
  6328     1E8A  2E90               	goto	l3851
  6329     1E8B                     u5170:
  6330     1E8B                     l3849:
  6331     1E8B  09B2               	comf	___awmod@divisor^(0+128),f
  6332     1E8C  09B3               	comf	(___awmod@divisor+1)^(0+128),f
  6333     1E8D  0AB2               	incf	___awmod@divisor^(0+128),f
  6334     1E8E  1903               	skipnz
  6335     1E8F  0AB3               	incf	(___awmod@divisor+1)^(0+128),f
  6336     1E90                     l3851:
  6337     1E90  0832               	movf	___awmod@divisor^(0+128),w
  6338     1E91  0433               	iorwf	(___awmod@divisor+1)^(0+128),w
  6339     1E92  1903               	btfsc	3,2
  6340     1E93  2E95               	goto	u5181
  6341     1E94  2E96               	goto	u5180
  6342     1E95                     u5181:
  6343     1E95  2EC3               	goto	l3869
  6344     1E96                     u5180:
  6345     1E96                     l3853:
  6346     1E96  3001               	movlw	1
  6347     1E97  00B6               	movwf	___awmod@counter^(0+128)
  6348     1E98  2EA2               	goto	l3859
  6349     1E99                     l3855:
  6350     1E99  3001               	movlw	1
  6351     1E9A                     u5195:
  6352     1E9A  1003               	clrc
  6353     1E9B  0DB2               	rlf	___awmod@divisor^(0+128),f
  6354     1E9C  0DB3               	rlf	(___awmod@divisor+1)^(0+128),f
  6355     1E9D  3EFF               	addlw	-1
  6356     1E9E  1D03               	skipz
  6357     1E9F  2E9A               	goto	u5195
  6358     1EA0                     l3857:
  6359     1EA0  3001               	movlw	1
  6360     1EA1  07B6               	addwf	___awmod@counter^(0+128),f
  6361     1EA2                     l3859:
  6362     1EA2  1FB3               	btfss	(___awmod@divisor+1)^(0+128),7
  6363     1EA3  2EA5               	goto	u5201
  6364     1EA4  2EA6               	goto	u5200
  6365     1EA5                     u5201:
  6366     1EA5  2E99               	goto	l3855
  6367     1EA6                     u5200:
  6368     1EA6                     l3861:
  6369     1EA6  0833               	movf	(___awmod@divisor+1)^(0+128),w
  6370     1EA7  0235               	subwf	(___awmod@dividend+1)^(0+128),w
  6371     1EA8  1D03               	skipz
  6372     1EA9  2EAC               	goto	u5215
  6373     1EAA  0832               	movf	___awmod@divisor^(0+128),w
  6374     1EAB  0234               	subwf	___awmod@dividend^(0+128),w
  6375     1EAC                     u5215:
  6376     1EAC  1C03               	skipc
  6377     1EAD  2EAF               	goto	u5211
  6378     1EAE  2EB0               	goto	u5210
  6379     1EAF                     u5211:
  6380     1EAF  2EB6               	goto	l3865
  6381     1EB0                     u5210:
  6382     1EB0                     l3863:
  6383     1EB0  0832               	movf	___awmod@divisor^(0+128),w
  6384     1EB1  02B4               	subwf	___awmod@dividend^(0+128),f
  6385     1EB2  0833               	movf	(___awmod@divisor+1)^(0+128),w
  6386     1EB3  1C03               	skipc
  6387     1EB4  03B5               	decf	(___awmod@dividend+1)^(0+128),f
  6388     1EB5  02B5               	subwf	(___awmod@dividend+1)^(0+128),f
  6389     1EB6                     l3865:
  6390     1EB6  3001               	movlw	1
  6391     1EB7                     u5225:
  6392     1EB7  1003               	clrc
  6393     1EB8  0CB3               	rrf	(___awmod@divisor+1)^(0+128),f
  6394     1EB9  0CB2               	rrf	___awmod@divisor^(0+128),f
  6395     1EBA  3EFF               	addlw	-1
  6396     1EBB  1D03               	skipz
  6397     1EBC  2EB7               	goto	u5225
  6398     1EBD                     l3867:
  6399     1EBD  3001               	movlw	1
  6400     1EBE  02B6               	subwf	___awmod@counter^(0+128),f
  6401     1EBF  1D03               	btfss	3,2
  6402     1EC0  2EC2               	goto	u5231
  6403     1EC1  2EC3               	goto	u5230
  6404     1EC2                     u5231:
  6405     1EC2  2EA6               	goto	l3861
  6406     1EC3                     u5230:
  6407     1EC3                     l3869:
  6408     1EC3  0837               	movf	___awmod@sign^(0+128),w
  6409     1EC4  1903               	btfsc	3,2
  6410     1EC5  2EC7               	goto	u5241
  6411     1EC6  2EC8               	goto	u5240
  6412     1EC7                     u5241:
  6413     1EC7  2ECD               	goto	l3873
  6414     1EC8                     u5240:
  6415     1EC8                     l3871:
  6416     1EC8  09B4               	comf	___awmod@dividend^(0+128),f
  6417     1EC9  09B5               	comf	(___awmod@dividend+1)^(0+128),f
  6418     1ECA  0AB4               	incf	___awmod@dividend^(0+128),f
  6419     1ECB  1903               	skipnz
  6420     1ECC  0AB5               	incf	(___awmod@dividend+1)^(0+128),f
  6421     1ECD                     l3873:
  6422     1ECD  0835               	movf	(___awmod@dividend+1)^(0+128),w
  6423     1ECE  00B3               	movwf	(?___awmod+1)^(0+128)
  6424     1ECF  0834               	movf	___awmod@dividend^(0+128),w
  6425     1ED0  00B2               	movwf	?___awmod^(0+128)
  6426     1ED1                     l328:
  6427     1ED1  0008               	return
  6428     1ED2                     __end_of___awmod:
  6429                           
  6430                           	psect	text17
  6431     1F35                     __ptext17:	
  6432 ;; *************** function ___awdiv *****************
  6433 ;; Defined at:
  6434 ;;		line 5 in file "C:\Program Files\Microchip\xc8\v2.50\pic\sources\c99\common\awdiv.c"
  6435 ;; Parameters:    Size  Location     Type
  6436 ;;  divisor         2   18[BANK1 ] int 
  6437 ;;  dividend        2   20[BANK1 ] int 
  6438 ;; Auto vars:     Size  Location     Type
  6439 ;;  quotient        2   24[BANK1 ] int 
  6440 ;;  sign            1   23[BANK1 ] unsigned char 
  6441 ;;  counter         1   22[BANK1 ] unsigned char 
  6442 ;; Return value:  Size  Location     Type
  6443 ;;                  2   18[BANK1 ] int 
  6444 ;; Registers used:
  6445 ;;		wreg, status,2, status,0
  6446 ;; Tracked objects:
  6447 ;;		On entry : 0/0
  6448 ;;		On exit  : 0/0
  6449 ;;		Unchanged: 0/0
  6450 ;; Data sizes:     COMMON   BANK0   BANK1   BANK3   BANK2
  6451 ;;      Params:         0       0       4       0       0
  6452 ;;      Locals:         0       0       4       0       0
  6453 ;;      Temps:          0       0       0       0       0
  6454 ;;      Totals:         0       0       8       0       0
  6455 ;;Total ram usage:        8 bytes
  6456 ;; Hardware stack levels used: 1
  6457 ;; Hardware stack levels required when called: 9
  6458 ;; This function calls:
  6459 ;;		Nothing
  6460 ;; This function is called by:
  6461 ;;		_dtoa
  6462 ;; This function uses a non-reentrant model
  6463 ;;
  6464                           
  6465     1F35                     ___awdiv:	
  6466                           ;psect for function ___awdiv
  6467                           
  6468     1F35                     l3795:	
  6469                           ;incstack = 0
  6470 ;; hardware stack exceeded
  6471                           ; Regs used in ___awdiv: [wreg+status,2+status,0]
  6472                           
  6473     1F35  1683               	bsf	3,5	;RP0=1, select bank1
  6474     1F36  1303               	bcf	3,6	;RP1=0, select bank1
  6475     1F37  01B7               	clrf	___awdiv@sign^(0+128)
  6476     1F38                     l3797:
  6477     1F38  1FB3               	btfss	(___awdiv@divisor+1)^(0+128),7
  6478     1F39  2F3B               	goto	u5061
  6479     1F3A  2F3C               	goto	u5060
  6480     1F3B                     u5061:
  6481     1F3B  2F43               	goto	l3803
  6482     1F3C                     u5060:
  6483     1F3C                     l3799:
  6484     1F3C  09B2               	comf	___awdiv@divisor^(0+128),f
  6485     1F3D  09B3               	comf	(___awdiv@divisor+1)^(0+128),f
  6486     1F3E  0AB2               	incf	___awdiv@divisor^(0+128),f
  6487     1F3F  1903               	skipnz
  6488     1F40  0AB3               	incf	(___awdiv@divisor+1)^(0+128),f
  6489     1F41                     l3801:
  6490     1F41  3001               	movlw	1
  6491     1F42  00B7               	movwf	___awdiv@sign^(0+128)
  6492     1F43                     l3803:
  6493     1F43  1FB5               	btfss	(___awdiv@dividend+1)^(0+128),7
  6494     1F44  2F46               	goto	u5071
  6495     1F45  2F47               	goto	u5070
  6496     1F46                     u5071:
  6497     1F46  2F4E               	goto	l3809
  6498     1F47                     u5070:
  6499     1F47                     l3805:
  6500     1F47  09B4               	comf	___awdiv@dividend^(0+128),f
  6501     1F48  09B5               	comf	(___awdiv@dividend+1)^(0+128),f
  6502     1F49  0AB4               	incf	___awdiv@dividend^(0+128),f
  6503     1F4A  1903               	skipnz
  6504     1F4B  0AB5               	incf	(___awdiv@dividend+1)^(0+128),f
  6505     1F4C                     l3807:
  6506     1F4C  3001               	movlw	1
  6507     1F4D  06B7               	xorwf	___awdiv@sign^(0+128),f
  6508     1F4E                     l3809:
  6509     1F4E  01B8               	clrf	___awdiv@quotient^(0+128)
  6510     1F4F  01B9               	clrf	(___awdiv@quotient+1)^(0+128)
  6511     1F50                     l3811:
  6512     1F50  0832               	movf	___awdiv@divisor^(0+128),w
  6513     1F51  0433               	iorwf	(___awdiv@divisor+1)^(0+128),w
  6514     1F52  1903               	btfsc	3,2
  6515     1F53  2F55               	goto	u5081
  6516     1F54  2F56               	goto	u5080
  6517     1F55                     u5081:
  6518     1F55  2F8B               	goto	l3831
  6519     1F56                     u5080:
  6520     1F56                     l3813:
  6521     1F56  3001               	movlw	1
  6522     1F57  00B6               	movwf	___awdiv@counter^(0+128)
  6523     1F58  2F62               	goto	l3819
  6524     1F59                     l3815:
  6525     1F59  3001               	movlw	1
  6526     1F5A                     u5095:
  6527     1F5A  1003               	clrc
  6528     1F5B  0DB2               	rlf	___awdiv@divisor^(0+128),f
  6529     1F5C  0DB3               	rlf	(___awdiv@divisor+1)^(0+128),f
  6530     1F5D  3EFF               	addlw	-1
  6531     1F5E  1D03               	skipz
  6532     1F5F  2F5A               	goto	u5095
  6533     1F60                     l3817:
  6534     1F60  3001               	movlw	1
  6535     1F61  07B6               	addwf	___awdiv@counter^(0+128),f
  6536     1F62                     l3819:
  6537     1F62  1FB3               	btfss	(___awdiv@divisor+1)^(0+128),7
  6538     1F63  2F65               	goto	u5101
  6539     1F64  2F66               	goto	u5100
  6540     1F65                     u5101:
  6541     1F65  2F59               	goto	l3815
  6542     1F66                     u5100:
  6543     1F66                     l3821:
  6544     1F66  3001               	movlw	1
  6545     1F67                     u5115:
  6546     1F67  1003               	clrc
  6547     1F68  0DB8               	rlf	___awdiv@quotient^(0+128),f
  6548     1F69  0DB9               	rlf	(___awdiv@quotient+1)^(0+128),f
  6549     1F6A  3EFF               	addlw	-1
  6550     1F6B  1D03               	skipz
  6551     1F6C  2F67               	goto	u5115
  6552     1F6D  0833               	movf	(___awdiv@divisor+1)^(0+128),w
  6553     1F6E  0235               	subwf	(___awdiv@dividend+1)^(0+128),w
  6554     1F6F  1D03               	skipz
  6555     1F70  2F73               	goto	u5125
  6556     1F71  0832               	movf	___awdiv@divisor^(0+128),w
  6557     1F72  0234               	subwf	___awdiv@dividend^(0+128),w
  6558     1F73                     u5125:
  6559     1F73  1C03               	skipc
  6560     1F74  2F76               	goto	u5121
  6561     1F75  2F77               	goto	u5120
  6562     1F76                     u5121:
  6563     1F76  2F7E               	goto	l3827
  6564     1F77                     u5120:
  6565     1F77                     l3823:
  6566     1F77  0832               	movf	___awdiv@divisor^(0+128),w
  6567     1F78  02B4               	subwf	___awdiv@dividend^(0+128),f
  6568     1F79  0833               	movf	(___awdiv@divisor+1)^(0+128),w
  6569     1F7A  1C03               	skipc
  6570     1F7B  03B5               	decf	(___awdiv@dividend+1)^(0+128),f
  6571     1F7C  02B5               	subwf	(___awdiv@dividend+1)^(0+128),f
  6572     1F7D                     l3825:
  6573     1F7D  1438               	bsf	___awdiv@quotient^(0+128),0
  6574     1F7E                     l3827:
  6575     1F7E  3001               	movlw	1
  6576     1F7F                     u5135:
  6577     1F7F  1003               	clrc
  6578     1F80  0CB3               	rrf	(___awdiv@divisor+1)^(0+128),f
  6579     1F81  0CB2               	rrf	___awdiv@divisor^(0+128),f
  6580     1F82  3EFF               	addlw	-1
  6581     1F83  1D03               	skipz
  6582     1F84  2F7F               	goto	u5135
  6583     1F85                     l3829:
  6584     1F85  3001               	movlw	1
  6585     1F86  02B6               	subwf	___awdiv@counter^(0+128),f
  6586     1F87  1D03               	btfss	3,2
  6587     1F88  2F8A               	goto	u5141
  6588     1F89  2F8B               	goto	u5140
  6589     1F8A                     u5141:
  6590     1F8A  2F66               	goto	l3821
  6591     1F8B                     u5140:
  6592     1F8B                     l3831:
  6593     1F8B  0837               	movf	___awdiv@sign^(0+128),w
  6594     1F8C  1903               	btfsc	3,2
  6595     1F8D  2F8F               	goto	u5151
  6596     1F8E  2F90               	goto	u5150
  6597     1F8F                     u5151:
  6598     1F8F  2F95               	goto	l3835
  6599     1F90                     u5150:
  6600     1F90                     l3833:
  6601     1F90  09B8               	comf	___awdiv@quotient^(0+128),f
  6602     1F91  09B9               	comf	(___awdiv@quotient+1)^(0+128),f
  6603     1F92  0AB8               	incf	___awdiv@quotient^(0+128),f
  6604     1F93  1903               	skipnz
  6605     1F94  0AB9               	incf	(___awdiv@quotient+1)^(0+128),f
  6606     1F95                     l3835:
  6607     1F95  0839               	movf	(___awdiv@quotient+1)^(0+128),w
  6608     1F96  00B3               	movwf	(?___awdiv+1)^(0+128)
  6609     1F97  0838               	movf	___awdiv@quotient^(0+128),w
  6610     1F98  00B2               	movwf	?___awdiv^(0+128)
  6611     1F99                     l315:
  6612     1F99  0008               	return
  6613     1F9A                     __end_of___awdiv:
  6614                           
  6615                           	psect	text18
  6616     115B                     __ptext18:	
  6617 ;; *************** function _ctoa *****************
  6618 ;; Defined at:
  6619 ;;		line 476 in file "C:\Program Files\Microchip\xc8\v2.50\pic\sources\c99\common\doprnt.c"
  6620 ;; Parameters:    Size  Location     Type
  6621 ;;  fp              2   31[BANK1 ] PTR struct _IO_FILE
  6622 ;;		 -> sprintf@f(11), 
  6623 ;;  c               1   33[BANK1 ] unsigned char 
  6624 ;; Auto vars:     Size  Location     Type
  6625 ;;  w               2   38[BANK1 ] int 
  6626 ;;  l               2   36[BANK1 ] int 
  6627 ;; Return value:  Size  Location     Type
  6628 ;;                  2   31[BANK1 ] int 
  6629 ;; Registers used:
  6630 ;;		wreg, fsr0l, fsr0h, status,2, status,0, pclath, cstack
  6631 ;; Tracked objects:
  6632 ;;		On entry : 0/0
  6633 ;;		On exit  : 0/0
  6634 ;;		Unchanged: 0/0
  6635 ;; Data sizes:     COMMON   BANK0   BANK1   BANK3   BANK2
  6636 ;;      Params:         0       0       3       0       0
  6637 ;;      Locals:         0       0       4       0       0
  6638 ;;      Temps:          0       0       2       0       0
  6639 ;;      Totals:         0       0       9       0       0
  6640 ;;Total ram usage:        9 bytes
  6641 ;; Hardware stack levels used: 1
  6642 ;; Hardware stack levels required when called: 11
  6643 ;; This function calls:
  6644 ;;		_fputc
  6645 ;; This function is called by:
  6646 ;;		_vfpfcnvrt
  6647 ;; This function uses a non-reentrant model
  6648 ;;
  6649                           
  6650     115B                     _ctoa:	
  6651                           ;psect for function _ctoa
  6652                           
  6653     115B                     l3951:	
  6654                           ;incstack = 0
  6655 ;; hardware stack exceeded
  6656                           ; Regs used in _ctoa: [wreg-fsr0h+status,2+status,0+pclath+cstack]
  6657                           
  6658                           
  6659                           ;C:\Program Files\Microchip\xc8\v2.50\pic\sources\c99\common\doprnt.c: 476: static int c
      +                          toa(FILE *fp, char c);C:\Program Files\Microchip\xc8\v2.50\pic\sources\c99\common\doprnt
      +                          .c: 477: {;C:\Program Files\Microchip\xc8\v2.50\pic\sources\c99\common\doprnt.c: 478:   
      +                            int l,w;;C:\Program Files\Microchip\xc8\v2.50\pic\sources\c99\common\doprnt.c: 481:   
      +                            w = width ? width - 1 : width;
  6660     115B  1683               	bsf	3,5	;RP0=1, select bank1
  6661     115C  1303               	bcf	3,6	;RP1=0, select bank1
  6662     115D  0857               	movf	_width^(0+128),w
  6663     115E  0458               	iorwf	(_width+1)^(0+128),w
  6664     115F  1D03               	btfss	3,2
  6665     1160  2962               	goto	u5431
  6666     1161  2963               	goto	u5430
  6667     1162                     u5431:
  6668     1162  2968               	goto	l3955
  6669     1163                     u5430:
  6670     1163                     l3953:
  6671     1163  0858               	movf	(_width+1)^(0+128),w
  6672     1164  00C7               	movwf	(ctoa@w+1)^(0+128)
  6673     1165  0857               	movf	_width^(0+128),w
  6674     1166  00C6               	movwf	ctoa@w^(0+128)
  6675     1167  2970               	goto	l3957
  6676     1168                     l3955:
  6677     1168  0857               	movf	_width^(0+128),w
  6678     1169  3EFF               	addlw	255
  6679     116A  00C6               	movwf	ctoa@w^(0+128)
  6680     116B  0858               	movf	(_width+1)^(0+128),w
  6681     116C  1803               	skipnc
  6682     116D  3E01               	addlw	1
  6683     116E  3EFF               	addlw	255
  6684     116F  00C7               	movwf	(ctoa@w+1)^(0+128)
  6685     1170                     l3957:
  6686                           
  6687                           ;C:\Program Files\Microchip\xc8\v2.50\pic\sources\c99\common\doprnt.c: 485:     if (flag
      +                          s & (1 << 0)) {
  6688     1170  1C5D               	btfss	_flags^(0+128),0
  6689     1171  2973               	goto	u5441
  6690     1172  2974               	goto	u5440
  6691     1173                     u5441:
  6692     1173  2984               	goto	l3961
  6693     1174                     u5440:
  6694     1174                     l3959:
  6695                           
  6696                           ;C:\Program Files\Microchip\xc8\v2.50\pic\sources\c99\common\doprnt.c: 486:         fput
      +                          c(c, fp);
  6697     1174  0841               	movf	ctoa@c^(0+128),w
  6698     1175  00C2               	movwf	??_ctoa^(0+128)
  6699     1176  01C3               	clrf	(??_ctoa^(0+128)+1)
  6700     1177  0842               	movf	??_ctoa^(0+128),w
  6701     1178  00B2               	movwf	fputc@c^(0+128)
  6702     1179  0843               	movf	(??_ctoa+1)^(0+128),w
  6703     117A  00B3               	movwf	(fputc@c+1)^(0+128)
  6704     117B  083F               	movf	ctoa@fp^(0+128),w
  6705     117C  00B4               	movwf	fputc@fp^(0+128)
  6706     117D  0840               	movf	(ctoa@fp+1)^(0+128),w
  6707     117E  00B5               	movwf	(fputc@fp+1)^(0+128)
  6708     117F  120A  158A  200E  160A  118A  	fcall	_fputc
  6709     1184                     l3961:
  6710                           
  6711                           ;C:\Program Files\Microchip\xc8\v2.50\pic\sources\c99\common\doprnt.c: 491:     w = (w <
      +                           0) ? 0 : w;
  6712     1184  1683               	bsf	3,5	;RP0=1, select bank1
  6713     1185  1303               	bcf	3,6	;RP1=0, select bank1
  6714     1186  1BC7               	btfsc	(ctoa@w+1)^(0+128),7
  6715     1187  2989               	goto	u5451
  6716     1188  298A               	goto	u5450
  6717     1189                     u5451:
  6718     1189  298B               	goto	l3965
  6719     118A                     u5450:
  6720     118A  298D               	goto	l665
  6721     118B                     l3965:
  6722     118B  01C6               	clrf	ctoa@w^(0+128)
  6723     118C  01C7               	clrf	(ctoa@w+1)^(0+128)
  6724     118D                     l665:
  6725                           
  6726                           ;C:\Program Files\Microchip\xc8\v2.50\pic\sources\c99\common\doprnt.c: 492:     l = 0;
  6727     118D  01C4               	clrf	ctoa@l^(0+128)
  6728     118E  01C5               	clrf	(ctoa@l+1)^(0+128)
  6729                           
  6730                           ;C:\Program Files\Microchip\xc8\v2.50\pic\sources\c99\common\doprnt.c: 493:     while (l
      +                           < w) {
  6731     118F  29A7               	goto	l3971
  6732     1190                     l3967:
  6733                           
  6734                           ;C:\Program Files\Microchip\xc8\v2.50\pic\sources\c99\common\doprnt.c: 494:         fput
      +                          c(' ', fp);
  6735     1190  3020               	movlw	32
  6736     1191  1683               	bsf	3,5	;RP0=1, select bank1
  6737     1192  1303               	bcf	3,6	;RP1=0, select bank1
  6738     1193  00B2               	movwf	fputc@c^(0+128)
  6739     1194  3000               	movlw	0
  6740     1195  00B3               	movwf	(fputc@c^(0+128)+1)
  6741     1196  083F               	movf	ctoa@fp^(0+128),w
  6742     1197  00B4               	movwf	fputc@fp^(0+128)
  6743     1198  0840               	movf	(ctoa@fp+1)^(0+128),w
  6744     1199  00B5               	movwf	(fputc@fp+1)^(0+128)
  6745     119A  120A  158A  200E  160A  118A  	fcall	_fputc
  6746     119F                     l3969:
  6747                           
  6748                           ;C:\Program Files\Microchip\xc8\v2.50\pic\sources\c99\common\doprnt.c: 495:         ++l;
  6749     119F  3001               	movlw	1
  6750     11A0  1683               	bsf	3,5	;RP0=1, select bank1
  6751     11A1  1303               	bcf	3,6	;RP1=0, select bank1
  6752     11A2  07C4               	addwf	ctoa@l^(0+128),f
  6753     11A3  1803               	skipnc
  6754     11A4  0AC5               	incf	(ctoa@l+1)^(0+128),f
  6755     11A5  3000               	movlw	0
  6756     11A6  07C5               	addwf	(ctoa@l+1)^(0+128),f
  6757     11A7                     l3971:
  6758                           
  6759                           ;C:\Program Files\Microchip\xc8\v2.50\pic\sources\c99\common\doprnt.c: 493:     while (l
      +                           < w) {
  6760     11A7  0845               	movf	(ctoa@l+1)^(0+128),w
  6761     11A8  3A80               	xorlw	128
  6762     11A9  00C2               	movwf	??_ctoa^(0+128)
  6763     11AA  0847               	movf	(ctoa@w+1)^(0+128),w
  6764     11AB  3A80               	xorlw	128
  6765     11AC  0242               	subwf	??_ctoa^(0+128),w
  6766     11AD  1D03               	skipz
  6767     11AE  29B1               	goto	u5465
  6768     11AF  0846               	movf	ctoa@w^(0+128),w
  6769     11B0  0244               	subwf	ctoa@l^(0+128),w
  6770     11B1                     u5465:
  6771     11B1  1C03               	skipc
  6772     11B2  29B4               	goto	u5461
  6773     11B3  29B5               	goto	u5460
  6774     11B4                     u5461:
  6775     11B4  2990               	goto	l3967
  6776     11B5                     u5460:
  6777     11B5                     l668:
  6778                           
  6779                           ;C:\Program Files\Microchip\xc8\v2.50\pic\sources\c99\common\doprnt.c: 499:     if (!(fl
      +                          ags & (1 << 0))) {
  6780     11B5  1683               	bsf	3,5	;RP0=1, select bank1
  6781     11B6  1303               	bcf	3,6	;RP1=0, select bank1
  6782     11B7  185D               	btfsc	_flags^(0+128),0
  6783     11B8  29BA               	goto	u5471
  6784     11B9  29BB               	goto	u5470
  6785     11BA                     u5471:
  6786     11BA  29CB               	goto	l3975
  6787     11BB                     u5470:
  6788     11BB                     l3973:
  6789                           
  6790                           ;C:\Program Files\Microchip\xc8\v2.50\pic\sources\c99\common\doprnt.c: 501:         fput
      +                          c(c, fp);
  6791     11BB  0841               	movf	ctoa@c^(0+128),w
  6792     11BC  00C2               	movwf	??_ctoa^(0+128)
  6793     11BD  01C3               	clrf	(??_ctoa^(0+128)+1)
  6794     11BE  0842               	movf	??_ctoa^(0+128),w
  6795     11BF  00B2               	movwf	fputc@c^(0+128)
  6796     11C0  0843               	movf	(??_ctoa+1)^(0+128),w
  6797     11C1  00B3               	movwf	(fputc@c+1)^(0+128)
  6798     11C2  083F               	movf	ctoa@fp^(0+128),w
  6799     11C3  00B4               	movwf	fputc@fp^(0+128)
  6800     11C4  0840               	movf	(ctoa@fp+1)^(0+128),w
  6801     11C5  00B5               	movwf	(fputc@fp+1)^(0+128)
  6802     11C6  120A  158A  200E  160A  118A  	fcall	_fputc
  6803     11CB                     l3975:
  6804                           
  6805                           ;C:\Program Files\Microchip\xc8\v2.50\pic\sources\c99\common\doprnt.c: 507:     return l
      +                          +1;
  6806     11CB  1683               	bsf	3,5	;RP0=1, select bank1
  6807     11CC  1303               	bcf	3,6	;RP1=0, select bank1
  6808     11CD  0844               	movf	ctoa@l^(0+128),w
  6809     11CE  3E01               	addlw	1
  6810     11CF  00BF               	movwf	?_ctoa^(0+128)
  6811     11D0  0845               	movf	(ctoa@l+1)^(0+128),w
  6812     11D1  1803               	skipnc
  6813     11D2  3E01               	addlw	1
  6814     11D3  3E00               	addlw	0
  6815     11D4  00C0               	movwf	(?_ctoa+1)^(0+128)
  6816     11D5                     l670:
  6817     11D5  0008               	return
  6818     11D6                     __end_of_ctoa:
  6819                           
  6820                           	psect	text19
  6821     080E                     __ptext19:	
  6822 ;; *************** function _fputc *****************
  6823 ;; Defined at:
  6824 ;;		line 8 in file "C:\Program Files\Microchip\xc8\v2.50\pic\sources\c99\common\nf_fputc.c"
  6825 ;; Parameters:    Size  Location     Type
  6826 ;;  c               2   18[BANK1 ] int 
  6827 ;;  fp              2   20[BANK1 ] PTR struct _IO_FILE
  6828 ;;		 -> sprintf@f(11), 
  6829 ;; Auto vars:     Size  Location     Type
  6830 ;;		None
  6831 ;; Return value:  Size  Location     Type
  6832 ;;                  2   18[BANK1 ] int 
  6833 ;; Registers used:
  6834 ;;		wreg, fsr0l, fsr0h, status,2, status,0, pclath, cstack
  6835 ;; Tracked objects:
  6836 ;;		On entry : 0/0
  6837 ;;		On exit  : 0/0
  6838 ;;		Unchanged: 0/0
  6839 ;; Data sizes:     COMMON   BANK0   BANK1   BANK3   BANK2
  6840 ;;      Params:         0       0       4       0       0
  6841 ;;      Locals:         0       0       0       0       0
  6842 ;;      Temps:          0       0       9       0       0
  6843 ;;      Totals:         0       0      13       0       0
  6844 ;;Total ram usage:       13 bytes
  6845 ;; Hardware stack levels used: 1
  6846 ;; Hardware stack levels required when called: 10
  6847 ;; This function calls:
  6848 ;;		_putch
  6849 ;; This function is called by:
  6850 ;;		_pad
  6851 ;;		_ctoa
  6852 ;;		_vfpfcnvrt
  6853 ;;		_fputs
  6854 ;; This function uses a non-reentrant model
  6855 ;;
  6856                           
  6857     080E                     _fputc:	
  6858                           ;psect for function _fputc
  6859                           
  6860     080E                     l3763:	
  6861                           ;incstack = 0
  6862 ;; hardware stack exceeded
  6863                           ; Regs used in _fputc: [wreg-fsr0h+status,2+status,0+pclath+cstack]
  6864                           
  6865     080E  1683               	bsf	3,5	;RP0=1, select bank1
  6866     080F  1303               	bcf	3,6	;RP1=0, select bank1
  6867     0810  0834               	movf	fputc@fp^(0+128),w
  6868     0811  0435               	iorwf	(fputc@fp+1)^(0+128),w
  6869     0812  1903               	btfsc	3,2
  6870     0813  2815               	goto	u4991
  6871     0814  2816               	goto	u4990
  6872     0815                     u4991:
  6873     0815  281C               	goto	l3767
  6874     0816                     u4990:
  6875     0816                     l3765:
  6876     0816  0834               	movf	fputc@fp^(0+128),w
  6877     0817  0435               	iorwf	(fputc@fp+1)^(0+128),w
  6878     0818  1D03               	btfss	3,2
  6879     0819  281B               	goto	u5001
  6880     081A  281C               	goto	u5000
  6881     081B                     u5001:
  6882     081B  2823               	goto	l3769
  6883     081C                     u5000:
  6884     081C                     l3767:
  6885     081C  0832               	movf	fputc@c^(0+128),w
  6886     081D  120A  118A  27FE  120A  158A  	fcall	_putch
  6887     0822  28AD               	goto	l852
  6888     0823                     l3769:
  6889     0823  0834               	movf	fputc@fp^(0+128),w
  6890     0824  3E09               	addlw	9
  6891     0825  00B6               	movwf	??_fputc^(0+128)
  6892     0826  0835               	movf	(fputc@fp+1)^(0+128),w
  6893     0827  1803               	skipnc
  6894     0828  3E01               	addlw	1
  6895     0829  3E00               	addlw	0
  6896     082A  00B7               	movwf	(??_fputc+1)^(0+128)
  6897     082B  0836               	movf	??_fputc^(0+128),w
  6898     082C  0084               	movwf	4
  6899     082D  1783               	bsf	3,7
  6900     082E  1C37               	btfss	(??_fputc+1)^(0+128),0
  6901     082F  1383               	bcf	3,7
  6902     0830  0800               	movf	0,w
  6903     0831  00B8               	movwf	(??_fputc+2)^(0+128)
  6904     0832  0A84               	incf	4,f
  6905     0833  0800               	movf	0,w
  6906     0834  00B9               	movwf	((??_fputc+2)^(0+128)+1)
  6907     0835  0838               	movf	(??_fputc+2)^(0+128),w
  6908     0836  0439               	iorwf	((??_fputc+2)^(0+128)+1),w
  6909     0837  1903               	btfsc	3,2
  6910     0838  283A               	goto	u5011
  6911     0839  283B               	goto	u5010
  6912     083A                     u5011:
  6913     083A  286D               	goto	l3773
  6914     083B                     u5010:
  6915     083B                     l3771:
  6916     083B  0834               	movf	fputc@fp^(0+128),w
  6917     083C  3E09               	addlw	9
  6918     083D  00B6               	movwf	??_fputc^(0+128)
  6919     083E  0835               	movf	(fputc@fp+1)^(0+128),w
  6920     083F  1803               	skipnc
  6921     0840  3E01               	addlw	1
  6922     0841  3E00               	addlw	0
  6923     0842  00B7               	movwf	(??_fputc+1)^(0+128)
  6924     0843  0836               	movf	??_fputc^(0+128),w
  6925     0844  0084               	movwf	4
  6926     0845  1783               	bsf	3,7
  6927     0846  1C37               	btfss	(??_fputc+1)^(0+128),0
  6928     0847  1383               	bcf	3,7
  6929     0848  0800               	movf	0,w
  6930     0849  00B8               	movwf	(??_fputc+2)^(0+128)
  6931     084A  0A84               	incf	4,f
  6932     084B  0800               	movf	0,w
  6933     084C  00B9               	movwf	((??_fputc+2)^(0+128)+1)
  6934     084D  0834               	movf	fputc@fp^(0+128),w
  6935     084E  3E02               	addlw	2
  6936     084F  00BA               	movwf	(??_fputc+4)^(0+128)
  6937     0850  0835               	movf	(fputc@fp+1)^(0+128),w
  6938     0851  1803               	skipnc
  6939     0852  3E01               	addlw	1
  6940     0853  3E00               	addlw	0
  6941     0854  00BB               	movwf	(??_fputc+5)^(0+128)
  6942     0855  083A               	movf	(??_fputc+4)^(0+128),w
  6943     0856  0084               	movwf	4
  6944     0857  1783               	bsf	3,7
  6945     0858  1C3B               	btfss	(??_fputc+5)^(0+128),0
  6946     0859  1383               	bcf	3,7
  6947     085A  0800               	movf	0,w
  6948     085B  00BC               	movwf	(??_fputc+6)^(0+128)
  6949     085C  0A84               	incf	4,f
  6950     085D  0800               	movf	0,w
  6951     085E  00BD               	movwf	((??_fputc+6)^(0+128)+1)
  6952     085F  083D               	movf	(??_fputc+7)^(0+128),w
  6953     0860  3A80               	xorlw	128
  6954     0861  00BE               	movwf	(??_fputc+8)^(0+128)
  6955     0862  0839               	movf	(??_fputc+3)^(0+128),w
  6956     0863  3A80               	xorlw	128
  6957     0864  023E               	subwf	(??_fputc+8)^(0+128),w
  6958     0865  1D03               	skipz
  6959     0866  2869               	goto	u5025
  6960     0867  0838               	movf	(??_fputc+2)^(0+128),w
  6961     0868  023C               	subwf	(??_fputc+6)^(0+128),w
  6962     0869                     u5025:
  6963     0869  1803               	skipnc
  6964     086A  286C               	goto	u5021
  6965     086B  286D               	goto	u5020
  6966     086C                     u5021:
  6967     086C  28AD               	goto	l852
  6968     086D                     u5020:
  6969     086D                     l3773:
  6970     086D  1683               	bsf	3,5	;RP0=1, select bank1
  6971     086E  1303               	bcf	3,6	;RP1=0, select bank1
  6972     086F  0834               	movf	fputc@fp^(0+128),w
  6973     0870  0084               	movwf	4
  6974     0871  1783               	bsf	3,7
  6975     0872  1C35               	btfss	(fputc@fp+1)^(0+128),0
  6976     0873  1383               	bcf	3,7
  6977     0874  0800               	movf	0,w
  6978     0875  00B6               	movwf	??_fputc^(0+128)
  6979     0876  0A84               	incf	4,f
  6980     0877  0800               	movf	0,w
  6981     0878  00B7               	movwf	(??_fputc^(0+128)+1)
  6982     0879  0834               	movf	fputc@fp^(0+128),w
  6983     087A  3E02               	addlw	2
  6984     087B  00B8               	movwf	(??_fputc+2)^(0+128)
  6985     087C  0835               	movf	(fputc@fp+1)^(0+128),w
  6986     087D  1803               	skipnc
  6987     087E  3E01               	addlw	1
  6988     087F  3E00               	addlw	0
  6989     0880  00B9               	movwf	(??_fputc+3)^(0+128)
  6990     0881  0838               	movf	(??_fputc+2)^(0+128),w
  6991     0882  0084               	movwf	4
  6992     0883  1783               	bsf	3,7
  6993     0884  1C39               	btfss	(??_fputc+3)^(0+128),0
  6994     0885  1383               	bcf	3,7
  6995     0886  0800               	movf	0,w
  6996     0887  0736               	addwf	??_fputc^(0+128),w
  6997     0888  00BB               	movwf	(??_fputc+5)^(0+128)
  6998     0889  0837               	movf	(??_fputc+1)^(0+128),w
  6999     088A  00BA               	movwf	(??_fputc+4)^(0+128)
  7000     088B  1803               	skipnc
  7001     088C  0ABA               	incf	(??_fputc+4)^(0+128),f
  7002     088D  1F80               	btfss	0,7
  7003     088E  2890               	goto	u5030
  7004     088F  03BA               	decf	(??_fputc+4)^(0+128),f
  7005     0890                     u5030:
  7006     0890  1683               	bsf	3,5	;RP0=1, select bank1
  7007     0891  1303               	bcf	3,6	;RP1=0, select bank1
  7008     0892  083A               	movf	(??_fputc+4)^(0+128),w
  7009     0893  00BC               	movwf	((??_fputc+5)^(0+128)+1)
  7010     0894  083B               	movf	(??_fputc+5)^(0+128),w
  7011     0895  0084               	movwf	4
  7012     0896  1783               	bsf	3,7
  7013     0897  1C3C               	btfss	(??_fputc+6)^(0+128),0
  7014     0898  1383               	bcf	3,7
  7015     0899  0832               	movf	fputc@c^(0+128),w
  7016     089A  0080               	movwf	0
  7017     089B  0834               	movf	fputc@fp^(0+128),w
  7018     089C  3E02               	addlw	2
  7019     089D  00B6               	movwf	??_fputc^(0+128)
  7020     089E  0835               	movf	(fputc@fp+1)^(0+128),w
  7021     089F  1803               	skipnc
  7022     08A0  3E01               	addlw	1
  7023     08A1  3E00               	addlw	0
  7024     08A2  00B7               	movwf	(??_fputc+1)^(0+128)
  7025     08A3  0836               	movf	??_fputc^(0+128),w
  7026     08A4  0084               	movwf	4
  7027     08A5  1783               	bsf	3,7
  7028     08A6  1C37               	btfss	(??_fputc+1)^(0+128),0
  7029     08A7  1383               	bcf	3,7
  7030     08A8  3001               	movlw	1
  7031     08A9  0780               	addwf	0,f
  7032     08AA  0A84               	incf	4,f
  7033     08AB  1803               	skipnc
  7034     08AC  0A80               	incf	0,f
  7035     08AD                     l852:
  7036     08AD  0008               	return
  7037     08AE                     __end_of_fputc:
  7038                           
  7039                           	psect	text20
  7040     07FE                     __ptext20:	
  7041 ;; *************** function _putch *****************
  7042 ;; Defined at:
  7043 ;;		line 7 in file "C:\Program Files\Microchip\xc8\v2.50\pic\sources\c99\common\putch.c"
  7044 ;; Parameters:    Size  Location     Type
  7045 ;;  c               1    wreg     unsigned char 
  7046 ;; Auto vars:     Size  Location     Type
  7047 ;;  c               1    0[COMMON] unsigned char 
  7048 ;; Return value:  Size  Location     Type
  7049 ;;                  1    wreg      void 
  7050 ;; Registers used:
  7051 ;;		wreg
  7052 ;; Tracked objects:
  7053 ;;		On entry : 0/0
  7054 ;;		On exit  : 0/0
  7055 ;;		Unchanged: 0/0
  7056 ;; Data sizes:     COMMON   BANK0   BANK1   BANK3   BANK2
  7057 ;;      Params:         0       0       0       0       0
  7058 ;;      Locals:         0       0       0       0       0
  7059 ;;      Temps:          0       0       0       0       0
  7060 ;;      Totals:         0       0       0       0       0
  7061 ;;Total ram usage:        0 bytes
  7062 ;; Hardware stack levels used: 1
  7063 ;; Hardware stack levels required when called: 9
  7064 ;; This function calls:
  7065 ;;		Nothing
  7066 ;; This function is called by:
  7067 ;;		_fputc
  7068 ;; This function uses a non-reentrant model
  7069 ;;
  7070                           
  7071     07FE                     _putch:	
  7072                           ;psect for function _putch
  7073                           
  7074     07FE                     l863:	
  7075                           ;incstack = 0
  7076 ;; hardware stack exceeded
  7077                           ; Regs used in _putch: [wreg]
  7078                           
  7079     07FE  0008               	return
  7080     07FF                     __end_of_putch:
  7081                           
  7082                           	psect	text21
  7083     1C15                     __ptext21:	
  7084 ;; *************** function _display *****************
  7085 ;; Defined at:
  7086 ;;		line 106 in file "newmain.c"
  7087 ;; Parameters:    Size  Location     Type
  7088 ;;  RS              2   18[BANK1 ] int 
  7089 ;;  DC              2   20[BANK1 ] int 
  7090 ;; Auto vars:     Size  Location     Type
  7091 ;;		None
  7092 ;; Return value:  Size  Location     Type
  7093 ;;                  1    wreg      void 
  7094 ;; Registers used:
  7095 ;;		wreg
  7096 ;; Tracked objects:
  7097 ;;		On entry : 0/0
  7098 ;;		On exit  : 0/0
  7099 ;;		Unchanged: 0/0
  7100 ;; Data sizes:     COMMON   BANK0   BANK1   BANK3   BANK2
  7101 ;;      Params:         0       0       4       0       0
  7102 ;;      Locals:         0       0       0       0       0
  7103 ;;      Temps:          0       0       2       0       0
  7104 ;;      Totals:         0       0       6       0       0
  7105 ;;Total ram usage:        6 bytes
  7106 ;; Hardware stack levels used: 1
  7107 ;; Hardware stack levels required when called: 9
  7108 ;; This function calls:
  7109 ;;		Nothing
  7110 ;; This function is called by:
  7111 ;;		_main
  7112 ;;		_display_string
  7113 ;; This function uses a non-reentrant model
  7114 ;;
  7115                           
  7116     1C15                     _display:	
  7117                           ;psect for function _display
  7118                           
  7119     1C15                     l3637:	
  7120                           ;incstack = 0
  7121 ;; hardware stack exceeded
  7122                           ; Regs used in _display: [wreg]
  7123                           
  7124                           
  7125                           ;newmain.c: 106: void display(int RS, int DC);newmain.c: 107: {;newmain.c: 108:     RD0=
      +                          RS;
  7126     1C15  1683               	bsf	3,5	;RP0=1, select bank1
  7127     1C16  1303               	bcf	3,6	;RP1=0, select bank1
  7128     1C17  1832               	btfsc	display@RS^(0+128),0
  7129     1C18  2C1A               	goto	u4861
  7130     1C19  2C1E               	goto	u4860
  7131     1C1A                     u4861:
  7132     1C1A  1283               	bcf	3,5	;RP0=0, select bank0
  7133     1C1B  1303               	bcf	3,6	;RP1=0, select bank0
  7134     1C1C  1408               	bsf	8,0	;volatile
  7135     1C1D  2C21               	goto	u4874
  7136     1C1E                     u4860:
  7137     1C1E  1283               	bcf	3,5	;RP0=0, select bank0
  7138     1C1F  1303               	bcf	3,6	;RP1=0, select bank0
  7139     1C20  1008               	bcf	8,0	;volatile
  7140     1C21                     u4874:
  7141     1C21                     l3639:
  7142                           
  7143                           ;newmain.c: 109:     PORTC=DC;
  7144     1C21  1683               	bsf	3,5	;RP0=1, select bank1
  7145     1C22  1303               	bcf	3,6	;RP1=0, select bank1
  7146     1C23  0834               	movf	display@DC^(0+128),w
  7147     1C24  1283               	bcf	3,5	;RP0=0, select bank0
  7148     1C25  1303               	bcf	3,6	;RP1=0, select bank0
  7149     1C26  0087               	movwf	7	;volatile
  7150     1C27                     l3641:
  7151                           
  7152                           ;newmain.c: 110:     RD1=1;
  7153     1C27  1488               	bsf	8,1	;volatile
  7154                           
  7155                           ;newmain.c: 111:     _delay((unsigned long)((10)*(10000000/4000.0)));
  7156     1C28  3021               	movlw	33
  7157     1C29  1683               	bsf	3,5	;RP0=1, select bank1
  7158     1C2A  1303               	bcf	3,6	;RP1=0, select bank1
  7159     1C2B  00B7               	movwf	(??_display^(0+128)+1)
  7160     1C2C  3075               	movlw	117
  7161     1C2D  00B6               	movwf	??_display^(0+128)
  7162     1C2E                     u6227:
  7163     1C2E  0BB6               	decfsz	??_display^(0+128),f
  7164     1C2F  2C2E               	goto	u6227
  7165     1C30  0BB7               	decfsz	(??_display^(0+128)+1),f
  7166     1C31  2C2E               	goto	u6227
  7167     1C32  2C33               	nop2
  7168     1C33                     l3643:
  7169                           
  7170                           ;newmain.c: 112:     RD1=0;
  7171     1C33  1283               	bcf	3,5	;RP0=0, select bank0
  7172     1C34  1303               	bcf	3,6	;RP1=0, select bank0
  7173     1C35  1088               	bcf	8,1	;volatile
  7174                           
  7175                           ;newmain.c: 113:     _delay((unsigned long)((10)*(10000000/4000.0)));
  7176     1C36  3021               	movlw	33
  7177     1C37  1683               	bsf	3,5	;RP0=1, select bank1
  7178     1C38  1303               	bcf	3,6	;RP1=0, select bank1
  7179     1C39  00B7               	movwf	(??_display^(0+128)+1)
  7180     1C3A  3075               	movlw	117
  7181     1C3B  00B6               	movwf	??_display^(0+128)
  7182     1C3C                     u6237:
  7183     1C3C  0BB6               	decfsz	??_display^(0+128),f
  7184     1C3D  2C3C               	goto	u6237
  7185     1C3E  0BB7               	decfsz	(??_display^(0+128)+1),f
  7186     1C3F  2C3C               	goto	u6237
  7187     1C40  2C41               	nop2
  7188     1C41                     l67:
  7189     1C41  0008               	return
  7190     1C42                     __end_of_display:
  7191                           
  7192                           	psect	text22
  7193     100F                     __ptext22:	
  7194 ;; *************** function _ISR *****************
  7195 ;; Defined at:
  7196 ;;		line 115 in file "newmain.c"
  7197 ;; Parameters:    Size  Location     Type
  7198 ;;		None
  7199 ;; Auto vars:     Size  Location     Type
  7200 ;;  i               2   16[BANK1 ] int 
  7201 ;;  c              10    6[BANK1 ] unsigned char [10]
  7202 ;; Return value:  Size  Location     Type
  7203 ;;                  1    wreg      void 
  7204 ;; Registers used:
  7205 ;;		wreg, fsr0l, fsr0h, status,2, status,0, btemp+1, pclath, cstack
  7206 ;; Tracked objects:
  7207 ;;		On entry : 0/0
  7208 ;;		On exit  : 0/0
  7209 ;;		Unchanged: 0/0
  7210 ;; Data sizes:     COMMON   BANK0   BANK1   BANK3   BANK2
  7211 ;;      Params:         0       0       0       0       0
  7212 ;;      Locals:         0       0      12       0       0
  7213 ;;      Temps:          0       0       6       0       0
  7214 ;;      Totals:         0       0      18       0       0
  7215 ;;Total ram usage:       18 bytes
  7216 ;; Hardware stack levels used: 1
  7217 ;; Hardware stack levels required when called: 8
  7218 ;; This function calls:
  7219 ;;		i1_display
  7220 ;;		i1_sprintf
  7221 ;; This function is called by:
  7222 ;;		Interrupt level 1
  7223 ;; This function uses a non-reentrant model
  7224 ;;
  7225                           
  7226     100F                     _ISR:	
  7227                           ;psect for function _ISR
  7228                           
  7229     100F                     i1l4465:
  7230                           
  7231                           ;newmain.c: 118:     if(INTF ==1)
  7232     100F  1C8B               	btfss	11,1	;volatile
  7233     1010  2812               	goto	u616_21
  7234     1011  2813               	goto	u616_20
  7235     1012                     u616_21:
  7236     1012  286C               	goto	i1l76
  7237     1013                     u616_20:
  7238     1013                     i1l4467:
  7239                           
  7240                           ;newmain.c: 119:     {;newmain.c: 120:         char c[10];;newmain.c: 121:         count
      +                           =count+1;
  7241     1013  085B               	movf	_count^(0+128),w
  7242     1014  3E01               	addlw	1
  7243     1015  00DB               	movwf	_count^(0+128)
  7244     1016  085C               	movf	(_count+1)^(0+128),w
  7245     1017  1803               	skipnc
  7246     1018  3E01               	addlw	1
  7247     1019  3E00               	addlw	0
  7248     101A  00DC               	movwf	(_count+1)^(0+128)
  7249     101B                     i1l4469:
  7250                           
  7251                           ;newmain.c: 122:         sprintf(c,'%04d',count);
  7252     101B  30A6               	movlw	(low (ISR@c| 0))& (0+255)
  7253     101C  1283               	bcf	3,5	;RP0=0, select bank0
  7254     101D  1303               	bcf	3,6	;RP1=0, select bank0
  7255     101E  00D8               	movwf	i1sprintf@s
  7256     101F  3000               	movlw	0
  7257     1020  00D9               	movwf	i1sprintf@s+1
  7258     1021  3064               	movlw	100
  7259     1022  00DA               	movwf	i1sprintf@fmt
  7260     1023  30B4               	movlw	180
  7261     1024  00DB               	movwf	i1sprintf@fmt+1
  7262     1025  1683               	bsf	3,5	;RP0=1, select bank1
  7263     1026  1303               	bcf	3,6	;RP1=0, select bank1
  7264     1027  085C               	movf	(_count+1)^(0+128),w
  7265     1028  1283               	bcf	3,5	;RP0=0, select bank0
  7266     1029  1303               	bcf	3,6	;RP1=0, select bank0
  7267     102A  00DD               	movwf	?i1_sprintf+5
  7268     102B  1683               	bsf	3,5	;RP0=1, select bank1
  7269     102C  1303               	bcf	3,6	;RP1=0, select bank1
  7270     102D  085B               	movf	_count^(0+128),w
  7271     102E  1283               	bcf	3,5	;RP0=0, select bank0
  7272     102F  1303               	bcf	3,6	;RP1=0, select bank0
  7273     1030  00DC               	movwf	?i1_sprintf+4
  7274     1031  160A  158A  2474  160A  118A  	fcall	i1_sprintf
  7275     1036                     i1l4471:
  7276                           
  7277                           ;newmain.c: 123:         display(0, 0xc9);
  7278     1036  3000               	movlw	0
  7279     1037  00F0               	movwf	i1display@RS
  7280     1038  00F1               	movwf	i1display@RS+1
  7281     1039  30C9               	movlw	201
  7282     103A  00F2               	movwf	i1display@DC
  7283     103B  3000               	movlw	0
  7284     103C  00F3               	movwf	i1display@DC+1
  7285     103D  160A  158A  2350  160A  118A  	fcall	i1_display
  7286     1042                     i1l4473:
  7287                           
  7288                           ;newmain.c: 124:         for(int i=0;c[i]!='\0';i++)
  7289     1042  1683               	bsf	3,5	;RP0=1, select bank1
  7290     1043  1303               	bcf	3,6	;RP1=0, select bank1
  7291     1044  01B0               	clrf	ISR@i^(0+128)
  7292     1045  01B1               	clrf	(ISR@i+1)^(0+128)
  7293     1046  2862               	goto	i1l4479
  7294     1047                     i1l4475:
  7295                           
  7296                           ;newmain.c: 125:         {;newmain.c: 126:             display(1, c[i]);
  7297     1047  3001               	movlw	1
  7298     1048  00F0               	movwf	i1display@RS
  7299     1049  3000               	movlw	0
  7300     104A  00F1               	movwf	i1display@RS+1
  7301     104B  0830               	movf	ISR@i^(0+128),w
  7302     104C  3EA6               	addlw	(low (ISR@c| 0))& (0+255)
  7303     104D  0084               	movwf	4
  7304     104E  0800               	movf	0,w
  7305     104F  00A0               	movwf	??_ISR^(0+128)
  7306     1050  01A1               	clrf	(??_ISR^(0+128)+1)
  7307     1051  0820               	movf	??_ISR^(0+128),w
  7308     1052  00F2               	movwf	i1display@DC
  7309     1053  0821               	movf	(??_ISR+1)^(0+128),w
  7310     1054  00F3               	movwf	i1display@DC+1
  7311     1055  160A  158A  2350  160A  118A  	fcall	i1_display
  7312     105A                     i1l4477:
  7313                           
  7314                           ;newmain.c: 128:         }
  7315     105A  3001               	movlw	1
  7316     105B  1683               	bsf	3,5	;RP0=1, select bank1
  7317     105C  1303               	bcf	3,6	;RP1=0, select bank1
  7318     105D  07B0               	addwf	ISR@i^(0+128),f
  7319     105E  1803               	skipnc
  7320     105F  0AB1               	incf	(ISR@i+1)^(0+128),f
  7321     1060  3000               	movlw	0
  7322     1061  07B1               	addwf	(ISR@i+1)^(0+128),f
  7323     1062                     i1l4479:
  7324     1062  0830               	movf	ISR@i^(0+128),w
  7325     1063  3EA6               	addlw	(low (ISR@c| 0))& (0+255)
  7326     1064  0084               	movwf	4
  7327     1065  1383               	bcf	3,7	;select IRP bank1
  7328     1066  0800               	movf	0,w
  7329     1067  1D03               	btfss	3,2
  7330     1068  286A               	goto	u617_21
  7331     1069  286B               	goto	u617_20
  7332     106A                     u617_21:
  7333     106A  2847               	goto	i1l4475
  7334     106B                     u617_20:
  7335     106B                     i1l75:
  7336                           
  7337                           ;newmain.c: 129:         INTF =0;
  7338     106B  108B               	bcf	11,1	;volatile
  7339     106C                     i1l76:
  7340     106C  0825               	movf	(??_ISR+5)^(0+128),w
  7341     106D  00FF               	movwf	btemp+1
  7342     106E  0824               	movf	(??_ISR+4)^(0+128),w
  7343     106F  008A               	movwf	10
  7344     1070  0823               	movf	(??_ISR+3)^(0+128),w
  7345     1071  0084               	movwf	4
  7346     1072  0E22               	swapf	(??_ISR+2)^(0+128),w
  7347     1073  0083               	movwf	3
  7348     1074  0EFE               	swapf	btemp,f
  7349     1075  0E7E               	swapf	btemp,w
  7350     1076  0009               	retfie
  7351     1077                     __end_of_ISR:
  7352                           
  7353                           	psect	intentry
  7354     0004                     __pintentry:	
  7355                           ;incstack = 0
  7356 ;; hardware stack exceeded
  7357                           ; Regs used in _ISR: [wreg-fsr0h+status,2+status,0+btemp+1+pclath+cstack]
  7358                           
  7359     0004                     interrupt_function:
  7360     007E                     saved_w         set	btemp
  7361     0004  00FE               	movwf	btemp
  7362     0005  0E03               	swapf	3,w
  7363     0006  1683               	bsf	3,5	;RP0=1, select bank1
  7364     0007  1303               	bcf	3,6	;RP1=0, select bank1
  7365     0008  00A2               	movwf	(??_ISR+2)^(0+128)
  7366     0009  0804               	movf	4,w
  7367     000A  00A3               	movwf	(??_ISR+3)^(0+128)
  7368     000B  080A               	movf	10,w
  7369     000C  00A4               	movwf	(??_ISR+4)^(0+128)
  7370     000D  087F               	movf	btemp+1,w
  7371     000E  00A5               	movwf	(??_ISR+5)^(0+128)
  7372     000F  160A  118A  280F   	ljmp	_ISR
  7373                           
  7374                           	psect	text23
  7375     1C74                     __ptext23:	
  7376 ;; *************** function i1_sprintf *****************
  7377 ;; Defined at:
  7378 ;;		line 9 in file "C:\Program Files\Microchip\xc8\v2.50\pic\sources\c99\common\nf_sprintf.c"
  7379 ;; Parameters:    Size  Location     Type
  7380 ;;  s               2   56[BANK0 ] PTR unsigned char 
  7381 ;;		 -> ISR@c(10), main@b(10), main@a(10), 
  7382 ;;  fmt             2   58[BANK0 ] PTR const unsigned char 
  7383 ;;		 -> ROM(8192), STR_2(5), STR_1(5), 
  7384 ;; Auto vars:     Size  Location     Type
  7385 ;;  f              11   65[BANK0 ] struct _IO_FILE
  7386 ;;  ap              2   76[BANK0 ] PTR void [1]
  7387 ;;		 -> ?i1_sprintf(2), ?_sprintf(2), 
  7388 ;;  ret             2    0        int 
  7389 ;; Return value:  Size  Location     Type
  7390 ;;                  2   56[BANK0 ] int 
  7391 ;; Registers used:
  7392 ;;		wreg, fsr0l, fsr0h, status,2, status,0, btemp+1, pclath, cstack
  7393 ;; Tracked objects:
  7394 ;;		On entry : 0/0
  7395 ;;		On exit  : 0/0
  7396 ;;		Unchanged: 0/0
  7397 ;; Data sizes:     COMMON   BANK0   BANK1   BANK3   BANK2
  7398 ;;      Params:         0       6       0       0       0
  7399 ;;      Locals:         0      13       0       0       0
  7400 ;;      Temps:          0       3       0       0       0
  7401 ;;      Totals:         0      22       0       0       0
  7402 ;;Total ram usage:       22 bytes
  7403 ;; Hardware stack levels used: 1
  7404 ;; Hardware stack levels required when called: 7
  7405 ;; This function calls:
  7406 ;;		i1_vfprintf
  7407 ;; This function is called by:
  7408 ;;		_ISR
  7409 ;; This function uses a non-reentrant model
  7410 ;;
  7411                           
  7412     1C74                     i1_sprintf:	
  7413                           ;psect for function i1_sprintf
  7414                           
  7415     1C74                     i1l3667:	
  7416                           ;incstack = 0
  7417 ;; hardware stack exceeded
  7418                           ; Regs used in i1_sprintf: [wreg-fsr0h+status,2+status,0+btemp+1+pclath+cstack]
  7419                           
  7420     1C74  305C               	movlw	(low ((?i1_sprintf| 0+4)))& (0+255)
  7421     1C75  1283               	bcf	3,5	;RP0=0, select bank0
  7422     1C76  1303               	bcf	3,6	;RP1=0, select bank0
  7423     1C77  00EC               	movwf	i1sprintf@ap
  7424     1C78  3000               	movlw	0
  7425     1C79  00ED               	movwf	i1sprintf@ap+1
  7426     1C7A  0858               	movf	i1sprintf@s,w
  7427     1C7B  00E1               	movwf	i1sprintf@f
  7428     1C7C  0859               	movf	i1sprintf@s+1,w
  7429     1C7D  00E2               	movwf	i1sprintf@f+1
  7430     1C7E                     i1l3669:
  7431     1C7E  01E3               	clrf	i1sprintf@f+2
  7432     1C7F  01E4               	clrf	i1sprintf@f+3
  7433     1C80                     i1l3671:
  7434     1C80  01EA               	clrf	i1sprintf@f+9
  7435     1C81  01EB               	clrf	i1sprintf@f+10
  7436     1C82                     i1l3673:
  7437     1C82  3061               	movlw	low i1sprintf@f
  7438     1C83  00D0               	movwf	i1vfprintf@fp
  7439     1C84  3000               	movlw	high i1sprintf@f
  7440     1C85  00D1               	movwf	i1vfprintf@fp+1
  7441     1C86  085A               	movf	i1sprintf@fmt,w
  7442     1C87  00D2               	movwf	i1vfprintf@fmt
  7443     1C88  085B               	movf	i1sprintf@fmt+1,w
  7444     1C89  00D3               	movwf	i1vfprintf@fmt+1
  7445     1C8A  306C               	movlw	(low (i1sprintf@ap| 0))& (0+255)
  7446     1C8B  00D4               	movwf	i1vfprintf@ap
  7447     1C8C  3000               	movlw	0
  7448     1C8D  00D5               	movwf	i1vfprintf@ap+1
  7449     1C8E  160A  158A  251C  160A  158A  	fcall	i1_vfprintf
  7450     1C93                     i1l3675:
  7451     1C93  1283               	bcf	3,5	;RP0=0, select bank0
  7452     1C94  1303               	bcf	3,6	;RP1=0, select bank0
  7453     1C95  0863               	movf	i1sprintf@f+2,w
  7454     1C96  0758               	addwf	i1sprintf@s,w
  7455     1C97  00DF               	movwf	??i1_sprintf+1
  7456     1C98  0859               	movf	i1sprintf@s+1,w
  7457     1C99  00DE               	movwf	??i1_sprintf
  7458     1C9A  1803               	skipnc
  7459     1C9B  0ADE               	incf	??i1_sprintf,f
  7460     1C9C  1FE3               	btfss	i1sprintf@f+2,7
  7461     1C9D  2C9F               	goto	u491_20
  7462     1C9E  03DE               	decf	??i1_sprintf,f
  7463     1C9F                     u491_20:
  7464     1C9F  1283               	bcf	3,5	;RP0=0, select bank0
  7465     1CA0  1303               	bcf	3,6	;RP1=0, select bank0
  7466     1CA1  085E               	movf	??i1_sprintf,w
  7467     1CA2  00E0               	movwf	??i1_sprintf+2
  7468     1CA3  085F               	movf	??i1_sprintf+1,w
  7469     1CA4  0084               	movwf	4
  7470     1CA5  1783               	bsf	3,7
  7471     1CA6  1C60               	btfss	??i1_sprintf+2,0
  7472     1CA7  1383               	bcf	3,7
  7473     1CA8  0180               	clrf	0
  7474     1CA9                     i1l625:
  7475     1CA9  0008               	return
  7476     1CAA                     __end_ofi1_sprintf:
  7477                           
  7478                           	psect	text24
  7479     1D1C                     __ptext24:	
  7480 ;; *************** function i1_vfprintf *****************
  7481 ;; Defined at:
  7482 ;;		line 1817 in file "C:\Program Files\Microchip\xc8\v2.50\pic\sources\c99\common\doprnt.c"
  7483 ;; Parameters:    Size  Location     Type
  7484 ;;  fp              2   48[BANK0 ] PTR struct _IO_FILE
  7485 ;;		 -> i1sprintf@f(11), sprintf@f(11), 
  7486 ;;  fmt             2   50[BANK0 ] PTR const unsigned char 
  7487 ;;		 -> ROM(8192), STR_2(5), STR_1(5), 
  7488 ;;  ap              2   52[BANK0 ] PTR PTR void 
  7489 ;;		 -> i1sprintf@ap(2), sprintf@ap(1), 
  7490 ;; Auto vars:     Size  Location     Type
  7491 ;;  cfmt            2   54[BANK0 ] PTR unsigned char 
  7492 ;;		 -> ROM(8192), STR_2(5), STR_1(5), 
  7493 ;; Return value:  Size  Location     Type
  7494 ;;                  2   48[BANK0 ] int 
  7495 ;; Registers used:
  7496 ;;		wreg, fsr0l, fsr0h, status,2, status,0, btemp+1, pclath, cstack
  7497 ;; Tracked objects:
  7498 ;;		On entry : 0/0
  7499 ;;		On exit  : 0/0
  7500 ;;		Unchanged: 0/0
  7501 ;; Data sizes:     COMMON   BANK0   BANK1   BANK3   BANK2
  7502 ;;      Params:         0       6       0       0       0
  7503 ;;      Locals:         0       2       0       0       0
  7504 ;;      Temps:          0       0       0       0       0
  7505 ;;      Totals:         0       8       0       0       0
  7506 ;;Total ram usage:        8 bytes
  7507 ;; Hardware stack levels used: 1
  7508 ;; Hardware stack levels required when called: 6
  7509 ;; This function calls:
  7510 ;;		i1_vfpfcnvrt
  7511 ;; This function is called by:
  7512 ;;		i1_sprintf
  7513 ;; This function uses a non-reentrant model
  7514 ;;
  7515                           
  7516     1D1C                     i1_vfprintf:	
  7517                           ;psect for function i1_vfprintf
  7518                           
  7519     1D1C                     i1l3625:	
  7520                           ;incstack = 0
  7521 ;; hardware stack exceeded
  7522                           ; Regs used in i1_vfprintf: [wreg-fsr0h+status,2+status,0+btemp+1+pclath+cstack]
  7523                           
  7524                           
  7525                           ;C:\Program Files\Microchip\xc8\v2.50\pic\sources\c99\common\doprnt.c: 1817: int vfprint
      +                          f(FILE *fp, const char *fmt, va_list ap);C:\Program Files\Microchip\xc8\v2.50\pic\source
      +                          s\c99\common\doprnt.c: 1818: {;C:\Program Files\Microchip\xc8\v2.50\pic\sources\c99\comm
      +                          on\doprnt.c: 1820:     char *cfmt;;C:\Program Files\Microchip\xc8\v2.50\pic\sources\c99\
      +                          common\doprnt.c: 1822:     cfmt = (char *)fmt;
  7526     1D1C  1283               	bcf	3,5	;RP0=0, select bank0
  7527     1D1D  1303               	bcf	3,6	;RP1=0, select bank0
  7528     1D1E  0852               	movf	i1vfprintf@fmt,w
  7529     1D1F  00D6               	movwf	i1vfprintf@cfmt
  7530     1D20  0853               	movf	i1vfprintf@fmt+1,w
  7531     1D21  00D7               	movwf	i1vfprintf@cfmt+1
  7532     1D22                     i1l3627:
  7533                           
  7534                           ;C:\Program Files\Microchip\xc8\v2.50\pic\sources\c99\common\doprnt.c: 1824:     nout = 
      +                          0;
  7535     1D22  1683               	bsf	3,5	;RP0=1, select bank3
  7536     1D23  1703               	bsf	3,6	;RP1=1, select bank3
  7537     1D24  01E7               	clrf	_nout^(0+384)
  7538     1D25  01E8               	clrf	(_nout+1)^(0+384)
  7539                           
  7540                           ;C:\Program Files\Microchip\xc8\v2.50\pic\sources\c99\common\doprnt.c: 1826:     while (
      +                          *cfmt) {
  7541     1D26  2D44               	goto	i1l3631
  7542     1D27                     i1l3629:
  7543                           
  7544                           ;C:\Program Files\Microchip\xc8\v2.50\pic\sources\c99\common\doprnt.c: 1828:         nou
      +                          t +=
  7545     1D27  0850               	movf	i1vfprintf@fp,w
  7546     1D28  00BF               	movwf	i1vfpfcnvrt@fp
  7547     1D29  0851               	movf	i1vfprintf@fp+1,w
  7548     1D2A  00C0               	movwf	i1vfpfcnvrt@fp+1
  7549     1D2B  3056               	movlw	(low (i1vfprintf@cfmt| 0))& (0+255)
  7550     1D2C  00C1               	movwf	i1vfpfcnvrt@fmt
  7551     1D2D  0854               	movf	i1vfprintf@ap,w
  7552     1D2E  00C2               	movwf	i1vfpfcnvrt@ap
  7553     1D2F  0855               	movf	i1vfprintf@ap+1,w
  7554     1D30  00C3               	movwf	i1vfpfcnvrt@ap+1
  7555     1D31  120A  158A  2310  160A  158A  	fcall	i1_vfpfcnvrt
  7556     1D36  1283               	bcf	3,5	;RP0=0, select bank0
  7557     1D37  1303               	bcf	3,6	;RP1=0, select bank0
  7558     1D38  083F               	movf	?i1_vfpfcnvrt,w
  7559     1D39  1683               	bsf	3,5	;RP0=1, select bank3
  7560     1D3A  1703               	bsf	3,6	;RP1=1, select bank3
  7561     1D3B  07E7               	addwf	_nout^(0+384),f
  7562     1D3C  1803               	skipnc
  7563     1D3D  0AE8               	incf	(_nout+1)^(0+384),f
  7564     1D3E  1283               	bcf	3,5	;RP0=0, select bank0
  7565     1D3F  1303               	bcf	3,6	;RP1=0, select bank0
  7566     1D40  0840               	movf	?i1_vfpfcnvrt+1,w
  7567     1D41  1683               	bsf	3,5	;RP0=1, select bank3
  7568     1D42  1703               	bsf	3,6	;RP1=1, select bank3
  7569     1D43  07E8               	addwf	(_nout+1)^(0+384),f
  7570     1D44                     i1l3631:
  7571                           
  7572                           ;C:\Program Files\Microchip\xc8\v2.50\pic\sources\c99\common\doprnt.c: 1826:     while (
      +                          *cfmt) {
  7573     1D44  1283               	bcf	3,5	;RP0=0, select bank0
  7574     1D45  1303               	bcf	3,6	;RP1=0, select bank0
  7575     1D46  0857               	movf	i1vfprintf@cfmt+1,w
  7576     1D47  00FF               	movwf	btemp+1
  7577     1D48  0856               	movf	i1vfprintf@cfmt,w
  7578     1D49  0084               	movwf	4
  7579     1D4A  160A  158A  2000  160A  158A  	fcall	stringtab
  7580     1D4F  3A00               	xorlw	0
  7581     1D50  1D03               	skipz
  7582     1D51  2D53               	goto	u485_21
  7583     1D52  2D54               	goto	u485_20
  7584     1D53                     u485_21:
  7585     1D53  2D27               	goto	i1l3629
  7586     1D54                     u485_20:
  7587     1D54                     i1l3633:
  7588                           
  7589                           ;C:\Program Files\Microchip\xc8\v2.50\pic\sources\c99\common\doprnt.c: 1835:  return 0;
  7590     1D54  01D0               	clrf	?i1_vfprintf
  7591     1D55  01D1               	clrf	?i1_vfprintf+1
  7592     1D56                     i1l833:
  7593     1D56  0008               	return
  7594     1D57                     __end_ofi1_vfprintf:
  7595                           
  7596                           	psect	text25
  7597     0B10                     __ptext25:	
  7598 ;; *************** function i1_vfpfcnvrt *****************
  7599 ;; Defined at:
  7600 ;;		line 1177 in file "C:\Program Files\Microchip\xc8\v2.50\pic\sources\c99\common\doprnt.c"
  7601 ;; Parameters:    Size  Location     Type
  7602 ;;  fp              2   31[BANK0 ] PTR struct _IO_FILE
  7603 ;;		 -> i1sprintf@f(11), sprintf@f(11), 
  7604 ;;  fmt             1   33[BANK0 ] PTR PTR unsigned char 
  7605 ;;		 -> i1vfprintf@cfmt(2), vfprintf@cfmt(2), 
  7606 ;;  ap              2   34[BANK0 ] PTR PTR void 
  7607 ;;		 -> i1sprintf@ap(2), sprintf@ap(1), 
  7608 ;; Auto vars:     Size  Location     Type
  7609 ;;  convarg         4   41[BANK0 ] struct .
  7610 ;;  cp              2   46[BANK0 ] PTR unsigned char 
  7611 ;;		 -> ROM(8192), STR_2(5), STR_1(5), 
  7612 ;;  c               1   45[BANK0 ] unsigned char 
  7613 ;;  done            1   40[BANK0 ] _Bool 
  7614 ;; Return value:  Size  Location     Type
  7615 ;;                  2   31[BANK0 ] int 
  7616 ;; Registers used:
  7617 ;;		wreg, fsr0l, fsr0h, status,2, status,0, btemp+1, pclath, cstack
  7618 ;; Tracked objects:
  7619 ;;		On entry : 0/0
  7620 ;;		On exit  : 0/0
  7621 ;;		Unchanged: 0/0
  7622 ;; Data sizes:     COMMON   BANK0   BANK1   BANK3   BANK2
  7623 ;;      Params:         0       5       0       0       0
  7624 ;;      Locals:         0       8       0       0       0
  7625 ;;      Temps:          0       4       0       0       0
  7626 ;;      Totals:         0      17       0       0       0
  7627 ;;Total ram usage:       17 bytes
  7628 ;; Hardware stack levels used: 1
  7629 ;; Hardware stack levels required when called: 5
  7630 ;; This function calls:
  7631 ;;		i1_ctoa
  7632 ;;		i1_dtoa
  7633 ;;		i1_fputc
  7634 ;;		i1_otoa
  7635 ;;		i1_read_prec_or_width
  7636 ;;		i1_utoa
  7637 ;;		i1_xtoa
  7638 ;; This function is called by:
  7639 ;;		i1_vfprintf
  7640 ;; This function uses a non-reentrant model
  7641 ;;
  7642                           
  7643     0B10                     i1_vfpfcnvrt:	
  7644                           ;psect for function i1_vfpfcnvrt
  7645                           
  7646     0B10                     i1l3429:	
  7647                           ;incstack = 0
  7648 ;; hardware stack exceeded
  7649                           ; Regs used in i1_vfpfcnvrt: [wreg-fsr0h+status,2+status,0+btemp+1+pclath+cstack]
  7650                           
  7651                           
  7652                           ;C:\Program Files\Microchip\xc8\v2.50\pic\sources\c99\common\doprnt.c: 1177: vfpfcnvrt(F
      +                          ILE *fp, char *fmt[], va_list ap);C:\Program Files\Microchip\xc8\v2.50\pic\sources\c99\c
      +                          ommon\doprnt.c: 1178: {;C:\Program Files\Microchip\xc8\v2.50\pic\sources\c99\common\dopr
      +                          nt.c: 1179:     char c, *cp;;C:\Program Files\Microchip\xc8\v2.50\pic\sources\c99\common
      +                          \doprnt.c: 1180:     _Bool done;;C:\Program Files\Microchip\xc8\v2.50\pic\sources\c99\co
      +                          mmon\doprnt.c: 1188:  } convarg;;C:\Program Files\Microchip\xc8\v2.50\pic\sources\c99\co
      +                          mmon\doprnt.c: 1201:     if ((*fmt)[0] == '%') {
  7653     0B10  1283               	bcf	3,5	;RP0=0, select bank0
  7654     0B11  1303               	bcf	3,6	;RP1=0, select bank0
  7655     0B12  0841               	movf	i1vfpfcnvrt@fmt,w
  7656     0B13  0084               	movwf	4
  7657     0B14  1383               	bcf	3,7	;select IRP bank0
  7658     0B15  0800               	movf	0,w
  7659     0B16  00C4               	movwf	??i1_vfpfcnvrt
  7660     0B17  0A84               	incf	4,f
  7661     0B18  0800               	movf	0,w
  7662     0B19  00C5               	movwf	??i1_vfpfcnvrt+1
  7663     0B1A  0845               	movf	??i1_vfpfcnvrt+1,w
  7664     0B1B  00FF               	movwf	btemp+1
  7665     0B1C  0844               	movf	??i1_vfpfcnvrt,w
  7666     0B1D  0084               	movwf	4
  7667     0B1E  160A  158A  2000  120A  158A  	fcall	stringtab
  7668     0B23  3A25               	xorlw	37
  7669     0B24  1D03               	skipz
  7670     0B25  2B27               	goto	u469_21
  7671     0B26  2B28               	goto	u469_20
  7672     0B27                     u469_21:
  7673     0B27  2FD4               	goto	i1l3605
  7674     0B28                     u469_20:
  7675     0B28                     i1l3431:
  7676                           
  7677                           ;C:\Program Files\Microchip\xc8\v2.50\pic\sources\c99\common\doprnt.c: 1202:         ++*
      +                          fmt;
  7678     0B28  0841               	movf	i1vfpfcnvrt@fmt,w
  7679     0B29  0084               	movwf	4
  7680     0B2A  3001               	movlw	1
  7681     0B2B  1383               	bcf	3,7	;select IRP bank0
  7682     0B2C  0780               	addwf	0,f
  7683     0B2D  0A84               	incf	4,f
  7684     0B2E  1803               	skipnc
  7685     0B2F  0A80               	incf	0,f
  7686     0B30                     i1l3433:
  7687                           
  7688                           ;C:\Program Files\Microchip\xc8\v2.50\pic\sources\c99\common\doprnt.c: 1204:         fla
      +                          gs = width = 0;
  7689     0B30  1683               	bsf	3,5	;RP0=1, select bank1
  7690     0B31  1303               	bcf	3,6	;RP1=0, select bank1
  7691     0B32  01D7               	clrf	_width^(0+128)
  7692     0B33  01D8               	clrf	(_width+1)^(0+128)
  7693     0B34  3000               	movlw	0
  7694     0B35  00DD               	movwf	_flags^(0+128)
  7695     0B36                     i1l3435:
  7696                           
  7697                           ;C:\Program Files\Microchip\xc8\v2.50\pic\sources\c99\common\doprnt.c: 1205:         pre
      +                          c = -1;
  7698     0B36  30FF               	movlw	255
  7699     0B37  00D9               	movwf	_prec^(0+128)
  7700     0B38  30FF               	movlw	255
  7701     0B39  00DA               	movwf	(_prec^(0+128)+1)
  7702     0B3A                     i1l3437:
  7703                           
  7704                           ;C:\Program Files\Microchip\xc8\v2.50\pic\sources\c99\common\doprnt.c: 1209:         don
      +                          e = 0;
  7705     0B3A  1283               	bcf	3,5	;RP0=0, select bank0
  7706     0B3B  1303               	bcf	3,6	;RP1=0, select bank0
  7707     0B3C  01C8               	clrf	i1vfpfcnvrt@done
  7708                           
  7709                           ;C:\Program Files\Microchip\xc8\v2.50\pic\sources\c99\common\doprnt.c: 1210:         whi
      +                          le (!done) {
  7710     0B3D  2B80               	goto	i1l3453
  7711     0B3E                     i1l766:	
  7712                           ;C:\Program Files\Microchip\xc8\v2.50\pic\sources\c99\common\doprnt.c: 1213:            
      +                               case '-' :
  7713                           
  7714                           
  7715                           ;C:\Program Files\Microchip\xc8\v2.50\pic\sources\c99\common\doprnt.c: 1214:            
      +                                   flags |= (1 << 0);
  7716     0B3E  1683               	bsf	3,5	;RP0=1, select bank1
  7717     0B3F  1303               	bcf	3,6	;RP1=0, select bank1
  7718     0B40  145D               	bsf	_flags^(0+128),0
  7719     0B41                     i1l3439:
  7720                           
  7721                           ;C:\Program Files\Microchip\xc8\v2.50\pic\sources\c99\common\doprnt.c: 1215:            
      +                                   ++*fmt;
  7722     0B41  1283               	bcf	3,5	;RP0=0, select bank0
  7723     0B42  1303               	bcf	3,6	;RP1=0, select bank0
  7724     0B43  0841               	movf	i1vfpfcnvrt@fmt,w
  7725     0B44  0084               	movwf	4
  7726     0B45  3001               	movlw	1
  7727     0B46  1383               	bcf	3,7	;select IRP bank0
  7728     0B47  0780               	addwf	0,f
  7729     0B48  0A84               	incf	4,f
  7730     0B49  1803               	skipnc
  7731     0B4A  0A80               	incf	0,f
  7732                           
  7733                           ;C:\Program Files\Microchip\xc8\v2.50\pic\sources\c99\common\doprnt.c: 1216:            
      +                                   break;
  7734     0B4B  2B80               	goto	i1l3453
  7735     0B4C                     i1l768:	
  7736                           ;C:\Program Files\Microchip\xc8\v2.50\pic\sources\c99\common\doprnt.c: 1219:            
      +                               case '0' :
  7737                           
  7738                           
  7739                           ;C:\Program Files\Microchip\xc8\v2.50\pic\sources\c99\common\doprnt.c: 1220:            
      +                                   flags |= (1 << 1);
  7740     0B4C  1683               	bsf	3,5	;RP0=1, select bank1
  7741     0B4D  1303               	bcf	3,6	;RP1=0, select bank1
  7742     0B4E  14DD               	bsf	_flags^(0+128),1
  7743     0B4F  2B41               	goto	i1l3439
  7744     0B50                     i1l769:	
  7745                           ;C:\Program Files\Microchip\xc8\v2.50\pic\sources\c99\common\doprnt.c: 1225:            
      +                               case '+' :
  7746                           
  7747                           
  7748                           ;C:\Program Files\Microchip\xc8\v2.50\pic\sources\c99\common\doprnt.c: 1226:            
      +                                   flags |= (1 << 2);
  7749     0B50  1683               	bsf	3,5	;RP0=1, select bank1
  7750     0B51  1303               	bcf	3,6	;RP1=0, select bank1
  7751     0B52  155D               	bsf	_flags^(0+128),2
  7752     0B53  2B41               	goto	i1l3439
  7753     0B54                     i1l770:	
  7754                           ;C:\Program Files\Microchip\xc8\v2.50\pic\sources\c99\common\doprnt.c: 1231:            
      +                               case ' ' :
  7755                           
  7756                           
  7757                           ;C:\Program Files\Microchip\xc8\v2.50\pic\sources\c99\common\doprnt.c: 1232:            
      +                                   flags |= (1 << 3);
  7758     0B54  1683               	bsf	3,5	;RP0=1, select bank1
  7759     0B55  1303               	bcf	3,6	;RP1=0, select bank1
  7760     0B56  15DD               	bsf	_flags^(0+128),3
  7761     0B57  2B41               	goto	i1l3439
  7762     0B58                     i1l771:	
  7763                           ;C:\Program Files\Microchip\xc8\v2.50\pic\sources\c99\common\doprnt.c: 1237:            
      +                               case '#' :
  7764                           
  7765                           
  7766                           ;C:\Program Files\Microchip\xc8\v2.50\pic\sources\c99\common\doprnt.c: 1238:            
      +                                   flags |= (1 << 4);
  7767     0B58  1683               	bsf	3,5	;RP0=1, select bank1
  7768     0B59  1303               	bcf	3,6	;RP1=0, select bank1
  7769     0B5A  165D               	bsf	_flags^(0+128),4
  7770     0B5B  2B41               	goto	i1l3439
  7771     0B5C                     i1l772:	
  7772                           ;C:\Program Files\Microchip\xc8\v2.50\pic\sources\c99\common\doprnt.c: 1242:            
      +                               default:
  7773                           
  7774                           
  7775                           ;C:\Program Files\Microchip\xc8\v2.50\pic\sources\c99\common\doprnt.c: 1243:            
      +                                   done = 1;
  7776     0B5C  3001               	movlw	1
  7777     0B5D  00C8               	movwf	i1vfpfcnvrt@done
  7778                           
  7779                           ;C:\Program Files\Microchip\xc8\v2.50\pic\sources\c99\common\doprnt.c: 1244:            
      +                                   break;
  7780     0B5E  2B80               	goto	i1l3453
  7781     0B5F                     i1l3451:
  7782     0B5F  0841               	movf	i1vfpfcnvrt@fmt,w
  7783     0B60  0084               	movwf	4
  7784     0B61  1383               	bcf	3,7	;select IRP bank0
  7785     0B62  0800               	movf	0,w
  7786     0B63  00C4               	movwf	??i1_vfpfcnvrt
  7787     0B64  0A84               	incf	4,f
  7788     0B65  0800               	movf	0,w
  7789     0B66  00C5               	movwf	??i1_vfpfcnvrt+1
  7790     0B67  0845               	movf	??i1_vfpfcnvrt+1,w
  7791     0B68  00FF               	movwf	btemp+1
  7792     0B69  0844               	movf	??i1_vfpfcnvrt,w
  7793     0B6A  0084               	movwf	4
  7794     0B6B  160A  158A  2000  120A  158A  	fcall	stringtab
  7795                           
  7796                           ; Switch size 1, requested type "simple"
  7797                           ; Number of cases is 5, Range of values is 32 to 48
  7798                           ; switch strategies available:
  7799                           ; Name         Instructions Cycles
  7800                           ; simple_byte           16     9 (average)
  7801                           ; direct_byte           62    11 (fixed)
  7802                           ; jumptable            263     9 (fixed)
  7803                           ;	Chosen strategy is simple_byte
  7804     0B70  3A20               	xorlw	32	; case 32
  7805     0B71  1903               	skipnz
  7806     0B72  2B54               	goto	i1l770
  7807     0B73  3A03               	xorlw	3	; case 35
  7808     0B74  1903               	skipnz
  7809     0B75  2B58               	goto	i1l771
  7810     0B76  3A08               	xorlw	8	; case 43
  7811     0B77  1903               	skipnz
  7812     0B78  2B50               	goto	i1l769
  7813     0B79  3A06               	xorlw	6	; case 45
  7814     0B7A  1903               	skipnz
  7815     0B7B  2B3E               	goto	i1l766
  7816     0B7C  3A1D               	xorlw	29	; case 48
  7817     0B7D  1903               	skipnz
  7818     0B7E  2B4C               	goto	i1l768
  7819     0B7F  2B5C               	goto	i1l772
  7820     0B80                     i1l3453:
  7821                           
  7822                           ;C:\Program Files\Microchip\xc8\v2.50\pic\sources\c99\common\doprnt.c: 1210:         whi
      +                          le (!done) {
  7823     0B80  0848               	movf	i1vfpfcnvrt@done,w
  7824     0B81  1903               	btfsc	3,2
  7825     0B82  2B84               	goto	u470_21
  7826     0B83  2B85               	goto	u470_20
  7827     0B84                     u470_21:
  7828     0B84  2B5F               	goto	i1l3451
  7829     0B85                     u470_20:
  7830     0B85                     i1l773:
  7831                           
  7832                           ;C:\Program Files\Microchip\xc8\v2.50\pic\sources\c99\common\doprnt.c: 1248:         if 
      +                          (flags & (1 << 0)) {
  7833     0B85  1683               	bsf	3,5	;RP0=1, select bank1
  7834     0B86  1303               	bcf	3,6	;RP1=0, select bank1
  7835     0B87  1C5D               	btfss	_flags^(0+128),0
  7836     0B88  2B8A               	goto	u471_21
  7837     0B89  2B8B               	goto	u471_20
  7838     0B8A                     u471_21:
  7839     0B8A  2B8D               	goto	i1l3457
  7840     0B8B                     u471_20:
  7841     0B8B                     i1l3455:
  7842                           
  7843                           ;C:\Program Files\Microchip\xc8\v2.50\pic\sources\c99\common\doprnt.c: 1249:            
      +                           flags &= ~(1 << 1);
  7844     0B8B  30FD               	movlw	253
  7845     0B8C  05DD               	andwf	_flags^(0+128),f
  7846     0B8D                     i1l3457:
  7847                           
  7848                           ;C:\Program Files\Microchip\xc8\v2.50\pic\sources\c99\common\doprnt.c: 1256:   width = r
      +                          ead_prec_or_width(fmt, ap);
  7849     0B8D  1283               	bcf	3,5	;RP0=0, select bank0
  7850     0B8E  1303               	bcf	3,6	;RP1=0, select bank0
  7851     0B8F  0841               	movf	i1vfpfcnvrt@fmt,w
  7852     0B90  00F6               	movwf	i1read_prec_or_width@fmt
  7853     0B91  0842               	movf	i1vfpfcnvrt@ap,w
  7854     0B92  00F7               	movwf	i1read_prec_or_width@ap
  7855     0B93  0843               	movf	i1vfpfcnvrt@ap+1,w
  7856     0B94  00F8               	movwf	i1read_prec_or_width@ap+1
  7857     0B95  160A  118A  20E1  120A  158A  	fcall	i1_read_prec_or_width
  7858     0B9A  0877               	movf	?i1_read_prec_or_width+1,w
  7859     0B9B  1683               	bsf	3,5	;RP0=1, select bank1
  7860     0B9C  1303               	bcf	3,6	;RP1=0, select bank1
  7861     0B9D  00D8               	movwf	(_width+1)^(0+128)
  7862     0B9E  0876               	movf	?i1_read_prec_or_width,w
  7863     0B9F  00D7               	movwf	_width^(0+128)
  7864     0BA0                     i1l3459:
  7865                           
  7866                           ;C:\Program Files\Microchip\xc8\v2.50\pic\sources\c99\common\doprnt.c: 1257:   if (width
      +                           < 0) {
  7867     0BA0  1FD8               	btfss	(_width+1)^(0+128),7
  7868     0BA1  2BA3               	goto	u472_21
  7869     0BA2  2BA4               	goto	u472_20
  7870     0BA3                     u472_21:
  7871     0BA3  2BAA               	goto	i1l3465
  7872     0BA4                     u472_20:
  7873     0BA4                     i1l3461:
  7874                           
  7875                           ;C:\Program Files\Microchip\xc8\v2.50\pic\sources\c99\common\doprnt.c: 1258:    flags |=
      +                           (1 << 0);
  7876     0BA4  145D               	bsf	_flags^(0+128),0
  7877     0BA5                     i1l3463:
  7878                           
  7879                           ;C:\Program Files\Microchip\xc8\v2.50\pic\sources\c99\common\doprnt.c: 1259:    width = 
      +                          -width;
  7880     0BA5  09D7               	comf	_width^(0+128),f
  7881     0BA6  09D8               	comf	(_width+1)^(0+128),f
  7882     0BA7  0AD7               	incf	_width^(0+128),f
  7883     0BA8  1903               	skipnz
  7884     0BA9  0AD8               	incf	(_width+1)^(0+128),f
  7885     0BAA                     i1l3465:
  7886                           
  7887                           ;C:\Program Files\Microchip\xc8\v2.50\pic\sources\c99\common\doprnt.c: 1265:         if 
      +                          ((*fmt)[0] == '.') {
  7888     0BAA  1283               	bcf	3,5	;RP0=0, select bank0
  7889     0BAB  1303               	bcf	3,6	;RP1=0, select bank0
  7890     0BAC  0841               	movf	i1vfpfcnvrt@fmt,w
  7891     0BAD  0084               	movwf	4
  7892     0BAE  1383               	bcf	3,7	;select IRP bank0
  7893     0BAF  0800               	movf	0,w
  7894     0BB0  00C4               	movwf	??i1_vfpfcnvrt
  7895     0BB1  0A84               	incf	4,f
  7896     0BB2  0800               	movf	0,w
  7897     0BB3  00C5               	movwf	??i1_vfpfcnvrt+1
  7898     0BB4  0845               	movf	??i1_vfpfcnvrt+1,w
  7899     0BB5  00FF               	movwf	btemp+1
  7900     0BB6  0844               	movf	??i1_vfpfcnvrt,w
  7901     0BB7  0084               	movwf	4
  7902     0BB8  160A  158A  2000  120A  158A  	fcall	stringtab
  7903     0BBD  3A2E               	xorlw	46
  7904     0BBE  1D03               	skipz
  7905     0BBF  2BC1               	goto	u473_21
  7906     0BC0  2BC2               	goto	u473_20
  7907     0BC1                     u473_21:
  7908     0BC1  2BDB               	goto	i1l3471
  7909     0BC2                     u473_20:
  7910     0BC2                     i1l3467:
  7911                           
  7912                           ;C:\Program Files\Microchip\xc8\v2.50\pic\sources\c99\common\doprnt.c: 1266:            
      +                           ++*fmt;
  7913     0BC2  0841               	movf	i1vfpfcnvrt@fmt,w
  7914     0BC3  0084               	movwf	4
  7915     0BC4  3001               	movlw	1
  7916     0BC5  1383               	bcf	3,7	;select IRP bank0
  7917     0BC6  0780               	addwf	0,f
  7918     0BC7  0A84               	incf	4,f
  7919     0BC8  1803               	skipnc
  7920     0BC9  0A80               	incf	0,f
  7921     0BCA                     i1l3469:
  7922                           
  7923                           ;C:\Program Files\Microchip\xc8\v2.50\pic\sources\c99\common\doprnt.c: 1267:    prec = r
      +                          ead_prec_or_width(fmt, ap);
  7924     0BCA  0841               	movf	i1vfpfcnvrt@fmt,w
  7925     0BCB  00F6               	movwf	i1read_prec_or_width@fmt
  7926     0BCC  0842               	movf	i1vfpfcnvrt@ap,w
  7927     0BCD  00F7               	movwf	i1read_prec_or_width@ap
  7928     0BCE  0843               	movf	i1vfpfcnvrt@ap+1,w
  7929     0BCF  00F8               	movwf	i1read_prec_or_width@ap+1
  7930     0BD0  160A  118A  20E1  120A  158A  	fcall	i1_read_prec_or_width
  7931     0BD5  0877               	movf	?i1_read_prec_or_width+1,w
  7932     0BD6  1683               	bsf	3,5	;RP0=1, select bank1
  7933     0BD7  1303               	bcf	3,6	;RP1=0, select bank1
  7934     0BD8  00DA               	movwf	(_prec+1)^(0+128)
  7935     0BD9  0876               	movf	?i1_read_prec_or_width,w
  7936     0BDA  00D9               	movwf	_prec^(0+128)
  7937     0BDB                     i1l3471:
  7938                           
  7939                           ;C:\Program Files\Microchip\xc8\v2.50\pic\sources\c99\common\doprnt.c: 1273:         if 
      +                          ((*fmt)[0] == 'c') {
  7940     0BDB  1283               	bcf	3,5	;RP0=0, select bank0
  7941     0BDC  0841               	movf	i1vfpfcnvrt@fmt,w
  7942     0BDD  0084               	movwf	4
  7943     0BDE  1383               	bcf	3,7	;select IRP bank0
  7944     0BDF  0800               	movf	0,w
  7945     0BE0  00C4               	movwf	??i1_vfpfcnvrt
  7946     0BE1  0A84               	incf	4,f
  7947     0BE2  0800               	movf	0,w
  7948     0BE3  00C5               	movwf	??i1_vfpfcnvrt+1
  7949     0BE4  0845               	movf	??i1_vfpfcnvrt+1,w
  7950     0BE5  00FF               	movwf	btemp+1
  7951     0BE6  0844               	movf	??i1_vfpfcnvrt,w
  7952     0BE7  0084               	movwf	4
  7953     0BE8  160A  158A  2000  120A  158A  	fcall	stringtab
  7954     0BED  3A63               	xorlw	99
  7955     0BEE  1D03               	skipz
  7956     0BEF  2BF1               	goto	u474_21
  7957     0BF0  2BF2               	goto	u474_20
  7958     0BF1                     u474_21:
  7959     0BF1  2C23               	goto	i1l3481
  7960     0BF2                     u474_20:
  7961     0BF2                     i1l3473:
  7962                           
  7963                           ;C:\Program Files\Microchip\xc8\v2.50\pic\sources\c99\common\doprnt.c: 1274:            
      +                           ++*fmt;
  7964     0BF2  0841               	movf	i1vfpfcnvrt@fmt,w
  7965     0BF3  0084               	movwf	4
  7966     0BF4  3001               	movlw	1
  7967     0BF5  1383               	bcf	3,7	;select IRP bank0
  7968     0BF6  0780               	addwf	0,f
  7969     0BF7  0A84               	incf	4,f
  7970     0BF8  1803               	skipnc
  7971     0BF9  0A80               	incf	0,f
  7972     0BFA                     i1l3475:
  7973                           
  7974                           ;C:\Program Files\Microchip\xc8\v2.50\pic\sources\c99\common\doprnt.c: 1275:            
      +                           c = (unsigned char)(*(int *)__va_arg(*(int **)ap, (int)0));
  7975     0BFA  0842               	movf	i1vfpfcnvrt@ap,w
  7976     0BFB  0084               	movwf	4
  7977     0BFC  1783               	bsf	3,7
  7978     0BFD  1C43               	btfss	i1vfpfcnvrt@ap+1,0
  7979     0BFE  1383               	bcf	3,7
  7980     0BFF  0800               	movf	0,w
  7981     0C00  00C4               	movwf	??i1_vfpfcnvrt
  7982     0C01  3002               	movlw	2
  7983     0C02  0780               	addwf	0,f
  7984     0C03  0A84               	incf	4,f
  7985     0C04  0800               	movf	0,w
  7986     0C05  00C5               	movwf	??i1_vfpfcnvrt+1
  7987     0C06  3000               	movlw	0
  7988     0C07  1803               	skipnc
  7989     0C08  0A80               	incf	0,f
  7990     0C09  0780               	addwf	0,f
  7991     0C0A  0844               	movf	??i1_vfpfcnvrt,w
  7992     0C0B  0084               	movwf	4
  7993     0C0C  1783               	bsf	3,7
  7994     0C0D  1C45               	btfss	??i1_vfpfcnvrt+1,0
  7995     0C0E  1383               	bcf	3,7
  7996     0C0F  0800               	movf	0,w
  7997     0C10  00CD               	movwf	i1vfpfcnvrt@c
  7998     0C11                     i1l3477:
  7999                           
  8000                           ;C:\Program Files\Microchip\xc8\v2.50\pic\sources\c99\common\doprnt.c: 1284:            
      +                           return (int) ctoa(fp, c);
  8001     0C11  083F               	movf	i1vfpfcnvrt@fp,w
  8002     0C12  00A0               	movwf	i1ctoa@fp
  8003     0C13  0840               	movf	i1vfpfcnvrt@fp+1,w
  8004     0C14  00A1               	movwf	i1ctoa@fp+1
  8005     0C15  084D               	movf	i1vfpfcnvrt@c,w
  8006     0C16  00A2               	movwf	i1ctoa@c
  8007     0C17  160A  118A  2256  120A  158A  	fcall	i1_ctoa
  8008     0C1C  1283               	bcf	3,5	;RP0=0, select bank0
  8009     0C1D  1303               	bcf	3,6	;RP1=0, select bank0
  8010     0C1E  0821               	movf	?i1_ctoa+1,w
  8011     0C1F  00C0               	movwf	?i1_vfpfcnvrt+1
  8012     0C20  0820               	movf	?i1_ctoa,w
  8013     0C21  00BF               	movwf	?i1_vfpfcnvrt
  8014     0C22  2FFF               	goto	i1l778
  8015     0C23                     i1l3481:
  8016                           
  8017                           ;C:\Program Files\Microchip\xc8\v2.50\pic\sources\c99\common\doprnt.c: 1291:   cp = *fmt
      +                          ;
  8018     0C23  0841               	movf	i1vfpfcnvrt@fmt,w
  8019     0C24  0084               	movwf	4
  8020     0C25  1383               	bcf	3,7	;select IRP bank0
  8021     0C26  0800               	movf	0,w
  8022     0C27  00CE               	movwf	i1vfpfcnvrt@cp
  8023     0C28  0A84               	incf	4,f
  8024     0C29  0800               	movf	0,w
  8025     0C2A  0384               	decf	4,f
  8026     0C2B  00CF               	movwf	i1vfpfcnvrt@cp+1
  8027     0C2C                     i1l3483:
  8028                           
  8029                           ;C:\Program Files\Microchip\xc8\v2.50\pic\sources\c99\common\doprnt.c: 1293:   c = *cp;
  8030     0C2C  084F               	movf	i1vfpfcnvrt@cp+1,w
  8031     0C2D  00FF               	movwf	btemp+1
  8032     0C2E  084E               	movf	i1vfpfcnvrt@cp,w
  8033     0C2F  0084               	movwf	4
  8034     0C30  160A  158A  2000  120A  158A  	fcall	stringtab
  8035     0C35  00CD               	movwf	i1vfpfcnvrt@c
  8036                           
  8037                           ;C:\Program Files\Microchip\xc8\v2.50\pic\sources\c99\common\doprnt.c: 1294:   switch(c)
      +                           {
  8038     0C36  2C59               	goto	i1l3499
  8039     0C37                     i1l3485:
  8040                           
  8041                           ;C:\Program Files\Microchip\xc8\v2.50\pic\sources\c99\common\doprnt.c: 1298:     cp++;
  8042     0C37  3001               	movlw	1
  8043     0C38  07CE               	addwf	i1vfpfcnvrt@cp,f
  8044     0C39  1803               	skipnc
  8045     0C3A  0ACF               	incf	i1vfpfcnvrt@cp+1,f
  8046     0C3B  3000               	movlw	0
  8047     0C3C  07CF               	addwf	i1vfpfcnvrt@cp+1,f
  8048     0C3D                     i1l3487:
  8049                           
  8050                           ;C:\Program Files\Microchip\xc8\v2.50\pic\sources\c99\common\doprnt.c: 1300:     if (*cp
      +                           == 'h') {
  8051     0C3D  084F               	movf	i1vfpfcnvrt@cp+1,w
  8052     0C3E  00FF               	movwf	btemp+1
  8053     0C3F  084E               	movf	i1vfpfcnvrt@cp,w
  8054     0C40  0084               	movwf	4
  8055     0C41  160A  158A  2000  120A  158A  	fcall	stringtab
  8056     0C46  3A68               	xorlw	104
  8057     0C47  1D03               	skipz
  8058     0C48  2C4A               	goto	u475_21
  8059     0C49  2C4B               	goto	u475_20
  8060     0C4A                     u475_21:
  8061     0C4A  2C79               	goto	i1l3501
  8062     0C4B                     u475_20:
  8063     0C4B                     i1l3489:
  8064                           
  8065                           ;C:\Program Files\Microchip\xc8\v2.50\pic\sources\c99\common\doprnt.c: 1301:      c = 'H
      +                          ';
  8066     0C4B  3048               	movlw	72
  8067     0C4C  00CD               	movwf	i1vfpfcnvrt@c
  8068     0C4D                     i1l3491:
  8069                           
  8070                           ;C:\Program Files\Microchip\xc8\v2.50\pic\sources\c99\common\doprnt.c: 1302:      cp++;
  8071     0C4D  3001               	movlw	1
  8072     0C4E  07CE               	addwf	i1vfpfcnvrt@cp,f
  8073     0C4F  1803               	skipnc
  8074     0C50  0ACF               	incf	i1vfpfcnvrt@cp+1,f
  8075     0C51  3000               	movlw	0
  8076     0C52  07CF               	addwf	i1vfpfcnvrt@cp+1,f
  8077     0C53  2C79               	goto	i1l3501
  8078     0C54                     i1l788:	
  8079                           ;C:\Program Files\Microchip\xc8\v2.50\pic\sources\c99\common\doprnt.c: 1339:    case 'd'
      +                          :
  8080                           
  8081     0C54                     i1l791:	
  8082                           ;C:\Program Files\Microchip\xc8\v2.50\pic\sources\c99\common\doprnt.c: 1348:    case 'n'
      +                          :
  8083                           
  8084                           
  8085                           ;C:\Program Files\Microchip\xc8\v2.50\pic\sources\c99\common\doprnt.c: 1350:     c = 'i'
      +                          ;
  8086     0C54  3069               	movlw	105
  8087     0C55  00CD               	movwf	i1vfpfcnvrt@c
  8088                           
  8089                           ;C:\Program Files\Microchip\xc8\v2.50\pic\sources\c99\common\doprnt.c: 1351:     break;
  8090     0C56  2C79               	goto	i1l3501
  8091     0C57                     i1l3495:
  8092                           
  8093                           ;C:\Program Files\Microchip\xc8\v2.50\pic\sources\c99\common\doprnt.c: 1353:     c = 0;
  8094     0C57  01CD               	clrf	i1vfpfcnvrt@c
  8095                           
  8096                           ;C:\Program Files\Microchip\xc8\v2.50\pic\sources\c99\common\doprnt.c: 1354:     break;
  8097     0C58  2C79               	goto	i1l3501
  8098     0C59                     i1l3499:
  8099     0C59  084D               	movf	i1vfpfcnvrt@c,w
  8100                           
  8101                           ; Switch size 1, requested type "simple"
  8102                           ; Number of cases is 10, Range of values is 88 to 122
  8103                           ; switch strategies available:
  8104                           ; Name         Instructions Cycles
  8105                           ; simple_byte           31    16 (average)
  8106                           ; direct_byte          116    11 (fixed)
  8107                           ; jumptable            263     9 (fixed)
  8108                           ;	Chosen strategy is simple_byte
  8109     0C5A  3A58               	xorlw	88	; case 88
  8110     0C5B  1903               	skipnz
  8111     0C5C  2C54               	goto	i1l791
  8112     0C5D  3A3C               	xorlw	60	; case 100
  8113     0C5E  1903               	skipnz
  8114     0C5F  2C54               	goto	i1l791
  8115     0C60  3A0C               	xorlw	12	; case 104
  8116     0C61  1903               	skipnz
  8117     0C62  2C37               	goto	i1l3485
  8118     0C63  3A01               	xorlw	1	; case 105
  8119     0C64  1903               	skipnz
  8120     0C65  2C54               	goto	i1l791
  8121     0C66  3A07               	xorlw	7	; case 110
  8122     0C67  1903               	skipnz
  8123     0C68  2C54               	goto	i1l791
  8124     0C69  3A01               	xorlw	1	; case 111
  8125     0C6A  1903               	skipnz
  8126     0C6B  2C54               	goto	i1l788
  8127     0C6C  3A1B               	xorlw	27	; case 116
  8128     0C6D  1903               	skipnz
  8129     0C6E  2C4D               	goto	i1l3491
  8130     0C6F  3A01               	xorlw	1	; case 117
  8131     0C70  1903               	skipnz
  8132     0C71  2C54               	goto	i1l791
  8133     0C72  3A0D               	xorlw	13	; case 120
  8134     0C73  1903               	skipnz
  8135     0C74  2C54               	goto	i1l791
  8136     0C75  3A02               	xorlw	2	; case 122
  8137     0C76  1903               	skipnz
  8138     0C77  2C4D               	goto	i1l3491
  8139     0C78  2C57               	goto	i1l3495
  8140     0C79                     i1l3501:
  8141                           
  8142                           ;C:\Program Files\Microchip\xc8\v2.50\pic\sources\c99\common\doprnt.c: 1361:   if (*cp =
      +                          = 'd' || *cp == 'i') {
  8143     0C79  084F               	movf	i1vfpfcnvrt@cp+1,w
  8144     0C7A  00FF               	movwf	btemp+1
  8145     0C7B  084E               	movf	i1vfpfcnvrt@cp,w
  8146     0C7C  0084               	movwf	4
  8147     0C7D  160A  158A  2000  120A  158A  	fcall	stringtab
  8148     0C82  3A64               	xorlw	100
  8149     0C83  1903               	skipnz
  8150     0C84  2C86               	goto	u476_21
  8151     0C85  2C87               	goto	u476_20
  8152     0C86                     u476_21:
  8153     0C86  2D1D               	goto	i1l3517
  8154     0C87                     u476_20:
  8155     0C87                     i1l3503:
  8156     0C87  084F               	movf	i1vfpfcnvrt@cp+1,w
  8157     0C88  00FF               	movwf	btemp+1
  8158     0C89  084E               	movf	i1vfpfcnvrt@cp,w
  8159     0C8A  0084               	movwf	4
  8160     0C8B  160A  158A  2000  120A  158A  	fcall	stringtab
  8161     0C90  3A69               	xorlw	105
  8162     0C91  1D03               	skipz
  8163     0C92  2C94               	goto	u477_21
  8164     0C93  2C95               	goto	u477_20
  8165     0C94                     u477_21:
  8166     0C94  2D58               	goto	i1l3525
  8167     0C95                     u477_20:
  8168     0C95  2D1D               	goto	i1l3517
  8169     0C96                     i1l3505:
  8170                           
  8171                           ;C:\Program Files\Microchip\xc8\v2.50\pic\sources\c99\common\doprnt.c: 1365:      convar
      +                          g.sint = (vfpf_sint_t)(int)(*(int *)__va_arg(*(int **)ap, (int)0));
  8172     0C96  0842               	movf	i1vfpfcnvrt@ap,w
  8173     0C97  0084               	movwf	4
  8174     0C98  1783               	bsf	3,7
  8175     0C99  1C43               	btfss	i1vfpfcnvrt@ap+1,0
  8176     0C9A  1383               	bcf	3,7
  8177     0C9B  0800               	movf	0,w
  8178     0C9C  00C4               	movwf	??i1_vfpfcnvrt
  8179     0C9D  3002               	movlw	2
  8180     0C9E  0780               	addwf	0,f
  8181     0C9F  0A84               	incf	4,f
  8182     0CA0  0800               	movf	0,w
  8183     0CA1  00C5               	movwf	??i1_vfpfcnvrt+1
  8184     0CA2  3000               	movlw	0
  8185     0CA3  1803               	skipnc
  8186     0CA4  0A80               	incf	0,f
  8187     0CA5  0780               	addwf	0,f
  8188     0CA6  0844               	movf	??i1_vfpfcnvrt,w
  8189     0CA7  0084               	movwf	4
  8190     0CA8  1783               	bsf	3,7
  8191     0CA9  1C45               	btfss	??i1_vfpfcnvrt+1,0
  8192     0CAA  1383               	bcf	3,7
  8193     0CAB  0800               	movf	0,w
  8194     0CAC  00C9               	movwf	i1vfpfcnvrt@convarg
  8195     0CAD  0A84               	incf	4,f
  8196     0CAE  0800               	movf	0,w
  8197     0CAF  00CA               	movwf	i1vfpfcnvrt@convarg+1
  8198                           
  8199                           ;C:\Program Files\Microchip\xc8\v2.50\pic\sources\c99\common\doprnt.c: 1366:      break;
  8200     0CB0  2D2E               	goto	i1l3519
  8201     0CB1                     i1l3507:
  8202                           
  8203                           ;C:\Program Files\Microchip\xc8\v2.50\pic\sources\c99\common\doprnt.c: 1369:      convar
      +                          g.sint = (vfpf_sint_t)(short)(*(int *)__va_arg(*(int **)ap, (int)0));
  8204     0CB1  0842               	movf	i1vfpfcnvrt@ap,w
  8205     0CB2  0084               	movwf	4
  8206     0CB3  1783               	bsf	3,7
  8207     0CB4  1C43               	btfss	i1vfpfcnvrt@ap+1,0
  8208     0CB5  1383               	bcf	3,7
  8209     0CB6  0800               	movf	0,w
  8210     0CB7  00C4               	movwf	??i1_vfpfcnvrt
  8211     0CB8  3002               	movlw	2
  8212     0CB9  0780               	addwf	0,f
  8213     0CBA  0A84               	incf	4,f
  8214     0CBB  0800               	movf	0,w
  8215     0CBC  00C5               	movwf	??i1_vfpfcnvrt+1
  8216     0CBD  3000               	movlw	0
  8217     0CBE  1803               	skipnc
  8218     0CBF  0A80               	incf	0,f
  8219     0CC0  0780               	addwf	0,f
  8220     0CC1  0844               	movf	??i1_vfpfcnvrt,w
  8221     0CC2  0084               	movwf	4
  8222     0CC3  1783               	bsf	3,7
  8223     0CC4  1C45               	btfss	??i1_vfpfcnvrt+1,0
  8224     0CC5  1383               	bcf	3,7
  8225     0CC6  0800               	movf	0,w
  8226     0CC7  00C9               	movwf	i1vfpfcnvrt@convarg
  8227     0CC8  0A84               	incf	4,f
  8228     0CC9  0800               	movf	0,w
  8229     0CCA  00CA               	movwf	i1vfpfcnvrt@convarg+1
  8230                           
  8231                           ;C:\Program Files\Microchip\xc8\v2.50\pic\sources\c99\common\doprnt.c: 1370:      break;
  8232     0CCB  2D2E               	goto	i1l3519
  8233     0CCC                     i1l3509:
  8234                           
  8235                           ;C:\Program Files\Microchip\xc8\v2.50\pic\sources\c99\common\doprnt.c: 1374:      convar
      +                          g.sint = (vfpf_sint_t)(signed char)(*(int *)__va_arg(*(int **)ap, (int)0));
  8236     0CCC  0842               	movf	i1vfpfcnvrt@ap,w
  8237     0CCD  0084               	movwf	4
  8238     0CCE  1783               	bsf	3,7
  8239     0CCF  1C43               	btfss	i1vfpfcnvrt@ap+1,0
  8240     0CD0  1383               	bcf	3,7
  8241     0CD1  0800               	movf	0,w
  8242     0CD2  00C4               	movwf	??i1_vfpfcnvrt
  8243     0CD3  3002               	movlw	2
  8244     0CD4  0780               	addwf	0,f
  8245     0CD5  0A84               	incf	4,f
  8246     0CD6  0800               	movf	0,w
  8247     0CD7  00C5               	movwf	??i1_vfpfcnvrt+1
  8248     0CD8  3000               	movlw	0
  8249     0CD9  1803               	skipnc
  8250     0CDA  0A80               	incf	0,f
  8251     0CDB  0780               	addwf	0,f
  8252     0CDC  0844               	movf	??i1_vfpfcnvrt,w
  8253     0CDD  0084               	movwf	4
  8254     0CDE  1783               	bsf	3,7
  8255     0CDF  1C45               	btfss	??i1_vfpfcnvrt+1,0
  8256     0CE0  1383               	bcf	3,7
  8257     0CE1  0800               	movf	0,w
  8258     0CE2  00C9               	movwf	i1vfpfcnvrt@convarg
  8259     0CE3  01CA               	clrf	i1vfpfcnvrt@convarg+1
  8260     0CE4  1BC9               	btfsc	i1vfpfcnvrt@convarg,7
  8261     0CE5  03CA               	decf	i1vfpfcnvrt@convarg+1,f
  8262                           
  8263                           ;C:\Program Files\Microchip\xc8\v2.50\pic\sources\c99\common\doprnt.c: 1375:      break;
  8264     0CE6  2D2E               	goto	i1l3519
  8265     0CE7                     i1l3511:
  8266                           
  8267                           ;C:\Program Files\Microchip\xc8\v2.50\pic\sources\c99\common\doprnt.c: 1389:      convar
      +                          g.sint = (vfpf_sint_t)(*(ptrdiff_t *)__va_arg(*(ptrdiff_t **)ap, (ptrdiff_t)0));
  8268     0CE7  0842               	movf	i1vfpfcnvrt@ap,w
  8269     0CE8  0084               	movwf	4
  8270     0CE9  1783               	bsf	3,7
  8271     0CEA  1C43               	btfss	i1vfpfcnvrt@ap+1,0
  8272     0CEB  1383               	bcf	3,7
  8273     0CEC  0800               	movf	0,w
  8274     0CED  00C4               	movwf	??i1_vfpfcnvrt
  8275     0CEE  3002               	movlw	2
  8276     0CEF  0780               	addwf	0,f
  8277     0CF0  0A84               	incf	4,f
  8278     0CF1  0800               	movf	0,w
  8279     0CF2  00C5               	movwf	??i1_vfpfcnvrt+1
  8280     0CF3  3000               	movlw	0
  8281     0CF4  1803               	skipnc
  8282     0CF5  0A80               	incf	0,f
  8283     0CF6  0780               	addwf	0,f
  8284     0CF7  0844               	movf	??i1_vfpfcnvrt,w
  8285     0CF8  0084               	movwf	4
  8286     0CF9  1783               	bsf	3,7
  8287     0CFA  1C45               	btfss	??i1_vfpfcnvrt+1,0
  8288     0CFB  1383               	bcf	3,7
  8289     0CFC  0800               	movf	0,w
  8290     0CFD  00C9               	movwf	i1vfpfcnvrt@convarg
  8291     0CFE  0A84               	incf	4,f
  8292     0CFF  0800               	movf	0,w
  8293     0D00  00CA               	movwf	i1vfpfcnvrt@convarg+1
  8294                           
  8295                           ;C:\Program Files\Microchip\xc8\v2.50\pic\sources\c99\common\doprnt.c: 1390:      break;
  8296     0D01  2D2E               	goto	i1l3519
  8297     0D02                     i1l3513:
  8298                           
  8299                           ;C:\Program Files\Microchip\xc8\v2.50\pic\sources\c99\common\doprnt.c: 1399:      convar
      +                          g.sint = (vfpf_sint_t)(*(size_t *)__va_arg(*(size_t **)ap, (size_t)0));
  8300     0D02  0842               	movf	i1vfpfcnvrt@ap,w
  8301     0D03  0084               	movwf	4
  8302     0D04  1783               	bsf	3,7
  8303     0D05  1C43               	btfss	i1vfpfcnvrt@ap+1,0
  8304     0D06  1383               	bcf	3,7
  8305     0D07  0800               	movf	0,w
  8306     0D08  00C4               	movwf	??i1_vfpfcnvrt
  8307     0D09  3002               	movlw	2
  8308     0D0A  0780               	addwf	0,f
  8309     0D0B  0A84               	incf	4,f
  8310     0D0C  0800               	movf	0,w
  8311     0D0D  00C5               	movwf	??i1_vfpfcnvrt+1
  8312     0D0E  3000               	movlw	0
  8313     0D0F  1803               	skipnc
  8314     0D10  0A80               	incf	0,f
  8315     0D11  0780               	addwf	0,f
  8316     0D12  0844               	movf	??i1_vfpfcnvrt,w
  8317     0D13  0084               	movwf	4
  8318     0D14  1783               	bsf	3,7
  8319     0D15  1C45               	btfss	??i1_vfpfcnvrt+1,0
  8320     0D16  1383               	bcf	3,7
  8321     0D17  0800               	movf	0,w
  8322     0D18  00C9               	movwf	i1vfpfcnvrt@convarg
  8323     0D19  0A84               	incf	4,f
  8324     0D1A  0800               	movf	0,w
  8325     0D1B  00CA               	movwf	i1vfpfcnvrt@convarg+1
  8326                           
  8327                           ;C:\Program Files\Microchip\xc8\v2.50\pic\sources\c99\common\doprnt.c: 1400:      break;
  8328     0D1C  2D2E               	goto	i1l3519
  8329     0D1D                     i1l3517:
  8330     0D1D  084D               	movf	i1vfpfcnvrt@c,w
  8331                           
  8332                           ; Switch size 1, requested type "simple"
  8333                           ; Number of cases is 5, Range of values is 72 to 122
  8334                           ; switch strategies available:
  8335                           ; Name         Instructions Cycles
  8336                           ; simple_byte           16     9 (average)
  8337                           ; direct_byte          164    11 (fixed)
  8338                           ; jumptable            263     9 (fixed)
  8339                           ;	Chosen strategy is simple_byte
  8340     0D1E  3A48               	xorlw	72	; case 72
  8341     0D1F  1903               	skipnz
  8342     0D20  2CCC               	goto	i1l3509
  8343     0D21  3A20               	xorlw	32	; case 104
  8344     0D22  1903               	skipnz
  8345     0D23  2CB1               	goto	i1l3507
  8346     0D24  3A01               	xorlw	1	; case 105
  8347     0D25  1903               	skipnz
  8348     0D26  2C96               	goto	i1l3505
  8349     0D27  3A1D               	xorlw	29	; case 116
  8350     0D28  1903               	skipnz
  8351     0D29  2CE7               	goto	i1l3511
  8352     0D2A  3A0E               	xorlw	14	; case 122
  8353     0D2B  1903               	skipnz
  8354     0D2C  2D02               	goto	i1l3513
  8355     0D2D  2D2E               	goto	i1l3519
  8356     0D2E                     i1l3519:
  8357                           
  8358                           ;C:\Program Files\Microchip\xc8\v2.50\pic\sources\c99\common\doprnt.c: 1406:    *fmt = c
      +                          p+1;
  8359     0D2E  3001               	movlw	1
  8360     0D2F  00C4               	movwf	??i1_vfpfcnvrt
  8361     0D30  0844               	movf	??i1_vfpfcnvrt,w
  8362     0D31  074E               	addwf	i1vfpfcnvrt@cp,w
  8363     0D32  00C6               	movwf	??i1_vfpfcnvrt+2
  8364     0D33  084F               	movf	i1vfpfcnvrt@cp+1,w
  8365     0D34  00C5               	movwf	??i1_vfpfcnvrt+1
  8366     0D35  1803               	skipnc
  8367     0D36  0AC5               	incf	??i1_vfpfcnvrt+1,f
  8368     0D37  1BC4               	btfsc	??i1_vfpfcnvrt,7
  8369     0D38  03C5               	decf	??i1_vfpfcnvrt+1,f
  8370     0D39  0845               	movf	??i1_vfpfcnvrt+1,w
  8371     0D3A  00C7               	movwf	??i1_vfpfcnvrt+3
  8372     0D3B  0841               	movf	i1vfpfcnvrt@fmt,w
  8373     0D3C  0084               	movwf	4
  8374     0D3D  0846               	movf	??i1_vfpfcnvrt+2,w
  8375     0D3E  1383               	bcf	3,7	;select IRP bank0
  8376     0D3F  0080               	movwf	0
  8377     0D40  0847               	movf	??i1_vfpfcnvrt+3,w
  8378     0D41  0A84               	incf	4,f
  8379     0D42  0080               	movwf	0
  8380     0D43  0384               	decf	4,f
  8381     0D44                     i1l3521:
  8382                           
  8383                           ;C:\Program Files\Microchip\xc8\v2.50\pic\sources\c99\common\doprnt.c: 1432:    return (
      +                          int) dtoa(fp, convarg.sint);
  8384     0D44  083F               	movf	i1vfpfcnvrt@fp,w
  8385     0D45  00AF               	movwf	i1dtoa@fp
  8386     0D46  0840               	movf	i1vfpfcnvrt@fp+1,w
  8387     0D47  00B0               	movwf	i1dtoa@fp+1
  8388     0D48  084A               	movf	i1vfpfcnvrt@convarg+1,w
  8389     0D49  00B2               	movwf	i1dtoa@d+1
  8390     0D4A  0849               	movf	i1vfpfcnvrt@convarg,w
  8391     0D4B  00B1               	movwf	i1dtoa@d
  8392     0D4C  160A  118A  26EC  120A  158A  	fcall	i1_dtoa
  8393     0D51  1283               	bcf	3,5	;RP0=0, select bank0
  8394     0D52  1303               	bcf	3,6	;RP1=0, select bank0
  8395     0D53  0830               	movf	?i1_dtoa+1,w
  8396     0D54  00C0               	movwf	?i1_vfpfcnvrt+1
  8397     0D55  082F               	movf	?i1_dtoa,w
  8398     0D56  00BF               	movwf	?i1_vfpfcnvrt
  8399     0D57  2FFF               	goto	i1l778
  8400     0D58                     i1l3525:
  8401     0D58  084F               	movf	i1vfpfcnvrt@cp+1,w
  8402     0D59  00FF               	movwf	btemp+1
  8403     0D5A  084E               	movf	i1vfpfcnvrt@cp,w
  8404     0D5B  0084               	movwf	4
  8405     0D5C  160A  158A  2000  120A  158A  	fcall	stringtab
  8406     0D61  3A78               	xorlw	120
  8407     0D62  1903               	skipnz
  8408     0D63  2D65               	goto	u478_21
  8409     0D64  2D66               	goto	u478_20
  8410     0D65                     u478_21:
  8411     0D65  2E1A               	goto	i1l3545
  8412     0D66                     u478_20:
  8413     0D66                     i1l3527:
  8414     0D66  084F               	movf	i1vfpfcnvrt@cp+1,w
  8415     0D67  00FF               	movwf	btemp+1
  8416     0D68  084E               	movf	i1vfpfcnvrt@cp,w
  8417     0D69  0084               	movwf	4
  8418     0D6A  160A  158A  2000  120A  158A  	fcall	stringtab
  8419     0D6F  3A58               	xorlw	88
  8420     0D70  1903               	skipnz
  8421     0D71  2D73               	goto	u479_21
  8422     0D72  2D74               	goto	u479_20
  8423     0D73                     u479_21:
  8424     0D73  2E1A               	goto	i1l3545
  8425     0D74                     u479_20:
  8426     0D74                     i1l3529:
  8427     0D74  084F               	movf	i1vfpfcnvrt@cp+1,w
  8428     0D75  00FF               	movwf	btemp+1
  8429     0D76  084E               	movf	i1vfpfcnvrt@cp,w
  8430     0D77  0084               	movwf	4
  8431     0D78  160A  158A  2000  120A  158A  	fcall	stringtab
  8432     0D7D  3A6F               	xorlw	111
  8433     0D7E  1903               	skipnz
  8434     0D7F  2D81               	goto	u480_21
  8435     0D80  2D82               	goto	u480_20
  8436     0D81                     u480_21:
  8437     0D81  2E1A               	goto	i1l3545
  8438     0D82                     u480_20:
  8439     0D82                     i1l3531:
  8440     0D82  084F               	movf	i1vfpfcnvrt@cp+1,w
  8441     0D83  00FF               	movwf	btemp+1
  8442     0D84  084E               	movf	i1vfpfcnvrt@cp,w
  8443     0D85  0084               	movwf	4
  8444     0D86  160A  158A  2000  120A  158A  	fcall	stringtab
  8445     0D8B  3A75               	xorlw	117
  8446     0D8C  1D03               	skipz
  8447     0D8D  2D8F               	goto	u481_21
  8448     0D8E  2D90               	goto	u481_20
  8449     0D8F                     u481_21:
  8450     0D8F  2E9E               	goto	i1l3565
  8451     0D90                     u481_20:
  8452     0D90  2E1A               	goto	i1l3545
  8453     0D91                     i1l3533:
  8454                           
  8455                           ;C:\Program Files\Microchip\xc8\v2.50\pic\sources\c99\common\doprnt.c: 1456:      convar
      +                          g.uint = (vfpf_uint_t)(unsigned int)(*(unsigned int *)__va_arg(*(unsigned int **)ap, (un
      +                          signed int)0));
  8456     0D91  0842               	movf	i1vfpfcnvrt@ap,w
  8457     0D92  0084               	movwf	4
  8458     0D93  1783               	bsf	3,7
  8459     0D94  1C43               	btfss	i1vfpfcnvrt@ap+1,0
  8460     0D95  1383               	bcf	3,7
  8461     0D96  0800               	movf	0,w
  8462     0D97  00C4               	movwf	??i1_vfpfcnvrt
  8463     0D98  3002               	movlw	2
  8464     0D99  0780               	addwf	0,f
  8465     0D9A  0A84               	incf	4,f
  8466     0D9B  0800               	movf	0,w
  8467     0D9C  00C5               	movwf	??i1_vfpfcnvrt+1
  8468     0D9D  3000               	movlw	0
  8469     0D9E  1803               	skipnc
  8470     0D9F  0A80               	incf	0,f
  8471     0DA0  0780               	addwf	0,f
  8472     0DA1  0844               	movf	??i1_vfpfcnvrt,w
  8473     0DA2  0084               	movwf	4
  8474     0DA3  1783               	bsf	3,7
  8475     0DA4  1C45               	btfss	??i1_vfpfcnvrt+1,0
  8476     0DA5  1383               	bcf	3,7
  8477     0DA6  0800               	movf	0,w
  8478     0DA7  00C9               	movwf	i1vfpfcnvrt@convarg
  8479     0DA8  0A84               	incf	4,f
  8480     0DA9  0800               	movf	0,w
  8481     0DAA  00CA               	movwf	i1vfpfcnvrt@convarg+1
  8482                           
  8483                           ;C:\Program Files\Microchip\xc8\v2.50\pic\sources\c99\common\doprnt.c: 1457:      break;
  8484     0DAB  2E2B               	goto	i1l3547
  8485     0DAC                     i1l3535:
  8486                           
  8487                           ;C:\Program Files\Microchip\xc8\v2.50\pic\sources\c99\common\doprnt.c: 1460:      convar
      +                          g.uint = (vfpf_uint_t)(unsigned short)(*(unsigned int *)__va_arg(*(unsigned int **)ap, (
      +                          unsigned int)0));
  8488     0DAC  0842               	movf	i1vfpfcnvrt@ap,w
  8489     0DAD  0084               	movwf	4
  8490     0DAE  1783               	bsf	3,7
  8491     0DAF  1C43               	btfss	i1vfpfcnvrt@ap+1,0
  8492     0DB0  1383               	bcf	3,7
  8493     0DB1  0800               	movf	0,w
  8494     0DB2  00C4               	movwf	??i1_vfpfcnvrt
  8495     0DB3  3002               	movlw	2
  8496     0DB4  0780               	addwf	0,f
  8497     0DB5  0A84               	incf	4,f
  8498     0DB6  0800               	movf	0,w
  8499     0DB7  00C5               	movwf	??i1_vfpfcnvrt+1
  8500     0DB8  3000               	movlw	0
  8501     0DB9  1803               	skipnc
  8502     0DBA  0A80               	incf	0,f
  8503     0DBB  0780               	addwf	0,f
  8504     0DBC  0844               	movf	??i1_vfpfcnvrt,w
  8505     0DBD  0084               	movwf	4
  8506     0DBE  1783               	bsf	3,7
  8507     0DBF  1C45               	btfss	??i1_vfpfcnvrt+1,0
  8508     0DC0  1383               	bcf	3,7
  8509     0DC1  0800               	movf	0,w
  8510     0DC2  00C9               	movwf	i1vfpfcnvrt@convarg
  8511     0DC3  0A84               	incf	4,f
  8512     0DC4  0800               	movf	0,w
  8513     0DC5  00CA               	movwf	i1vfpfcnvrt@convarg+1
  8514                           
  8515                           ;C:\Program Files\Microchip\xc8\v2.50\pic\sources\c99\common\doprnt.c: 1461:      break;
  8516     0DC6  2E2B               	goto	i1l3547
  8517     0DC7                     i1l3537:
  8518                           
  8519                           ;C:\Program Files\Microchip\xc8\v2.50\pic\sources\c99\common\doprnt.c: 1465:      convar
      +                          g.uint = (vfpf_uint_t)(unsigned char)(*(unsigned int *)__va_arg(*(unsigned int **)ap, (u
      +                          nsigned int)0));
  8520     0DC7  0842               	movf	i1vfpfcnvrt@ap,w
  8521     0DC8  0084               	movwf	4
  8522     0DC9  1783               	bsf	3,7
  8523     0DCA  1C43               	btfss	i1vfpfcnvrt@ap+1,0
  8524     0DCB  1383               	bcf	3,7
  8525     0DCC  0800               	movf	0,w
  8526     0DCD  00C4               	movwf	??i1_vfpfcnvrt
  8527     0DCE  3002               	movlw	2
  8528     0DCF  0780               	addwf	0,f
  8529     0DD0  0A84               	incf	4,f
  8530     0DD1  0800               	movf	0,w
  8531     0DD2  00C5               	movwf	??i1_vfpfcnvrt+1
  8532     0DD3  3000               	movlw	0
  8533     0DD4  1803               	skipnc
  8534     0DD5  0A80               	incf	0,f
  8535     0DD6  0780               	addwf	0,f
  8536     0DD7  0844               	movf	??i1_vfpfcnvrt,w
  8537     0DD8  0084               	movwf	4
  8538     0DD9  1783               	bsf	3,7
  8539     0DDA  1C45               	btfss	??i1_vfpfcnvrt+1,0
  8540     0DDB  1383               	bcf	3,7
  8541     0DDC  0800               	movf	0,w
  8542     0DDD  00C6               	movwf	??i1_vfpfcnvrt+2
  8543     0DDE  01C7               	clrf	??i1_vfpfcnvrt+3
  8544     0DDF  0846               	movf	??i1_vfpfcnvrt+2,w
  8545     0DE0  00C9               	movwf	i1vfpfcnvrt@convarg
  8546     0DE1  0847               	movf	??i1_vfpfcnvrt+3,w
  8547     0DE2  00CA               	movwf	i1vfpfcnvrt@convarg+1
  8548                           
  8549                           ;C:\Program Files\Microchip\xc8\v2.50\pic\sources\c99\common\doprnt.c: 1466:      break;
  8550     0DE3  2E2B               	goto	i1l3547
  8551     0DE4                     i1l3539:
  8552                           
  8553                           ;C:\Program Files\Microchip\xc8\v2.50\pic\sources\c99\common\doprnt.c: 1480:      convar
      +                          g.uint = (vfpf_uint_t)(*(ptrdiff_t *)__va_arg(*(ptrdiff_t **)ap, (ptrdiff_t)0));
  8554     0DE4  0842               	movf	i1vfpfcnvrt@ap,w
  8555     0DE5  0084               	movwf	4
  8556     0DE6  1783               	bsf	3,7
  8557     0DE7  1C43               	btfss	i1vfpfcnvrt@ap+1,0
  8558     0DE8  1383               	bcf	3,7
  8559     0DE9  0800               	movf	0,w
  8560     0DEA  00C4               	movwf	??i1_vfpfcnvrt
  8561     0DEB  3002               	movlw	2
  8562     0DEC  0780               	addwf	0,f
  8563     0DED  0A84               	incf	4,f
  8564     0DEE  0800               	movf	0,w
  8565     0DEF  00C5               	movwf	??i1_vfpfcnvrt+1
  8566     0DF0  3000               	movlw	0
  8567     0DF1  1803               	skipnc
  8568     0DF2  0A80               	incf	0,f
  8569     0DF3  0780               	addwf	0,f
  8570     0DF4  0844               	movf	??i1_vfpfcnvrt,w
  8571     0DF5  0084               	movwf	4
  8572     0DF6  1783               	bsf	3,7
  8573     0DF7  1C45               	btfss	??i1_vfpfcnvrt+1,0
  8574     0DF8  1383               	bcf	3,7
  8575     0DF9  0800               	movf	0,w
  8576     0DFA  00C9               	movwf	i1vfpfcnvrt@convarg
  8577     0DFB  0A84               	incf	4,f
  8578     0DFC  0800               	movf	0,w
  8579     0DFD  00CA               	movwf	i1vfpfcnvrt@convarg+1
  8580                           
  8581                           ;C:\Program Files\Microchip\xc8\v2.50\pic\sources\c99\common\doprnt.c: 1481:      break;
  8582     0DFE  2E2B               	goto	i1l3547
  8583     0DFF                     i1l3541:
  8584                           
  8585                           ;C:\Program Files\Microchip\xc8\v2.50\pic\sources\c99\common\doprnt.c: 1490:      convar
      +                          g.uint = (vfpf_uint_t)(*(size_t *)__va_arg(*(size_t **)ap, (size_t)0));
  8586     0DFF  0842               	movf	i1vfpfcnvrt@ap,w
  8587     0E00  0084               	movwf	4
  8588     0E01  1783               	bsf	3,7
  8589     0E02  1C43               	btfss	i1vfpfcnvrt@ap+1,0
  8590     0E03  1383               	bcf	3,7
  8591     0E04  0800               	movf	0,w
  8592     0E05  00C4               	movwf	??i1_vfpfcnvrt
  8593     0E06  3002               	movlw	2
  8594     0E07  0780               	addwf	0,f
  8595     0E08  0A84               	incf	4,f
  8596     0E09  0800               	movf	0,w
  8597     0E0A  00C5               	movwf	??i1_vfpfcnvrt+1
  8598     0E0B  3000               	movlw	0
  8599     0E0C  1803               	skipnc
  8600     0E0D  0A80               	incf	0,f
  8601     0E0E  0780               	addwf	0,f
  8602     0E0F  0844               	movf	??i1_vfpfcnvrt,w
  8603     0E10  0084               	movwf	4
  8604     0E11  1783               	bsf	3,7
  8605     0E12  1C45               	btfss	??i1_vfpfcnvrt+1,0
  8606     0E13  1383               	bcf	3,7
  8607     0E14  0800               	movf	0,w
  8608     0E15  00C9               	movwf	i1vfpfcnvrt@convarg
  8609     0E16  0A84               	incf	4,f
  8610     0E17  0800               	movf	0,w
  8611     0E18  00CA               	movwf	i1vfpfcnvrt@convarg+1
  8612                           
  8613                           ;C:\Program Files\Microchip\xc8\v2.50\pic\sources\c99\common\doprnt.c: 1491:      break;
  8614     0E19  2E2B               	goto	i1l3547
  8615     0E1A                     i1l3545:
  8616     0E1A  084D               	movf	i1vfpfcnvrt@c,w
  8617                           
  8618                           ; Switch size 1, requested type "simple"
  8619                           ; Number of cases is 5, Range of values is 72 to 122
  8620                           ; switch strategies available:
  8621                           ; Name         Instructions Cycles
  8622                           ; simple_byte           16     9 (average)
  8623                           ; direct_byte          164    11 (fixed)
  8624                           ; jumptable            263     9 (fixed)
  8625                           ;	Chosen strategy is simple_byte
  8626     0E1B  3A48               	xorlw	72	; case 72
  8627     0E1C  1903               	skipnz
  8628     0E1D  2DC7               	goto	i1l3537
  8629     0E1E  3A20               	xorlw	32	; case 104
  8630     0E1F  1903               	skipnz
  8631     0E20  2DAC               	goto	i1l3535
  8632     0E21  3A01               	xorlw	1	; case 105
  8633     0E22  1903               	skipnz
  8634     0E23  2D91               	goto	i1l3533
  8635     0E24  3A1D               	xorlw	29	; case 116
  8636     0E25  1903               	skipnz
  8637     0E26  2DE4               	goto	i1l3539
  8638     0E27  3A0E               	xorlw	14	; case 122
  8639     0E28  1903               	skipnz
  8640     0E29  2DFF               	goto	i1l3541
  8641     0E2A  2E2B               	goto	i1l3547
  8642     0E2B                     i1l3547:
  8643                           
  8644                           ;C:\Program Files\Microchip\xc8\v2.50\pic\sources\c99\common\doprnt.c: 1497:    *fmt = c
      +                          p+1;
  8645     0E2B  3001               	movlw	1
  8646     0E2C  00C4               	movwf	??i1_vfpfcnvrt
  8647     0E2D  0844               	movf	??i1_vfpfcnvrt,w
  8648     0E2E  074E               	addwf	i1vfpfcnvrt@cp,w
  8649     0E2F  00C6               	movwf	??i1_vfpfcnvrt+2
  8650     0E30  084F               	movf	i1vfpfcnvrt@cp+1,w
  8651     0E31  00C5               	movwf	??i1_vfpfcnvrt+1
  8652     0E32  1803               	skipnc
  8653     0E33  0AC5               	incf	??i1_vfpfcnvrt+1,f
  8654     0E34  1BC4               	btfsc	??i1_vfpfcnvrt,7
  8655     0E35  03C5               	decf	??i1_vfpfcnvrt+1,f
  8656     0E36  0845               	movf	??i1_vfpfcnvrt+1,w
  8657     0E37  00C7               	movwf	??i1_vfpfcnvrt+3
  8658     0E38  0841               	movf	i1vfpfcnvrt@fmt,w
  8659     0E39  0084               	movwf	4
  8660     0E3A  0846               	movf	??i1_vfpfcnvrt+2,w
  8661     0E3B  1383               	bcf	3,7	;select IRP bank0
  8662     0E3C  0080               	movwf	0
  8663     0E3D  0847               	movf	??i1_vfpfcnvrt+3,w
  8664     0E3E  0A84               	incf	4,f
  8665     0E3F  0080               	movwf	0
  8666     0E40  0384               	decf	4,f
  8667                           
  8668                           ;C:\Program Files\Microchip\xc8\v2.50\pic\sources\c99\common\doprnt.c: 1498:    switch (
      +                          *cp) {
  8669     0E41  2E88               	goto	i1l3563
  8670     0E42                     i1l3549:
  8671                           
  8672                           ;C:\Program Files\Microchip\xc8\v2.50\pic\sources\c99\common\doprnt.c: 1519:      return
      +                           (int) otoa(fp, convarg.uint);
  8673     0E42  083F               	movf	i1vfpfcnvrt@fp,w
  8674     0E43  00AF               	movwf	i1otoa@fp
  8675     0E44  0840               	movf	i1vfpfcnvrt@fp+1,w
  8676     0E45  00B0               	movwf	i1otoa@fp+1
  8677     0E46  084A               	movf	i1vfpfcnvrt@convarg+1,w
  8678     0E47  00B2               	movwf	i1otoa@d+1
  8679     0E48  0849               	movf	i1vfpfcnvrt@convarg,w
  8680     0E49  00B1               	movwf	i1otoa@d
  8681     0E4A  160A  118A  2500  120A  158A  	fcall	i1_otoa
  8682     0E4F  1283               	bcf	3,5	;RP0=0, select bank0
  8683     0E50  1303               	bcf	3,6	;RP1=0, select bank0
  8684     0E51  0830               	movf	?i1_otoa+1,w
  8685     0E52  00C0               	movwf	?i1_vfpfcnvrt+1
  8686     0E53  082F               	movf	?i1_otoa,w
  8687     0E54  00BF               	movwf	?i1_vfpfcnvrt
  8688     0E55  2FFF               	goto	i1l778
  8689     0E56                     i1l3553:
  8690                           
  8691                           ;C:\Program Files\Microchip\xc8\v2.50\pic\sources\c99\common\doprnt.c: 1542:      return
      +                           (int) utoa(fp, convarg.uint);
  8692     0E56  083F               	movf	i1vfpfcnvrt@fp,w
  8693     0E57  00AF               	movwf	i1utoa@fp
  8694     0E58  0840               	movf	i1vfpfcnvrt@fp+1,w
  8695     0E59  00B0               	movwf	i1utoa@fp+1
  8696     0E5A  084A               	movf	i1vfpfcnvrt@convarg+1,w
  8697     0E5B  00B2               	movwf	i1utoa@d+1
  8698     0E5C  0849               	movf	i1vfpfcnvrt@convarg,w
  8699     0E5D  00B1               	movwf	i1utoa@d
  8700     0E5E  160A  118A  237D  120A  158A  	fcall	i1_utoa
  8701     0E63  1283               	bcf	3,5	;RP0=0, select bank0
  8702     0E64  1303               	bcf	3,6	;RP1=0, select bank0
  8703     0E65  0830               	movf	?i1_utoa+1,w
  8704     0E66  00C0               	movwf	?i1_vfpfcnvrt+1
  8705     0E67  082F               	movf	?i1_utoa,w
  8706     0E68  00BF               	movwf	?i1_vfpfcnvrt
  8707     0E69  2FFF               	goto	i1l778
  8708     0E6A                     i1l3557:
  8709                           
  8710                           ;C:\Program Files\Microchip\xc8\v2.50\pic\sources\c99\common\doprnt.c: 1586:      return
      +                           (int) xtoa(fp,convarg.uint,*cp);
  8711     0E6A  083F               	movf	i1vfpfcnvrt@fp,w
  8712     0E6B  00AF               	movwf	i1xtoa@fp
  8713     0E6C  0840               	movf	i1vfpfcnvrt@fp+1,w
  8714     0E6D  00B0               	movwf	i1xtoa@fp+1
  8715     0E6E  084A               	movf	i1vfpfcnvrt@convarg+1,w
  8716     0E6F  00B2               	movwf	i1xtoa@d+1
  8717     0E70  0849               	movf	i1vfpfcnvrt@convarg,w
  8718     0E71  00B1               	movwf	i1xtoa@d
  8719     0E72  084F               	movf	i1vfpfcnvrt@cp+1,w
  8720     0E73  00FF               	movwf	btemp+1
  8721     0E74  084E               	movf	i1vfpfcnvrt@cp,w
  8722     0E75  0084               	movwf	4
  8723     0E76  160A  158A  2000  120A  158A  	fcall	stringtab
  8724     0E7B  00B3               	movwf	i1xtoa@x
  8725     0E7C  160A  118A  25DC  120A  158A  	fcall	i1_xtoa
  8726     0E81  1283               	bcf	3,5	;RP0=0, select bank0
  8727     0E82  1303               	bcf	3,6	;RP1=0, select bank0
  8728     0E83  0830               	movf	?i1_xtoa+1,w
  8729     0E84  00C0               	movwf	?i1_vfpfcnvrt+1
  8730     0E85  082F               	movf	?i1_xtoa,w
  8731     0E86  00BF               	movwf	?i1_vfpfcnvrt
  8732     0E87  2FFF               	goto	i1l778
  8733     0E88                     i1l3563:
  8734     0E88  084F               	movf	i1vfpfcnvrt@cp+1,w
  8735     0E89  00FF               	movwf	btemp+1
  8736     0E8A  084E               	movf	i1vfpfcnvrt@cp,w
  8737     0E8B  0084               	movwf	4
  8738     0E8C  160A  158A  2000  120A  158A  	fcall	stringtab
  8739                           
  8740                           ; Switch size 1, requested type "simple"
  8741                           ; Number of cases is 4, Range of values is 88 to 120
  8742                           ; switch strategies available:
  8743                           ; Name         Instructions Cycles
  8744                           ; simple_byte           13     7 (average)
  8745                           ; direct_byte          110    11 (fixed)
  8746                           ; jumptable            263     9 (fixed)
  8747                           ;	Chosen strategy is simple_byte
  8748     0E91  3A58               	xorlw	88	; case 88
  8749     0E92  1903               	skipnz
  8750     0E93  2E6A               	goto	i1l3557
  8751     0E94  3A37               	xorlw	55	; case 111
  8752     0E95  1903               	skipnz
  8753     0E96  2E42               	goto	i1l3549
  8754     0E97  3A1A               	xorlw	26	; case 117
  8755     0E98  1903               	skipnz
  8756     0E99  2E56               	goto	i1l3553
  8757     0E9A  3A0D               	xorlw	13	; case 120
  8758     0E9B  1903               	skipnz
  8759     0E9C  2E6A               	goto	i1l3557
  8760     0E9D  2E9E               	goto	i1l3565
  8761     0E9E                     i1l3565:
  8762                           
  8763                           ;C:\Program Files\Microchip\xc8\v2.50\pic\sources\c99\common\doprnt.c: 1595:   if (*cp =
      +                          = 'n') {
  8764     0E9E  084F               	movf	i1vfpfcnvrt@cp+1,w
  8765     0E9F  00FF               	movwf	btemp+1
  8766     0EA0  084E               	movf	i1vfpfcnvrt@cp,w
  8767     0EA1  0084               	movwf	4
  8768     0EA2  160A  158A  2000  120A  158A  	fcall	stringtab
  8769     0EA7  3A6E               	xorlw	110
  8770     0EA8  1D03               	skipz
  8771     0EA9  2EAB               	goto	u482_21
  8772     0EAA  2EAC               	goto	u482_20
  8773     0EAB                     u482_21:
  8774     0EAB  2F99               	goto	i1l3589
  8775     0EAC                     u482_20:
  8776     0EAC  2F6D               	goto	i1l3581
  8777     0EAD                     i1l3569:
  8778                           
  8779                           ;C:\Program Files\Microchip\xc8\v2.50\pic\sources\c99\common\doprnt.c: 1599:      *(*(in
      +                          t* *)__va_arg(*(int* **)ap, (int*)0)) = (int) nout;
  8780     0EAD  0842               	movf	i1vfpfcnvrt@ap,w
  8781     0EAE  0084               	movwf	4
  8782     0EAF  1783               	bsf	3,7
  8783     0EB0  1C43               	btfss	i1vfpfcnvrt@ap+1,0
  8784     0EB1  1383               	bcf	3,7
  8785     0EB2  0800               	movf	0,w
  8786     0EB3  00C4               	movwf	??i1_vfpfcnvrt
  8787     0EB4  3002               	movlw	2
  8788     0EB5  0780               	addwf	0,f
  8789     0EB6  0A84               	incf	4,f
  8790     0EB7  0800               	movf	0,w
  8791     0EB8  00C5               	movwf	??i1_vfpfcnvrt+1
  8792     0EB9  3000               	movlw	0
  8793     0EBA  1803               	skipnc
  8794     0EBB  0A80               	incf	0,f
  8795     0EBC  0780               	addwf	0,f
  8796     0EBD  0844               	movf	??i1_vfpfcnvrt,w
  8797     0EBE  0084               	movwf	4
  8798     0EBF  1783               	bsf	3,7
  8799     0EC0  1C45               	btfss	??i1_vfpfcnvrt+1,0
  8800     0EC1  1383               	bcf	3,7
  8801     0EC2  0800               	movf	0,w
  8802     0EC3  00C6               	movwf	??i1_vfpfcnvrt+2
  8803     0EC4  0A84               	incf	4,f
  8804     0EC5  0800               	movf	0,w
  8805     0EC6  00C7               	movwf	??i1_vfpfcnvrt+3
  8806     0EC7  0846               	movf	??i1_vfpfcnvrt+2,w
  8807     0EC8  0084               	movwf	4
  8808     0EC9  1783               	bsf	3,7
  8809     0ECA  1C47               	btfss	??i1_vfpfcnvrt+3,0
  8810     0ECB  1383               	bcf	3,7
  8811     0ECC  1683               	bsf	3,5	;RP0=1, select bank3
  8812     0ECD  1703               	bsf	3,6	;RP1=1, select bank3
  8813     0ECE  0867               	movf	_nout^(0+384),w
  8814     0ECF  0080               	movwf	0
  8815     0ED0  0A84               	incf	4,f
  8816     0ED1  0868               	movf	(_nout+1)^(0+384),w
  8817     0ED2  0080               	movwf	0
  8818                           
  8819                           ;C:\Program Files\Microchip\xc8\v2.50\pic\sources\c99\common\doprnt.c: 1600:      break;
  8820     0ED3  2F7E               	goto	i1l3583
  8821     0ED4                     i1l3571:
  8822                           
  8823                           ;C:\Program Files\Microchip\xc8\v2.50\pic\sources\c99\common\doprnt.c: 1603:      *(*(sh
      +                          ort* *)__va_arg(*(short* **)ap, (short*)0)) = (short) nout;
  8824     0ED4  0842               	movf	i1vfpfcnvrt@ap,w
  8825     0ED5  0084               	movwf	4
  8826     0ED6  1783               	bsf	3,7
  8827     0ED7  1C43               	btfss	i1vfpfcnvrt@ap+1,0
  8828     0ED8  1383               	bcf	3,7
  8829     0ED9  0800               	movf	0,w
  8830     0EDA  00C4               	movwf	??i1_vfpfcnvrt
  8831     0EDB  3002               	movlw	2
  8832     0EDC  0780               	addwf	0,f
  8833     0EDD  0A84               	incf	4,f
  8834     0EDE  0800               	movf	0,w
  8835     0EDF  00C5               	movwf	??i1_vfpfcnvrt+1
  8836     0EE0  3000               	movlw	0
  8837     0EE1  1803               	skipnc
  8838     0EE2  0A80               	incf	0,f
  8839     0EE3  0780               	addwf	0,f
  8840     0EE4  0844               	movf	??i1_vfpfcnvrt,w
  8841     0EE5  0084               	movwf	4
  8842     0EE6  1783               	bsf	3,7
  8843     0EE7  1C45               	btfss	??i1_vfpfcnvrt+1,0
  8844     0EE8  1383               	bcf	3,7
  8845     0EE9  0800               	movf	0,w
  8846     0EEA  00C6               	movwf	??i1_vfpfcnvrt+2
  8847     0EEB  0A84               	incf	4,f
  8848     0EEC  0800               	movf	0,w
  8849     0EED  00C7               	movwf	??i1_vfpfcnvrt+3
  8850     0EEE  0846               	movf	??i1_vfpfcnvrt+2,w
  8851     0EEF  0084               	movwf	4
  8852     0EF0  1783               	bsf	3,7
  8853     0EF1  1C47               	btfss	??i1_vfpfcnvrt+3,0
  8854     0EF2  1383               	bcf	3,7
  8855     0EF3  1683               	bsf	3,5	;RP0=1, select bank3
  8856     0EF4  1703               	bsf	3,6	;RP1=1, select bank3
  8857     0EF5  0867               	movf	_nout^(0+384),w
  8858     0EF6  0080               	movwf	0
  8859     0EF7  0A84               	incf	4,f
  8860     0EF8  0868               	movf	(_nout+1)^(0+384),w
  8861     0EF9  0080               	movwf	0
  8862                           
  8863                           ;C:\Program Files\Microchip\xc8\v2.50\pic\sources\c99\common\doprnt.c: 1604:      break;
  8864     0EFA  2F7E               	goto	i1l3583
  8865     0EFB                     i1l3573:
  8866                           
  8867                           ;C:\Program Files\Microchip\xc8\v2.50\pic\sources\c99\common\doprnt.c: 1608:      *(*(si
      +                          gned char* *)__va_arg(*(signed char* **)ap, (signed char*)0)) = (signed char) nout;
  8868     0EFB  0842               	movf	i1vfpfcnvrt@ap,w
  8869     0EFC  0084               	movwf	4
  8870     0EFD  1783               	bsf	3,7
  8871     0EFE  1C43               	btfss	i1vfpfcnvrt@ap+1,0
  8872     0EFF  1383               	bcf	3,7
  8873     0F00  0800               	movf	0,w
  8874     0F01  00C4               	movwf	??i1_vfpfcnvrt
  8875     0F02  3002               	movlw	2
  8876     0F03  0780               	addwf	0,f
  8877     0F04  0A84               	incf	4,f
  8878     0F05  0800               	movf	0,w
  8879     0F06  00C5               	movwf	??i1_vfpfcnvrt+1
  8880     0F07  3000               	movlw	0
  8881     0F08  1803               	skipnc
  8882     0F09  0A80               	incf	0,f
  8883     0F0A  0780               	addwf	0,f
  8884     0F0B  0844               	movf	??i1_vfpfcnvrt,w
  8885     0F0C  0084               	movwf	4
  8886     0F0D  1783               	bsf	3,7
  8887     0F0E  1C45               	btfss	??i1_vfpfcnvrt+1,0
  8888     0F0F  1383               	bcf	3,7
  8889     0F10  0800               	movf	0,w
  8890     0F11  00C6               	movwf	??i1_vfpfcnvrt+2
  8891     0F12  0A84               	incf	4,f
  8892     0F13  0800               	movf	0,w
  8893     0F14  00C7               	movwf	??i1_vfpfcnvrt+3
  8894     0F15  0846               	movf	??i1_vfpfcnvrt+2,w
  8895     0F16  0084               	movwf	4
  8896     0F17  1783               	bsf	3,7
  8897     0F18  1C47               	btfss	??i1_vfpfcnvrt+3,0
  8898     0F19  1383               	bcf	3,7
  8899     0F1A  1683               	bsf	3,5	;RP0=1, select bank3
  8900     0F1B  1703               	bsf	3,6	;RP1=1, select bank3
  8901     0F1C  0867               	movf	_nout^(0+384),w
  8902     0F1D  0080               	movwf	0
  8903                           
  8904                           ;C:\Program Files\Microchip\xc8\v2.50\pic\sources\c99\common\doprnt.c: 1609:      break;
  8905     0F1E  2F7E               	goto	i1l3583
  8906     0F1F                     i1l3575:
  8907                           
  8908                           ;C:\Program Files\Microchip\xc8\v2.50\pic\sources\c99\common\doprnt.c: 1623:      *(*(pt
      +                          rdiff_t* *)__va_arg(*(ptrdiff_t* **)ap, (ptrdiff_t*)0)) = (ptrdiff_t) nout;
  8909     0F1F  0842               	movf	i1vfpfcnvrt@ap,w
  8910     0F20  0084               	movwf	4
  8911     0F21  1783               	bsf	3,7
  8912     0F22  1C43               	btfss	i1vfpfcnvrt@ap+1,0
  8913     0F23  1383               	bcf	3,7
  8914     0F24  0800               	movf	0,w
  8915     0F25  00C4               	movwf	??i1_vfpfcnvrt
  8916     0F26  3002               	movlw	2
  8917     0F27  0780               	addwf	0,f
  8918     0F28  0A84               	incf	4,f
  8919     0F29  0800               	movf	0,w
  8920     0F2A  00C5               	movwf	??i1_vfpfcnvrt+1
  8921     0F2B  3000               	movlw	0
  8922     0F2C  1803               	skipnc
  8923     0F2D  0A80               	incf	0,f
  8924     0F2E  0780               	addwf	0,f
  8925     0F2F  0844               	movf	??i1_vfpfcnvrt,w
  8926     0F30  0084               	movwf	4
  8927     0F31  1783               	bsf	3,7
  8928     0F32  1C45               	btfss	??i1_vfpfcnvrt+1,0
  8929     0F33  1383               	bcf	3,7
  8930     0F34  0800               	movf	0,w
  8931     0F35  00C6               	movwf	??i1_vfpfcnvrt+2
  8932     0F36  0A84               	incf	4,f
  8933     0F37  0800               	movf	0,w
  8934     0F38  00C7               	movwf	??i1_vfpfcnvrt+3
  8935     0F39  0846               	movf	??i1_vfpfcnvrt+2,w
  8936     0F3A  0084               	movwf	4
  8937     0F3B  1783               	bsf	3,7
  8938     0F3C  1C47               	btfss	??i1_vfpfcnvrt+3,0
  8939     0F3D  1383               	bcf	3,7
  8940     0F3E  1683               	bsf	3,5	;RP0=1, select bank3
  8941     0F3F  1703               	bsf	3,6	;RP1=1, select bank3
  8942     0F40  0867               	movf	_nout^(0+384),w
  8943     0F41  0080               	movwf	0
  8944     0F42  0A84               	incf	4,f
  8945     0F43  0868               	movf	(_nout+1)^(0+384),w
  8946     0F44  0080               	movwf	0
  8947                           
  8948                           ;C:\Program Files\Microchip\xc8\v2.50\pic\sources\c99\common\doprnt.c: 1624:      break;
  8949     0F45  2F7E               	goto	i1l3583
  8950     0F46                     i1l3577:
  8951                           
  8952                           ;C:\Program Files\Microchip\xc8\v2.50\pic\sources\c99\common\doprnt.c: 1633:      *(*(si
      +                          ze_t* *)__va_arg(*(size_t* **)ap, (size_t*)0)) = (size_t) nout;
  8953     0F46  0842               	movf	i1vfpfcnvrt@ap,w
  8954     0F47  0084               	movwf	4
  8955     0F48  1783               	bsf	3,7
  8956     0F49  1C43               	btfss	i1vfpfcnvrt@ap+1,0
  8957     0F4A  1383               	bcf	3,7
  8958     0F4B  0800               	movf	0,w
  8959     0F4C  00C4               	movwf	??i1_vfpfcnvrt
  8960     0F4D  3002               	movlw	2
  8961     0F4E  0780               	addwf	0,f
  8962     0F4F  0A84               	incf	4,f
  8963     0F50  0800               	movf	0,w
  8964     0F51  00C5               	movwf	??i1_vfpfcnvrt+1
  8965     0F52  3000               	movlw	0
  8966     0F53  1803               	skipnc
  8967     0F54  0A80               	incf	0,f
  8968     0F55  0780               	addwf	0,f
  8969     0F56  0844               	movf	??i1_vfpfcnvrt,w
  8970     0F57  0084               	movwf	4
  8971     0F58  1783               	bsf	3,7
  8972     0F59  1C45               	btfss	??i1_vfpfcnvrt+1,0
  8973     0F5A  1383               	bcf	3,7
  8974     0F5B  0800               	movf	0,w
  8975     0F5C  00C6               	movwf	??i1_vfpfcnvrt+2
  8976     0F5D  0A84               	incf	4,f
  8977     0F5E  0800               	movf	0,w
  8978     0F5F  00C7               	movwf	??i1_vfpfcnvrt+3
  8979     0F60  0846               	movf	??i1_vfpfcnvrt+2,w
  8980     0F61  0084               	movwf	4
  8981     0F62  1783               	bsf	3,7
  8982     0F63  1C47               	btfss	??i1_vfpfcnvrt+3,0
  8983     0F64  1383               	bcf	3,7
  8984     0F65  1683               	bsf	3,5	;RP0=1, select bank3
  8985     0F66  1703               	bsf	3,6	;RP1=1, select bank3
  8986     0F67  0867               	movf	_nout^(0+384),w
  8987     0F68  0080               	movwf	0
  8988     0F69  0A84               	incf	4,f
  8989     0F6A  0868               	movf	(_nout+1)^(0+384),w
  8990     0F6B  0080               	movwf	0
  8991                           
  8992                           ;C:\Program Files\Microchip\xc8\v2.50\pic\sources\c99\common\doprnt.c: 1634:      break;
  8993     0F6C  2F7E               	goto	i1l3583
  8994     0F6D                     i1l3581:
  8995     0F6D  084D               	movf	i1vfpfcnvrt@c,w
  8996                           
  8997                           ; Switch size 1, requested type "simple"
  8998                           ; Number of cases is 5, Range of values is 72 to 122
  8999                           ; switch strategies available:
  9000                           ; Name         Instructions Cycles
  9001                           ; simple_byte           16     9 (average)
  9002                           ; direct_byte          164    11 (fixed)
  9003                           ; jumptable            263     9 (fixed)
  9004                           ;	Chosen strategy is simple_byte
  9005     0F6E  3A48               	xorlw	72	; case 72
  9006     0F6F  1903               	skipnz
  9007     0F70  2EFB               	goto	i1l3573
  9008     0F71  3A20               	xorlw	32	; case 104
  9009     0F72  1903               	skipnz
  9010     0F73  2ED4               	goto	i1l3571
  9011     0F74  3A01               	xorlw	1	; case 105
  9012     0F75  1903               	skipnz
  9013     0F76  2EAD               	goto	i1l3569
  9014     0F77  3A1D               	xorlw	29	; case 116
  9015     0F78  1903               	skipnz
  9016     0F79  2F1F               	goto	i1l3575
  9017     0F7A  3A0E               	xorlw	14	; case 122
  9018     0F7B  1903               	skipnz
  9019     0F7C  2F46               	goto	i1l3577
  9020     0F7D  2F7E               	goto	i1l3583
  9021     0F7E                     i1l3583:
  9022                           
  9023                           ;C:\Program Files\Microchip\xc8\v2.50\pic\sources\c99\common\doprnt.c: 1640:    *fmt = c
      +                          p+1;
  9024     0F7E  3001               	movlw	1
  9025     0F7F  1283               	bcf	3,5	;RP0=0, select bank0
  9026     0F80  1303               	bcf	3,6	;RP1=0, select bank0
  9027     0F81  00C4               	movwf	??i1_vfpfcnvrt
  9028     0F82  0844               	movf	??i1_vfpfcnvrt,w
  9029     0F83  074E               	addwf	i1vfpfcnvrt@cp,w
  9030     0F84  00C6               	movwf	??i1_vfpfcnvrt+2
  9031     0F85  084F               	movf	i1vfpfcnvrt@cp+1,w
  9032     0F86  00C5               	movwf	??i1_vfpfcnvrt+1
  9033     0F87  1803               	skipnc
  9034     0F88  0AC5               	incf	??i1_vfpfcnvrt+1,f
  9035     0F89  1BC4               	btfsc	??i1_vfpfcnvrt,7
  9036     0F8A  03C5               	decf	??i1_vfpfcnvrt+1,f
  9037     0F8B  0845               	movf	??i1_vfpfcnvrt+1,w
  9038     0F8C  00C7               	movwf	??i1_vfpfcnvrt+3
  9039     0F8D  0841               	movf	i1vfpfcnvrt@fmt,w
  9040     0F8E  0084               	movwf	4
  9041     0F8F  0846               	movf	??i1_vfpfcnvrt+2,w
  9042     0F90  1383               	bcf	3,7	;select IRP bank0
  9043     0F91  0080               	movwf	0
  9044     0F92  0847               	movf	??i1_vfpfcnvrt+3,w
  9045     0F93  0A84               	incf	4,f
  9046     0F94  0080               	movwf	0
  9047     0F95  0384               	decf	4,f
  9048     0F96                     i1l3585:
  9049                           
  9050                           ;C:\Program Files\Microchip\xc8\v2.50\pic\sources\c99\common\doprnt.c: 1641:    return (
      +                          int) 0;
  9051     0F96  01BF               	clrf	?i1_vfpfcnvrt
  9052     0F97  01C0               	clrf	?i1_vfpfcnvrt+1
  9053     0F98  2FFF               	goto	i1l778
  9054     0F99                     i1l3589:
  9055                           
  9056                           ;C:\Program Files\Microchip\xc8\v2.50\pic\sources\c99\common\doprnt.c: 1798:         if 
      +                          ((*fmt)[0] == '%') {
  9057     0F99  0841               	movf	i1vfpfcnvrt@fmt,w
  9058     0F9A  0084               	movwf	4
  9059     0F9B  1383               	bcf	3,7	;select IRP bank0
  9060     0F9C  0800               	movf	0,w
  9061     0F9D  00C4               	movwf	??i1_vfpfcnvrt
  9062     0F9E  0A84               	incf	4,f
  9063     0F9F  0800               	movf	0,w
  9064     0FA0  00C5               	movwf	??i1_vfpfcnvrt+1
  9065     0FA1  0845               	movf	??i1_vfpfcnvrt+1,w
  9066     0FA2  00FF               	movwf	btemp+1
  9067     0FA3  0844               	movf	??i1_vfpfcnvrt,w
  9068     0FA4  0084               	movwf	4
  9069     0FA5  160A  158A  2000  120A  158A  	fcall	stringtab
  9070     0FAA  3A25               	xorlw	37
  9071     0FAB  1D03               	skipz
  9072     0FAC  2FAE               	goto	u483_21
  9073     0FAD  2FAF               	goto	u483_20
  9074     0FAE                     u483_21:
  9075     0FAE  2FCB               	goto	i1l3599
  9076     0FAF                     u483_20:
  9077     0FAF                     i1l3591:
  9078                           
  9079                           ;C:\Program Files\Microchip\xc8\v2.50\pic\sources\c99\common\doprnt.c: 1799:            
      +                           ++*fmt;
  9080     0FAF  0841               	movf	i1vfpfcnvrt@fmt,w
  9081     0FB0  0084               	movwf	4
  9082     0FB1  3001               	movlw	1
  9083     0FB2  1383               	bcf	3,7	;select IRP bank0
  9084     0FB3  0780               	addwf	0,f
  9085     0FB4  0A84               	incf	4,f
  9086     0FB5  1803               	skipnc
  9087     0FB6  0A80               	incf	0,f
  9088     0FB7                     i1l3593:
  9089                           
  9090                           ;C:\Program Files\Microchip\xc8\v2.50\pic\sources\c99\common\doprnt.c: 1800:            
      +                           fputc((int)'%', fp);
  9091     0FB7  3025               	movlw	37
  9092     0FB8  00F0               	movwf	i1fputc@c
  9093     0FB9  3000               	movlw	0
  9094     0FBA  00F1               	movwf	i1fputc@c+1
  9095     0FBB  083F               	movf	i1vfpfcnvrt@fp,w
  9096     0FBC  00F2               	movwf	i1fputc@fp
  9097     0FBD  0840               	movf	i1vfpfcnvrt@fp+1,w
  9098     0FBE  00F3               	movwf	i1fputc@fp+1
  9099     0FBF  160A  118A  22E3  120A  158A  	fcall	i1_fputc
  9100     0FC4                     i1l3595:
  9101                           
  9102                           ;C:\Program Files\Microchip\xc8\v2.50\pic\sources\c99\common\doprnt.c: 1801:            
      +                           return (int) 1;
  9103     0FC4  3001               	movlw	1
  9104     0FC5  1283               	bcf	3,5	;RP0=0, select bank0
  9105     0FC6  1303               	bcf	3,6	;RP1=0, select bank0
  9106     0FC7  00BF               	movwf	?i1_vfpfcnvrt
  9107     0FC8  3000               	movlw	0
  9108     0FC9  00C0               	movwf	?i1_vfpfcnvrt+1
  9109     0FCA  2FFF               	goto	i1l778
  9110     0FCB                     i1l3599:
  9111                           
  9112                           ;C:\Program Files\Microchip\xc8\v2.50\pic\sources\c99\common\doprnt.c: 1806:         ++*
      +                          fmt;
  9113     0FCB  0841               	movf	i1vfpfcnvrt@fmt,w
  9114     0FCC  0084               	movwf	4
  9115     0FCD  3001               	movlw	1
  9116     0FCE  1383               	bcf	3,7	;select IRP bank0
  9117     0FCF  0780               	addwf	0,f
  9118     0FD0  0A84               	incf	4,f
  9119     0FD1  1803               	skipnc
  9120     0FD2  0A80               	incf	0,f
  9121     0FD3  2F96               	goto	i1l3585
  9122     0FD4                     i1l3605:
  9123                           
  9124                           ;C:\Program Files\Microchip\xc8\v2.50\pic\sources\c99\common\doprnt.c: 1811:     fputc((
      +                          int)(*fmt)[0], fp);
  9125     0FD4  0841               	movf	i1vfpfcnvrt@fmt,w
  9126     0FD5  0084               	movwf	4
  9127     0FD6  1383               	bcf	3,7	;select IRP bank0
  9128     0FD7  0800               	movf	0,w
  9129     0FD8  00C4               	movwf	??i1_vfpfcnvrt
  9130     0FD9  0A84               	incf	4,f
  9131     0FDA  0800               	movf	0,w
  9132     0FDB  00C5               	movwf	??i1_vfpfcnvrt+1
  9133     0FDC  0845               	movf	??i1_vfpfcnvrt+1,w
  9134     0FDD  00FF               	movwf	btemp+1
  9135     0FDE  0844               	movf	??i1_vfpfcnvrt,w
  9136     0FDF  0084               	movwf	4
  9137     0FE0  160A  158A  2000  120A  158A  	fcall	stringtab
  9138     0FE5  00C6               	movwf	??i1_vfpfcnvrt+2
  9139     0FE6  01C7               	clrf	??i1_vfpfcnvrt+3
  9140     0FE7  0846               	movf	??i1_vfpfcnvrt+2,w
  9141     0FE8  00F0               	movwf	i1fputc@c
  9142     0FE9  0847               	movf	??i1_vfpfcnvrt+3,w
  9143     0FEA  00F1               	movwf	i1fputc@c+1
  9144     0FEB  083F               	movf	i1vfpfcnvrt@fp,w
  9145     0FEC  00F2               	movwf	i1fputc@fp
  9146     0FED  0840               	movf	i1vfpfcnvrt@fp+1,w
  9147     0FEE  00F3               	movwf	i1fputc@fp+1
  9148     0FEF  160A  118A  22E3  120A  158A  	fcall	i1_fputc
  9149     0FF4                     i1l3607:
  9150                           
  9151                           ;C:\Program Files\Microchip\xc8\v2.50\pic\sources\c99\common\doprnt.c: 1812:     ++*fmt;
  9152     0FF4  1283               	bcf	3,5	;RP0=0, select bank0
  9153     0FF5  1303               	bcf	3,6	;RP1=0, select bank0
  9154     0FF6  0841               	movf	i1vfpfcnvrt@fmt,w
  9155     0FF7  0084               	movwf	4
  9156     0FF8  3001               	movlw	1
  9157     0FF9  1383               	bcf	3,7	;select IRP bank0
  9158     0FFA  0780               	addwf	0,f
  9159     0FFB  0A84               	incf	4,f
  9160     0FFC  1803               	skipnc
  9161     0FFD  0A80               	incf	0,f
  9162     0FFE  2FC4               	goto	i1l3595
  9163     0FFF                     i1l778:
  9164     0FFF  0008               	return
  9165     1000                     __end_ofi1_vfpfcnvrt:
  9166                           
  9167                           	psect	text26
  9168     15DC                     __ptext26:	
  9169 ;; *************** function i1_xtoa *****************
  9170 ;; Defined at:
  9171 ;;		line 1052 in file "C:\Program Files\Microchip\xc8\v2.50\pic\sources\c99\common\doprnt.c"
  9172 ;; Parameters:    Size  Location     Type
  9173 ;;  fp              2   15[BANK0 ] PTR struct _IO_FILE
  9174 ;;		 -> i1sprintf@f(11), sprintf@f(11), 
  9175 ;;  d               2   17[BANK0 ] unsigned int 
  9176 ;;  x               1   19[BANK0 ] unsigned char 
  9177 ;; Auto vars:     Size  Location     Type
  9178 ;;  i               2   29[BANK0 ] int 
  9179 ;;  w               2   25[BANK0 ] int 
  9180 ;;  p               2   23[BANK0 ] int 
  9181 ;;  c               1   28[BANK0 ] unsigned char 
  9182 ;;  d_nonzero       1   27[BANK0 ] _Bool 
  9183 ;;  a               1   22[BANK0 ] unsigned char 
  9184 ;; Return value:  Size  Location     Type
  9185 ;;                  2   15[BANK0 ] int 
  9186 ;; Registers used:
  9187 ;;		wreg, fsr0l, fsr0h, status,2, status,0, btemp+1, pclath, cstack
  9188 ;; Tracked objects:
  9189 ;;		On entry : 0/0
  9190 ;;		On exit  : 0/0
  9191 ;;		Unchanged: 0/0
  9192 ;; Data sizes:     COMMON   BANK0   BANK1   BANK3   BANK2
  9193 ;;      Params:         0       5       0       0       0
  9194 ;;      Locals:         0      11       0       0       0
  9195 ;;      Temps:          0       0       0       0       0
  9196 ;;      Totals:         0      16       0       0       0
  9197 ;;Total ram usage:       16 bytes
  9198 ;; Hardware stack levels used: 1
  9199 ;; Hardware stack levels required when called: 4
  9200 ;; This function calls:
  9201 ;;		i1_pad
  9202 ;; This function is called by:
  9203 ;;		i1_vfpfcnvrt
  9204 ;; This function uses a non-reentrant model
  9205 ;;
  9206                           
  9207     15DC                     i1_xtoa:	
  9208                           ;psect for function i1_xtoa
  9209                           
  9210     15DC                     i1l3159:	
  9211                           ;incstack = 0
  9212 ;; hardware stack exceeded
  9213                           ; Regs used in i1_xtoa: [wreg-fsr0h+status,2+status,0+btemp+1+pclath+cstack]
  9214                           
  9215     15DC                     i1l3161:
  9216                           
  9217                           ;C:\Program Files\Microchip\xc8\v2.50\pic\sources\c99\common\doprnt.c: 1076:     if (!(p
      +                          rec < 0)) {
  9218     15DC  1683               	bsf	3,5	;RP0=1, select bank1
  9219     15DD  1303               	bcf	3,6	;RP1=0, select bank1
  9220     15DE  1BDA               	btfsc	(_prec+1)^(0+128),7
  9221     15DF  2DE1               	goto	u436_21
  9222     15E0  2DE2               	goto	u436_20
  9223     15E1                     u436_21:
  9224     15E1  2DE4               	goto	i1l3165
  9225     15E2                     u436_20:
  9226     15E2                     i1l3163:
  9227                           
  9228                           ;C:\Program Files\Microchip\xc8\v2.50\pic\sources\c99\common\doprnt.c: 1077:         fla
      +                          gs &= ~(1 << 1);
  9229     15E2  30FD               	movlw	253
  9230     15E3  05DD               	andwf	_flags^(0+128),f
  9231     15E4                     i1l3165:
  9232                           
  9233                           ;C:\Program Files\Microchip\xc8\v2.50\pic\sources\c99\common\doprnt.c: 1080:     p = (0 
      +                          <= prec) ? prec : 1;
  9234     15E4  1FDA               	btfss	(_prec+1)^(0+128),7
  9235     15E5  2DE7               	goto	u437_21
  9236     15E6  2DE8               	goto	u437_20
  9237     15E7                     u437_21:
  9238     15E7  2DEF               	goto	i1l3169
  9239     15E8                     u437_20:
  9240     15E8                     i1l3167:
  9241     15E8  3001               	movlw	1
  9242     15E9  1283               	bcf	3,5	;RP0=0, select bank0
  9243     15EA  1303               	bcf	3,6	;RP1=0, select bank0
  9244     15EB  00B7               	movwf	i1xtoa@p
  9245     15EC  3000               	movlw	0
  9246     15ED  00B8               	movwf	i1xtoa@p+1
  9247     15EE  2DF9               	goto	i1l735
  9248     15EF                     i1l3169:
  9249     15EF  085A               	movf	(_prec+1)^(0+128),w
  9250     15F0  1283               	bcf	3,5	;RP0=0, select bank0
  9251     15F1  1303               	bcf	3,6	;RP1=0, select bank0
  9252     15F2  00B8               	movwf	i1xtoa@p+1
  9253     15F3  1683               	bsf	3,5	;RP0=1, select bank1
  9254     15F4  1303               	bcf	3,6	;RP1=0, select bank1
  9255     15F5  0859               	movf	_prec^(0+128),w
  9256     15F6  1283               	bcf	3,5	;RP0=0, select bank0
  9257     15F7  1303               	bcf	3,6	;RP1=0, select bank0
  9258     15F8  00B7               	movwf	i1xtoa@p
  9259     15F9                     i1l735:
  9260                           
  9261                           ;C:\Program Files\Microchip\xc8\v2.50\pic\sources\c99\common\doprnt.c: 1082:     w = wid
      +                          th;
  9262     15F9  1683               	bsf	3,5	;RP0=1, select bank1
  9263     15FA  1303               	bcf	3,6	;RP1=0, select bank1
  9264     15FB  0858               	movf	(_width+1)^(0+128),w
  9265     15FC  1283               	bcf	3,5	;RP0=0, select bank0
  9266     15FD  1303               	bcf	3,6	;RP1=0, select bank0
  9267     15FE  00BA               	movwf	i1xtoa@w+1
  9268     15FF  1683               	bsf	3,5	;RP0=1, select bank1
  9269     1600  1303               	bcf	3,6	;RP1=0, select bank1
  9270     1601  0857               	movf	_width^(0+128),w
  9271     1602  1283               	bcf	3,5	;RP0=0, select bank0
  9272     1603  1303               	bcf	3,6	;RP1=0, select bank0
  9273     1604  00B9               	movwf	i1xtoa@w
  9274     1605                     i1l3171:
  9275                           
  9276                           ;C:\Program Files\Microchip\xc8\v2.50\pic\sources\c99\common\doprnt.c: 1084:  d_nonzero 
      +                          = d != 0;
  9277     1605  0831               	movf	i1xtoa@d,w
  9278     1606  0432               	iorwf	i1xtoa@d+1,w
  9279     1607  1D03               	btfss	3,2
  9280     1608  2E0A               	goto	u438_21
  9281     1609  2E0C               	goto	u438_20
  9282     160A                     u438_21:
  9283     160A  3001               	movlw	1
  9284     160B  2E0D               	goto	u439_20
  9285     160C                     u438_20:
  9286     160C  3000               	movlw	0
  9287     160D                     u439_20:
  9288     160D  00BB               	movwf	i1xtoa@d_nonzero
  9289     160E                     i1l3173:
  9290                           
  9291                           ;C:\Program Files\Microchip\xc8\v2.50\pic\sources\c99\common\doprnt.c: 1085:     if ((fl
      +                          ags & (1 << 4)) && d_nonzero) {
  9292     160E  1683               	bsf	3,5	;RP0=1, select bank1
  9293     160F  1303               	bcf	3,6	;RP1=0, select bank1
  9294     1610  1E5D               	btfss	_flags^(0+128),4
  9295     1611  2E13               	goto	u440_21
  9296     1612  2E14               	goto	u440_20
  9297     1613                     u440_21:
  9298     1613  2E21               	goto	i1l3179
  9299     1614                     u440_20:
  9300     1614                     i1l3175:
  9301     1614  1283               	bcf	3,5	;RP0=0, select bank0
  9302     1615  1303               	bcf	3,6	;RP1=0, select bank0
  9303     1616  083B               	movf	i1xtoa@d_nonzero,w
  9304     1617  1903               	btfsc	3,2
  9305     1618  2E1A               	goto	u441_21
  9306     1619  2E1B               	goto	u441_20
  9307     161A                     u441_21:
  9308     161A  2E21               	goto	i1l3179
  9309     161B                     u441_20:
  9310     161B                     i1l3177:
  9311                           
  9312                           ;C:\Program Files\Microchip\xc8\v2.50\pic\sources\c99\common\doprnt.c: 1086:         w -
      +                          = 2;
  9313     161B  30FE               	movlw	254
  9314     161C  07B9               	addwf	i1xtoa@w,f
  9315     161D  1803               	skipnc
  9316     161E  0ABA               	incf	i1xtoa@w+1,f
  9317     161F  30FF               	movlw	255
  9318     1620  07BA               	addwf	i1xtoa@w+1,f
  9319     1621                     i1l3179:
  9320                           
  9321                           ;C:\Program Files\Microchip\xc8\v2.50\pic\sources\c99\common\doprnt.c: 1091:  a = x == '
      +                          x' ? 'a' : 'A';
  9322     1621  3078               	movlw	120
  9323     1622  1283               	bcf	3,5	;RP0=0, select bank0
  9324     1623  0633               	xorwf	i1xtoa@x,w
  9325     1624  1903               	btfsc	3,2
  9326     1625  2E27               	goto	u442_21
  9327     1626  2E28               	goto	u442_20
  9328     1627                     u442_21:
  9329     1627  2E2D               	goto	i1l3183
  9330     1628                     u442_20:
  9331     1628                     i1l3181:
  9332     1628  3041               	movlw	65
  9333     1629  00B4               	movwf	i1_xtoa$641
  9334     162A  3000               	movlw	0
  9335     162B  00B5               	movwf	i1_xtoa$641+1
  9336     162C  2E31               	goto	i1l740
  9337     162D                     i1l3183:
  9338     162D  3061               	movlw	97
  9339     162E  00B4               	movwf	i1_xtoa$641
  9340     162F  3000               	movlw	0
  9341     1630  00B5               	movwf	i1_xtoa$641+1
  9342     1631                     i1l740:
  9343     1631  0834               	movf	i1_xtoa$641,w
  9344     1632  00B6               	movwf	i1xtoa@a
  9345                           
  9346                           ;C:\Program Files\Microchip\xc8\v2.50\pic\sources\c99\common\doprnt.c: 1095:     i = siz
      +                          eof(dbuf) - 1;
  9347     1633  301F               	movlw	31
  9348     1634  00BD               	movwf	i1xtoa@i
  9349     1635  3000               	movlw	0
  9350     1636  00BE               	movwf	i1xtoa@i+1
  9351     1637                     i1l3185:
  9352                           
  9353                           ;C:\Program Files\Microchip\xc8\v2.50\pic\sources\c99\common\doprnt.c: 1096:     dbuf[i]
      +                           = '\0';
  9354     1637  1283               	bcf	3,5	;RP0=0, select bank2
  9355     1638  1703               	bsf	3,6	;RP1=1, select bank2
  9356     1639  01AF               	clrf	(_dbuf^(0+256)+31)
  9357                           
  9358                           ;C:\Program Files\Microchip\xc8\v2.50\pic\sources\c99\common\doprnt.c: 1097:     while (
      +                          !(i < 2) && (d != 0
  9359     163A  2E6E               	goto	i1l3205
  9360     163B                     i1l3187:
  9361                           
  9362                           ;C:\Program Files\Microchip\xc8\v2.50\pic\sources\c99\common\doprnt.c: 1106:     )) {;C:
      +                          \Program Files\Microchip\xc8\v2.50\pic\sources\c99\common\doprnt.c: 1107:         --i;
  9363     163B  30FF               	movlw	255
  9364     163C  1283               	bcf	3,5	;RP0=0, select bank0
  9365     163D  1303               	bcf	3,6	;RP1=0, select bank0
  9366     163E  07BD               	addwf	i1xtoa@i,f
  9367     163F  1803               	skipnc
  9368     1640  0ABE               	incf	i1xtoa@i+1,f
  9369     1641  30FF               	movlw	255
  9370     1642  07BE               	addwf	i1xtoa@i+1,f
  9371                           
  9372                           ;C:\Program Files\Microchip\xc8\v2.50\pic\sources\c99\common\doprnt.c: 1108:         c =
      +                           d & 0x0f;
  9373     1643  0831               	movf	i1xtoa@d,w
  9374     1644  00BC               	movwf	i1xtoa@c
  9375     1645                     i1l3189:
  9376     1645  300F               	movlw	15
  9377     1646  05BC               	andwf	i1xtoa@c,f
  9378     1647                     i1l3191:
  9379                           
  9380                           ;C:\Program Files\Microchip\xc8\v2.50\pic\sources\c99\common\doprnt.c: 1109:   if (c < 1
      +                          0) {
  9381     1647  300A               	movlw	10
  9382     1648  023C               	subwf	i1xtoa@c,w
  9383     1649  1803               	skipnc
  9384     164A  2E4C               	goto	u443_21
  9385     164B  2E4D               	goto	u443_20
  9386     164C                     u443_21:
  9387     164C  2E50               	goto	i1l3195
  9388     164D                     u443_20:
  9389     164D                     i1l3193:
  9390                           
  9391                           ;C:\Program Files\Microchip\xc8\v2.50\pic\sources\c99\common\doprnt.c: 1110:    c += '0'
      +                          ;
  9392     164D  3030               	movlw	48
  9393     164E  07BC               	addwf	i1xtoa@c,f
  9394                           
  9395                           ;C:\Program Files\Microchip\xc8\v2.50\pic\sources\c99\common\doprnt.c: 1111:   }
  9396     164F  2E53               	goto	i1l3197
  9397     1650                     i1l3195:
  9398                           
  9399                           ;C:\Program Files\Microchip\xc8\v2.50\pic\sources\c99\common\doprnt.c: 1114:    c += a -
      +                           10;
  9400     1650  0836               	movf	i1xtoa@a,w
  9401     1651  3EF6               	addlw	246
  9402     1652  07BC               	addwf	i1xtoa@c,f
  9403     1653                     i1l3197:
  9404                           
  9405                           ;C:\Program Files\Microchip\xc8\v2.50\pic\sources\c99\common\doprnt.c: 1121:   dbuf[i] =
      +                           c;
  9406     1653  083D               	movf	i1xtoa@i,w
  9407     1654  3E10               	addlw	(low (_dbuf| (0+256)))& (0+255)
  9408     1655  0084               	movwf	4
  9409     1656  083C               	movf	i1xtoa@c,w
  9410     1657  1783               	bsf	3,7	;select IRP bank2
  9411     1658  0080               	movwf	0
  9412     1659                     i1l3199:
  9413                           
  9414                           ;C:\Program Files\Microchip\xc8\v2.50\pic\sources\c99\common\doprnt.c: 1123:         --p
      +                          ;
  9415     1659  30FF               	movlw	255
  9416     165A  07B7               	addwf	i1xtoa@p,f
  9417     165B  1803               	skipnc
  9418     165C  0AB8               	incf	i1xtoa@p+1,f
  9419     165D  30FF               	movlw	255
  9420     165E  07B8               	addwf	i1xtoa@p+1,f
  9421     165F                     i1l3201:
  9422                           
  9423                           ;C:\Program Files\Microchip\xc8\v2.50\pic\sources\c99\common\doprnt.c: 1127:         --w
      +                          ;
  9424     165F  30FF               	movlw	255
  9425     1660  07B9               	addwf	i1xtoa@w,f
  9426     1661  1803               	skipnc
  9427     1662  0ABA               	incf	i1xtoa@w+1,f
  9428     1663  30FF               	movlw	255
  9429     1664  07BA               	addwf	i1xtoa@w+1,f
  9430     1665                     i1l3203:
  9431                           
  9432                           ;C:\Program Files\Microchip\xc8\v2.50\pic\sources\c99\common\doprnt.c: 1128:         d =
      +                           d >> 4;
  9433     1665  0E31               	swapf	i1xtoa@d,w
  9434     1666  390F               	andlw	15
  9435     1667  00B1               	movwf	i1xtoa@d
  9436     1668  0E32               	swapf	i1xtoa@d+1,w
  9437     1669  39F0               	andlw	240
  9438     166A  04B1               	iorwf	i1xtoa@d,f
  9439     166B  0E32               	swapf	i1xtoa@d+1,w
  9440     166C  390F               	andlw	15
  9441     166D  00B2               	movwf	i1xtoa@d+1
  9442     166E                     i1l3205:
  9443                           
  9444                           ;C:\Program Files\Microchip\xc8\v2.50\pic\sources\c99\common\doprnt.c: 1097:     while (
      +                          !(i < 2) && (d != 0
  9445     166E  1303               	bcf	3,6	;RP1=0, select bank0
  9446     166F  083E               	movf	i1xtoa@i+1,w
  9447     1670  3A80               	xorlw	128
  9448     1671  00FF               	movwf	btemp+1
  9449     1672  3080               	movlw	128
  9450     1673  027F               	subwf	btemp+1,w
  9451     1674  1D03               	skipz
  9452     1675  2E78               	goto	u444_25
  9453     1676  3002               	movlw	2
  9454     1677  023D               	subwf	i1xtoa@i,w
  9455     1678                     u444_25:
  9456     1678  1C03               	skipc
  9457     1679  2E7B               	goto	u444_21
  9458     167A  2E7C               	goto	u444_20
  9459     167B                     u444_21:
  9460     167B  2EA6               	goto	i1l749
  9461     167C                     u444_20:
  9462     167C                     i1l3207:
  9463     167C  1283               	bcf	3,5	;RP0=0, select bank0
  9464     167D  1303               	bcf	3,6	;RP1=0, select bank0
  9465     167E  0831               	movf	i1xtoa@d,w
  9466     167F  0432               	iorwf	i1xtoa@d+1,w
  9467     1680  1D03               	btfss	3,2
  9468     1681  2E83               	goto	u445_21
  9469     1682  2E84               	goto	u445_20
  9470     1683                     u445_21:
  9471     1683  2E3B               	goto	i1l3187
  9472     1684                     u445_20:
  9473     1684                     i1l3209:
  9474     1684  0838               	movf	i1xtoa@p+1,w
  9475     1685  3A80               	xorlw	128
  9476     1686  00FF               	movwf	btemp+1
  9477     1687  3080               	movlw	128
  9478     1688  027F               	subwf	btemp+1,w
  9479     1689  1D03               	skipz
  9480     168A  2E8D               	goto	u446_25
  9481     168B  3001               	movlw	1
  9482     168C  0237               	subwf	i1xtoa@p,w
  9483     168D                     u446_25:
  9484     168D  1803               	skipnc
  9485     168E  2E90               	goto	u446_21
  9486     168F  2E91               	goto	u446_20
  9487     1690                     u446_21:
  9488     1690  2E3B               	goto	i1l3187
  9489     1691                     u446_20:
  9490     1691                     i1l3211:
  9491     1691  1283               	bcf	3,5	;RP0=0, select bank0
  9492     1692  1303               	bcf	3,6	;RP1=0, select bank0
  9493     1693  083A               	movf	i1xtoa@w+1,w
  9494     1694  3A80               	xorlw	128
  9495     1695  00FF               	movwf	btemp+1
  9496     1696  3080               	movlw	128
  9497     1697  027F               	subwf	btemp+1,w
  9498     1698  1D03               	skipz
  9499     1699  2E9C               	goto	u447_25
  9500     169A  3001               	movlw	1
  9501     169B  0239               	subwf	i1xtoa@w,w
  9502     169C                     u447_25:
  9503     169C  1C03               	skipc
  9504     169D  2E9F               	goto	u447_21
  9505     169E  2EA0               	goto	u447_20
  9506     169F                     u447_21:
  9507     169F  2EA6               	goto	i1l749
  9508     16A0                     u447_20:
  9509     16A0                     i1l3213:
  9510     16A0  1683               	bsf	3,5	;RP0=1, select bank1
  9511     16A1  1303               	bcf	3,6	;RP1=0, select bank1
  9512     16A2  18DD               	btfsc	_flags^(0+128),1
  9513     16A3  2EA5               	goto	u448_21
  9514     16A4  2EA6               	goto	u448_20
  9515     16A5                     u448_21:
  9516     16A5  2E3B               	goto	i1l3187
  9517     16A6                     u448_20:
  9518     16A6                     i1l749:
  9519                           
  9520                           ;C:\Program Files\Microchip\xc8\v2.50\pic\sources\c99\common\doprnt.c: 1133:     if ((fl
      +                          ags & (1 << 4)) && d_nonzero
  9521     16A6  1683               	bsf	3,5	;RP0=1, select bank1
  9522     16A7  1303               	bcf	3,6	;RP1=0, select bank1
  9523     16A8  1E5D               	btfss	_flags^(0+128),4
  9524     16A9  2EAB               	goto	u449_21
  9525     16AA  2EAC               	goto	u449_20
  9526     16AB                     u449_21:
  9527     16AB  2ED4               	goto	i1l3225
  9528     16AC                     u449_20:
  9529     16AC                     i1l3215:
  9530     16AC  1283               	bcf	3,5	;RP0=0, select bank0
  9531     16AD  1303               	bcf	3,6	;RP1=0, select bank0
  9532     16AE  083B               	movf	i1xtoa@d_nonzero,w
  9533     16AF  1903               	btfsc	3,2
  9534     16B0  2EB2               	goto	u450_21
  9535     16B1  2EB3               	goto	u450_20
  9536     16B2                     u450_21:
  9537     16B2  2ED4               	goto	i1l3225
  9538     16B3                     u450_20:
  9539     16B3                     i1l3217:
  9540     16B3  1683               	bsf	3,5	;RP0=1, select bank1
  9541     16B4  1303               	bcf	3,6	;RP1=0, select bank1
  9542     16B5  0859               	movf	_prec^(0+128),w
  9543     16B6  045A               	iorwf	(_prec+1)^(0+128),w
  9544     16B7  1903               	btfsc	3,2
  9545     16B8  2EBA               	goto	u451_21
  9546     16B9  2EBB               	goto	u451_20
  9547     16BA                     u451_21:
  9548     16BA  2ED4               	goto	i1l3225
  9549     16BB                     u451_20:
  9550     16BB                     i1l3219:
  9551                           
  9552                           ;C:\Program Files\Microchip\xc8\v2.50\pic\sources\c99\common\doprnt.c: 1137:     ) {;C:\
      +                          Program Files\Microchip\xc8\v2.50\pic\sources\c99\common\doprnt.c: 1138:         --i;
  9553     16BB  30FF               	movlw	255
  9554     16BC  1283               	bcf	3,5	;RP0=0, select bank0
  9555     16BD  1303               	bcf	3,6	;RP1=0, select bank0
  9556     16BE  07BD               	addwf	i1xtoa@i,f
  9557     16BF  1803               	skipnc
  9558     16C0  0ABE               	incf	i1xtoa@i+1,f
  9559     16C1  30FF               	movlw	255
  9560     16C2  07BE               	addwf	i1xtoa@i+1,f
  9561     16C3                     i1l3221:
  9562                           
  9563                           ;C:\Program Files\Microchip\xc8\v2.50\pic\sources\c99\common\doprnt.c: 1140:         dbu
      +                          f[i] = x;
  9564     16C3  083D               	movf	i1xtoa@i,w
  9565     16C4  3E10               	addlw	(low (_dbuf| (0+256)))& (0+255)
  9566     16C5  0084               	movwf	4
  9567     16C6  0833               	movf	i1xtoa@x,w
  9568     16C7  1783               	bsf	3,7	;select IRP bank2
  9569     16C8  0080               	movwf	0
  9570     16C9                     i1l3223:
  9571                           
  9572                           ;C:\Program Files\Microchip\xc8\v2.50\pic\sources\c99\common\doprnt.c: 1146:         --i
      +                          ;
  9573     16C9  30FF               	movlw	255
  9574     16CA  07BD               	addwf	i1xtoa@i,f
  9575     16CB  1803               	skipnc
  9576     16CC  0ABE               	incf	i1xtoa@i+1,f
  9577     16CD  30FF               	movlw	255
  9578     16CE  07BE               	addwf	i1xtoa@i+1,f
  9579                           
  9580                           ;C:\Program Files\Microchip\xc8\v2.50\pic\sources\c99\common\doprnt.c: 1147:         dbu
      +                          f[i] = '0';
  9581     16CF  083D               	movf	i1xtoa@i,w
  9582     16D0  3E10               	addlw	(low (_dbuf| (0+256)))& (0+255)
  9583     16D1  0084               	movwf	4
  9584     16D2  3030               	movlw	48
  9585     16D3  0080               	movwf	0
  9586     16D4                     i1l3225:
  9587                           
  9588                           ;C:\Program Files\Microchip\xc8\v2.50\pic\sources\c99\common\doprnt.c: 1152:     return 
      +                          (int) pad(fp, &dbuf[i], w);
  9589     16D4  1283               	bcf	3,5	;RP0=0, select bank0
  9590     16D5  082F               	movf	i1xtoa@fp,w
  9591     16D6  00A8               	movwf	i1pad@fp
  9592     16D7  0830               	movf	i1xtoa@fp+1,w
  9593     16D8  00A9               	movwf	i1pad@fp+1
  9594     16D9  083D               	movf	i1xtoa@i,w
  9595     16DA  3E10               	addlw	(low (_dbuf| (0+256)))& (0+255)
  9596     16DB  00AA               	movwf	i1pad@buf
  9597     16DC  083A               	movf	i1xtoa@w+1,w
  9598     16DD  00AC               	movwf	i1pad@p+1
  9599     16DE  0839               	movf	i1xtoa@w,w
  9600     16DF  00AB               	movwf	i1pad@p
  9601     16E0  160A  118A  2077  160A  118A  	fcall	i1_pad
  9602     16E5  1283               	bcf	3,5	;RP0=0, select bank0
  9603     16E6  1303               	bcf	3,6	;RP1=0, select bank0
  9604     16E7  0829               	movf	?i1_pad+1,w
  9605     16E8  00B0               	movwf	?i1_xtoa+1
  9606     16E9  0828               	movf	?i1_pad,w
  9607     16EA  00AF               	movwf	?i1_xtoa
  9608     16EB                     i1l751:
  9609     16EB  0008               	return
  9610     16EC                     __end_ofi1_xtoa:
  9611                           
  9612                           	psect	text27
  9613     137D                     __ptext27:	
  9614 ;; *************** function i1_utoa *****************
  9615 ;; Defined at:
  9616 ;;		line 1001 in file "C:\Program Files\Microchip\xc8\v2.50\pic\sources\c99\common\doprnt.c"
  9617 ;; Parameters:    Size  Location     Type
  9618 ;;  fp              2   15[BANK0 ] PTR struct _IO_FILE
  9619 ;;		 -> i1sprintf@f(11), sprintf@f(11), 
  9620 ;;  d               2   17[BANK0 ] unsigned int 
  9621 ;; Auto vars:     Size  Location     Type
  9622 ;;  i               2   23[BANK0 ] int 
  9623 ;;  w               2   21[BANK0 ] int 
  9624 ;;  p               2   19[BANK0 ] int 
  9625 ;; Return value:  Size  Location     Type
  9626 ;;                  2   15[BANK0 ] int 
  9627 ;; Registers used:
  9628 ;;		wreg, fsr0l, fsr0h, status,2, status,0, btemp+1, pclath, cstack
  9629 ;; Tracked objects:
  9630 ;;		On entry : 0/0
  9631 ;;		On exit  : 0/0
  9632 ;;		Unchanged: 0/0
  9633 ;; Data sizes:     COMMON   BANK0   BANK1   BANK3   BANK2
  9634 ;;      Params:         0       4       0       0       0
  9635 ;;      Locals:         0       6       0       0       0
  9636 ;;      Temps:          0       0       0       0       0
  9637 ;;      Totals:         0      10       0       0       0
  9638 ;;Total ram usage:       10 bytes
  9639 ;; Hardware stack levels used: 1
  9640 ;; Hardware stack levels required when called: 4
  9641 ;; This function calls:
  9642 ;;		i1___lwdiv
  9643 ;;		i1___lwmod
  9644 ;;		i1_pad
  9645 ;; This function is called by:
  9646 ;;		i1_vfpfcnvrt
  9647 ;; This function uses a non-reentrant model
  9648 ;;
  9649                           
  9650     137D                     i1_utoa:	
  9651                           ;psect for function i1_utoa
  9652                           
  9653     137D                     i1l3123:	
  9654                           ;incstack = 0
  9655 ;; hardware stack exceeded
  9656                           ; Regs used in i1_utoa: [wreg-fsr0h+status,2+status,0+btemp+1+pclath+cstack]
  9657                           
  9658                           
  9659                           ;C:\Program Files\Microchip\xc8\v2.50\pic\sources\c99\common\doprnt.c: 1001: static int 
      +                          utoa(FILE *fp, vfpf_uint_t d);C:\Program Files\Microchip\xc8\v2.50\pic\sources\c99\commo
      +                          n\doprnt.c: 1002: {;C:\Program Files\Microchip\xc8\v2.50\pic\sources\c99\common\doprnt.c
      +                          : 1003:     int i, w;;C:\Program Files\Microchip\xc8\v2.50\pic\sources\c99\common\doprnt
      +                          .c: 1005:  int p;;C:\Program Files\Microchip\xc8\v2.50\pic\sources\c99\common\doprnt.c: 
      +                          1013:     if (!(prec < 0)) {
  9660     137D  1683               	bsf	3,5	;RP0=1, select bank1
  9661     137E  1303               	bcf	3,6	;RP1=0, select bank1
  9662     137F  1BDA               	btfsc	(_prec+1)^(0+128),7
  9663     1380  2B82               	goto	u429_21
  9664     1381  2B83               	goto	u429_20
  9665     1382                     u429_21:
  9666     1382  2B85               	goto	i1l3127
  9667     1383                     u429_20:
  9668     1383                     i1l3125:
  9669                           
  9670                           ;C:\Program Files\Microchip\xc8\v2.50\pic\sources\c99\common\doprnt.c: 1014:         fla
      +                          gs &= ~(1 << 1);
  9671     1383  30FD               	movlw	253
  9672     1384  05DD               	andwf	_flags^(0+128),f
  9673     1385                     i1l3127:
  9674                           
  9675                           ;C:\Program Files\Microchip\xc8\v2.50\pic\sources\c99\common\doprnt.c: 1017:     p = (0 
      +                          <= prec) ? prec : 1;
  9676     1385  1FDA               	btfss	(_prec+1)^(0+128),7
  9677     1386  2B88               	goto	u430_21
  9678     1387  2B89               	goto	u430_20
  9679     1388                     u430_21:
  9680     1388  2B90               	goto	i1l3131
  9681     1389                     u430_20:
  9682     1389                     i1l3129:
  9683     1389  3001               	movlw	1
  9684     138A  1283               	bcf	3,5	;RP0=0, select bank0
  9685     138B  1303               	bcf	3,6	;RP1=0, select bank0
  9686     138C  00B3               	movwf	i1utoa@p
  9687     138D  3000               	movlw	0
  9688     138E  00B4               	movwf	i1utoa@p+1
  9689     138F  2B9A               	goto	i1l720
  9690     1390                     i1l3131:
  9691     1390  085A               	movf	(_prec+1)^(0+128),w
  9692     1391  1283               	bcf	3,5	;RP0=0, select bank0
  9693     1392  1303               	bcf	3,6	;RP1=0, select bank0
  9694     1393  00B4               	movwf	i1utoa@p+1
  9695     1394  1683               	bsf	3,5	;RP0=1, select bank1
  9696     1395  1303               	bcf	3,6	;RP1=0, select bank1
  9697     1396  0859               	movf	_prec^(0+128),w
  9698     1397  1283               	bcf	3,5	;RP0=0, select bank0
  9699     1398  1303               	bcf	3,6	;RP1=0, select bank0
  9700     1399  00B3               	movwf	i1utoa@p
  9701     139A                     i1l720:
  9702                           
  9703                           ;C:\Program Files\Microchip\xc8\v2.50\pic\sources\c99\common\doprnt.c: 1019:     w = wid
      +                          th;
  9704     139A  1683               	bsf	3,5	;RP0=1, select bank1
  9705     139B  1303               	bcf	3,6	;RP1=0, select bank1
  9706     139C  0858               	movf	(_width+1)^(0+128),w
  9707     139D  1283               	bcf	3,5	;RP0=0, select bank0
  9708     139E  1303               	bcf	3,6	;RP1=0, select bank0
  9709     139F  00B6               	movwf	i1utoa@w+1
  9710     13A0  1683               	bsf	3,5	;RP0=1, select bank1
  9711     13A1  1303               	bcf	3,6	;RP1=0, select bank1
  9712     13A2  0857               	movf	_width^(0+128),w
  9713     13A3  1283               	bcf	3,5	;RP0=0, select bank0
  9714     13A4  1303               	bcf	3,6	;RP1=0, select bank0
  9715     13A5  00B5               	movwf	i1utoa@w
  9716                           
  9717                           ;C:\Program Files\Microchip\xc8\v2.50\pic\sources\c99\common\doprnt.c: 1022:     i = siz
      +                          eof(dbuf) - 1;
  9718     13A6  301F               	movlw	31
  9719     13A7  00B7               	movwf	i1utoa@i
  9720     13A8  3000               	movlw	0
  9721     13A9  00B8               	movwf	i1utoa@i+1
  9722     13AA                     i1l3133:
  9723                           
  9724                           ;C:\Program Files\Microchip\xc8\v2.50\pic\sources\c99\common\doprnt.c: 1023:     dbuf[i]
      +                           = '\0';
  9725     13AA  1283               	bcf	3,5	;RP0=0, select bank2
  9726     13AB  1703               	bsf	3,6	;RP1=1, select bank2
  9727     13AC  01AF               	clrf	(_dbuf^(0+256)+31)
  9728                           
  9729                           ;C:\Program Files\Microchip\xc8\v2.50\pic\sources\c99\common\doprnt.c: 1024:     while (
      +                          i && (d != 0
  9730     13AD  2BEB               	goto	i1l3145
  9731     13AE                     i1l3135:
  9732                           
  9733                           ;C:\Program Files\Microchip\xc8\v2.50\pic\sources\c99\common\doprnt.c: 1033:     )) {;C:
      +                          \Program Files\Microchip\xc8\v2.50\pic\sources\c99\common\doprnt.c: 1034:         --i;
  9734     13AE  30FF               	movlw	255
  9735     13AF  1283               	bcf	3,5	;RP0=0, select bank0
  9736     13B0  1303               	bcf	3,6	;RP1=0, select bank0
  9737     13B1  07B7               	addwf	i1utoa@i,f
  9738     13B2  1803               	skipnc
  9739     13B3  0AB8               	incf	i1utoa@i+1,f
  9740     13B4  30FF               	movlw	255
  9741     13B5  07B8               	addwf	i1utoa@i+1,f
  9742     13B6                     i1l3137:
  9743                           
  9744                           ;C:\Program Files\Microchip\xc8\v2.50\pic\sources\c99\common\doprnt.c: 1035:         dbu
      +                          f[i] = '0' + (d % 10);
  9745     13B6  0837               	movf	i1utoa@i,w
  9746     13B7  3E10               	addlw	(low (_dbuf| (0+256)))& (0+255)
  9747     13B8  0084               	movwf	4
  9748     13B9  300A               	movlw	10
  9749     13BA  00F0               	movwf	i1___lwmod@divisor
  9750     13BB  3000               	movlw	0
  9751     13BC  00F1               	movwf	i1___lwmod@divisor+1
  9752     13BD  0832               	movf	i1utoa@d+1,w
  9753     13BE  00F3               	movwf	i1___lwmod@dividend+1
  9754     13BF  0831               	movf	i1utoa@d,w
  9755     13C0  00F2               	movwf	i1___lwmod@dividend
  9756     13C1  160A  158A  24AA  160A  118A  	fcall	i1___lwmod
  9757     13C6  0870               	movf	?i1___lwmod,w
  9758     13C7  3E30               	addlw	48
  9759     13C8  1783               	bsf	3,7	;select IRP bank2
  9760     13C9  0080               	movwf	0
  9761     13CA                     i1l3139:
  9762                           
  9763                           ;C:\Program Files\Microchip\xc8\v2.50\pic\sources\c99\common\doprnt.c: 1037:         --p
      +                          ;
  9764     13CA  30FF               	movlw	255
  9765     13CB  1283               	bcf	3,5	;RP0=0, select bank0
  9766     13CC  1303               	bcf	3,6	;RP1=0, select bank0
  9767     13CD  07B3               	addwf	i1utoa@p,f
  9768     13CE  1803               	skipnc
  9769     13CF  0AB4               	incf	i1utoa@p+1,f
  9770     13D0  30FF               	movlw	255
  9771     13D1  07B4               	addwf	i1utoa@p+1,f
  9772     13D2                     i1l3141:
  9773                           
  9774                           ;C:\Program Files\Microchip\xc8\v2.50\pic\sources\c99\common\doprnt.c: 1041:         --w
      +                          ;
  9775     13D2  30FF               	movlw	255
  9776     13D3  07B5               	addwf	i1utoa@w,f
  9777     13D4  1803               	skipnc
  9778     13D5  0AB6               	incf	i1utoa@w+1,f
  9779     13D6  30FF               	movlw	255
  9780     13D7  07B6               	addwf	i1utoa@w+1,f
  9781     13D8                     i1l3143:
  9782                           
  9783                           ;C:\Program Files\Microchip\xc8\v2.50\pic\sources\c99\common\doprnt.c: 1042:         d =
      +                           d / 10;
  9784     13D8  300A               	movlw	10
  9785     13D9  00F0               	movwf	i1___lwdiv@divisor
  9786     13DA  3000               	movlw	0
  9787     13DB  00F1               	movwf	i1___lwdiv@divisor+1
  9788     13DC  0832               	movf	i1utoa@d+1,w
  9789     13DD  00F3               	movwf	i1___lwdiv@dividend+1
  9790     13DE  0831               	movf	i1utoa@d,w
  9791     13DF  00F2               	movwf	i1___lwdiv@dividend
  9792     13E0  160A  158A  2557  160A  118A  	fcall	i1___lwdiv
  9793     13E5  0871               	movf	?i1___lwdiv+1,w
  9794     13E6  1283               	bcf	3,5	;RP0=0, select bank0
  9795     13E7  1303               	bcf	3,6	;RP1=0, select bank0
  9796     13E8  00B2               	movwf	i1utoa@d+1
  9797     13E9  0870               	movf	?i1___lwdiv,w
  9798     13EA  00B1               	movwf	i1utoa@d
  9799     13EB                     i1l3145:
  9800                           
  9801                           ;C:\Program Files\Microchip\xc8\v2.50\pic\sources\c99\common\doprnt.c: 1024:     while (
      +                          i && (d != 0
  9802     13EB  1303               	bcf	3,6	;RP1=0, select bank0
  9803     13EC  0837               	movf	i1utoa@i,w
  9804     13ED  0438               	iorwf	i1utoa@i+1,w
  9805     13EE  1903               	btfsc	3,2
  9806     13EF  2BF1               	goto	u431_21
  9807     13F0  2BF2               	goto	u431_20
  9808     13F1                     u431_21:
  9809     13F1  2C1A               	goto	i1l3155
  9810     13F2                     u431_20:
  9811     13F2                     i1l3147:
  9812     13F2  0831               	movf	i1utoa@d,w
  9813     13F3  0432               	iorwf	i1utoa@d+1,w
  9814     13F4  1D03               	btfss	3,2
  9815     13F5  2BF7               	goto	u432_21
  9816     13F6  2BF8               	goto	u432_20
  9817     13F7                     u432_21:
  9818     13F7  2BAE               	goto	i1l3135
  9819     13F8                     u432_20:
  9820     13F8                     i1l3149:
  9821     13F8  0834               	movf	i1utoa@p+1,w
  9822     13F9  3A80               	xorlw	128
  9823     13FA  00FF               	movwf	btemp+1
  9824     13FB  3080               	movlw	128
  9825     13FC  027F               	subwf	btemp+1,w
  9826     13FD  1D03               	skipz
  9827     13FE  2C01               	goto	u433_25
  9828     13FF  3001               	movlw	1
  9829     1400  0233               	subwf	i1utoa@p,w
  9830     1401                     u433_25:
  9831     1401  1803               	skipnc
  9832     1402  2C04               	goto	u433_21
  9833     1403  2C05               	goto	u433_20
  9834     1404                     u433_21:
  9835     1404  2BAE               	goto	i1l3135
  9836     1405                     u433_20:
  9837     1405                     i1l3151:
  9838     1405  1283               	bcf	3,5	;RP0=0, select bank0
  9839     1406  1303               	bcf	3,6	;RP1=0, select bank0
  9840     1407  0836               	movf	i1utoa@w+1,w
  9841     1408  3A80               	xorlw	128
  9842     1409  00FF               	movwf	btemp+1
  9843     140A  3080               	movlw	128
  9844     140B  027F               	subwf	btemp+1,w
  9845     140C  1D03               	skipz
  9846     140D  2C10               	goto	u434_25
  9847     140E  3001               	movlw	1
  9848     140F  0235               	subwf	i1utoa@w,w
  9849     1410                     u434_25:
  9850     1410  1C03               	skipc
  9851     1411  2C13               	goto	u434_21
  9852     1412  2C14               	goto	u434_20
  9853     1413                     u434_21:
  9854     1413  2C1A               	goto	i1l3155
  9855     1414                     u434_20:
  9856     1414                     i1l3153:
  9857     1414  1683               	bsf	3,5	;RP0=1, select bank1
  9858     1415  1303               	bcf	3,6	;RP1=0, select bank1
  9859     1416  18DD               	btfsc	_flags^(0+128),1
  9860     1417  2C19               	goto	u435_21
  9861     1418  2C1A               	goto	u435_20
  9862     1419                     u435_21:
  9863     1419  2BAE               	goto	i1l3135
  9864     141A                     u435_20:
  9865     141A                     i1l3155:
  9866                           
  9867                           ;C:\Program Files\Microchip\xc8\v2.50\pic\sources\c99\common\doprnt.c: 1046:     return 
      +                          (int) pad(fp, &dbuf[i], w);
  9868     141A  1283               	bcf	3,5	;RP0=0, select bank0
  9869     141B  1303               	bcf	3,6	;RP1=0, select bank0
  9870     141C  082F               	movf	i1utoa@fp,w
  9871     141D  00A8               	movwf	i1pad@fp
  9872     141E  0830               	movf	i1utoa@fp+1,w
  9873     141F  00A9               	movwf	i1pad@fp+1
  9874     1420  0837               	movf	i1utoa@i,w
  9875     1421  3E10               	addlw	(low (_dbuf| (0+256)))& (0+255)
  9876     1422  00AA               	movwf	i1pad@buf
  9877     1423  0836               	movf	i1utoa@w+1,w
  9878     1424  00AC               	movwf	i1pad@p+1
  9879     1425  0835               	movf	i1utoa@w,w
  9880     1426  00AB               	movwf	i1pad@p
  9881     1427  160A  118A  2077  160A  118A  	fcall	i1_pad
  9882     142C  1283               	bcf	3,5	;RP0=0, select bank0
  9883     142D  1303               	bcf	3,6	;RP1=0, select bank0
  9884     142E  0829               	movf	?i1_pad+1,w
  9885     142F  00B0               	movwf	?i1_utoa+1
  9886     1430  0828               	movf	?i1_pad,w
  9887     1431  00AF               	movwf	?i1_utoa
  9888     1432                     i1l728:
  9889     1432  0008               	return
  9890     1433                     __end_ofi1_utoa:
  9891                           
  9892                           	psect	text28
  9893     1CAA                     __ptext28:	
  9894 ;; *************** function i1___lwmod *****************
  9895 ;; Defined at:
  9896 ;;		line 5 in file "C:\Program Files\Microchip\xc8\v2.50\pic\sources\c99\common\lwmod.c"
  9897 ;; Parameters:    Size  Location     Type
  9898 ;;  divisor         2    0[COMMON] unsigned int 
  9899 ;;  dividend        2    2[COMMON] unsigned int 
  9900 ;; Auto vars:     Size  Location     Type
  9901 ;;  counter         1    4[COMMON] unsigned char 
  9902 ;; Return value:  Size  Location     Type
  9903 ;;                  2    0[COMMON] unsigned int 
  9904 ;; Registers used:
  9905 ;;		wreg, status,2, status,0
  9906 ;; Tracked objects:
  9907 ;;		On entry : 0/0
  9908 ;;		On exit  : 0/0
  9909 ;;		Unchanged: 0/0
  9910 ;; Data sizes:     COMMON   BANK0   BANK1   BANK3   BANK2
  9911 ;;      Params:         4       0       0       0       0
  9912 ;;      Locals:         1       0       0       0       0
  9913 ;;      Temps:          0       0       0       0       0
  9914 ;;      Totals:         5       0       0       0       0
  9915 ;;Total ram usage:        5 bytes
  9916 ;; Hardware stack levels used: 1
  9917 ;; This function calls:
  9918 ;;		Nothing
  9919 ;; This function is called by:
  9920 ;;		i1_utoa
  9921 ;; This function uses a non-reentrant model
  9922 ;;
  9923                           
  9924     1CAA                     i1___lwmod:	
  9925                           ;psect for function i1___lwmod
  9926                           
  9927     1CAA                     i1l2675:	
  9928                           ;incstack = 0
  9929 ;; hardware stack exceeded
  9930                           ; Regs used in i1___lwmod: [wreg+status,2+status,0]
  9931                           
  9932     1CAA  0870               	movf	i1___lwmod@divisor,w
  9933     1CAB  0471               	iorwf	i1___lwmod@divisor+1,w
  9934     1CAC  1903               	btfsc	3,2
  9935     1CAD  2CAF               	goto	u335_21
  9936     1CAE  2CB0               	goto	u335_20
  9937     1CAF                     u335_21:
  9938     1CAF  2CDD               	goto	i1l2693
  9939     1CB0                     u335_20:
  9940     1CB0                     i1l2677:
  9941     1CB0  3001               	movlw	1
  9942     1CB1  00F4               	movwf	i1___lwmod@counter
  9943     1CB2  2CBC               	goto	i1l2683
  9944     1CB3                     i1l2679:
  9945     1CB3  3001               	movlw	1
  9946     1CB4                     u336_25:
  9947     1CB4  1003               	clrc
  9948     1CB5  0DF0               	rlf	i1___lwmod@divisor,f
  9949     1CB6  0DF1               	rlf	i1___lwmod@divisor+1,f
  9950     1CB7  3EFF               	addlw	-1
  9951     1CB8  1D03               	skipz
  9952     1CB9  2CB4               	goto	u336_25
  9953     1CBA                     i1l2681:
  9954     1CBA  3001               	movlw	1
  9955     1CBB  07F4               	addwf	i1___lwmod@counter,f
  9956     1CBC                     i1l2683:
  9957     1CBC  1FF1               	btfss	i1___lwmod@divisor+1,7
  9958     1CBD  2CBF               	goto	u337_21
  9959     1CBE  2CC0               	goto	u337_20
  9960     1CBF                     u337_21:
  9961     1CBF  2CB3               	goto	i1l2679
  9962     1CC0                     u337_20:
  9963     1CC0                     i1l2685:
  9964     1CC0  0871               	movf	i1___lwmod@divisor+1,w
  9965     1CC1  0273               	subwf	i1___lwmod@dividend+1,w
  9966     1CC2  1D03               	skipz
  9967     1CC3  2CC6               	goto	u338_25
  9968     1CC4  0870               	movf	i1___lwmod@divisor,w
  9969     1CC5  0272               	subwf	i1___lwmod@dividend,w
  9970     1CC6                     u338_25:
  9971     1CC6  1C03               	skipc
  9972     1CC7  2CC9               	goto	u338_21
  9973     1CC8  2CCA               	goto	u338_20
  9974     1CC9                     u338_21:
  9975     1CC9  2CD0               	goto	i1l2689
  9976     1CCA                     u338_20:
  9977     1CCA                     i1l2687:
  9978     1CCA  0870               	movf	i1___lwmod@divisor,w
  9979     1CCB  02F2               	subwf	i1___lwmod@dividend,f
  9980     1CCC  0871               	movf	i1___lwmod@divisor+1,w
  9981     1CCD  1C03               	skipc
  9982     1CCE  03F3               	decf	i1___lwmod@dividend+1,f
  9983     1CCF  02F3               	subwf	i1___lwmod@dividend+1,f
  9984     1CD0                     i1l2689:
  9985     1CD0  3001               	movlw	1
  9986     1CD1                     u339_25:
  9987     1CD1  1003               	clrc
  9988     1CD2  0CF1               	rrf	i1___lwmod@divisor+1,f
  9989     1CD3  0CF0               	rrf	i1___lwmod@divisor,f
  9990     1CD4  3EFF               	addlw	-1
  9991     1CD5  1D03               	skipz
  9992     1CD6  2CD1               	goto	u339_25
  9993     1CD7                     i1l2691:
  9994     1CD7  3001               	movlw	1
  9995     1CD8  02F4               	subwf	i1___lwmod@counter,f
  9996     1CD9  1D03               	btfss	3,2
  9997     1CDA  2CDC               	goto	u340_21
  9998     1CDB  2CDD               	goto	u340_20
  9999     1CDC                     u340_21:
 10000     1CDC  2CC0               	goto	i1l2685
 10001     1CDD                     u340_20:
 10002     1CDD                     i1l2693:
 10003     1CDD  0873               	movf	i1___lwmod@dividend+1,w
 10004     1CDE  00F1               	movwf	?i1___lwmod+1
 10005     1CDF  0872               	movf	i1___lwmod@dividend,w
 10006     1CE0  00F0               	movwf	?i1___lwmod
 10007     1CE1                     i1l452:
 10008     1CE1  0008               	return
 10009     1CE2                     __end_ofi1___lwmod:
 10010                           
 10011                           	psect	text29
 10012     1D57                     __ptext29:	
 10013 ;; *************** function i1___lwdiv *****************
 10014 ;; Defined at:
 10015 ;;		line 5 in file "C:\Program Files\Microchip\xc8\v2.50\pic\sources\c99\common\lwdiv.c"
 10016 ;; Parameters:    Size  Location     Type
 10017 ;;  divisor         2    0[COMMON] unsigned int 
 10018 ;;  dividend        2    2[COMMON] unsigned int 
 10019 ;; Auto vars:     Size  Location     Type
 10020 ;;  quotient        2    4[COMMON] unsigned int 
 10021 ;;  counter         1    6[COMMON] unsigned char 
 10022 ;; Return value:  Size  Location     Type
 10023 ;;                  2    0[COMMON] unsigned int 
 10024 ;; Registers used:
 10025 ;;		wreg, status,2, status,0
 10026 ;; Tracked objects:
 10027 ;;		On entry : 0/0
 10028 ;;		On exit  : 0/0
 10029 ;;		Unchanged: 0/0
 10030 ;; Data sizes:     COMMON   BANK0   BANK1   BANK3   BANK2
 10031 ;;      Params:         4       0       0       0       0
 10032 ;;      Locals:         3       0       0       0       0
 10033 ;;      Temps:          0       0       0       0       0
 10034 ;;      Totals:         7       0       0       0       0
 10035 ;;Total ram usage:        7 bytes
 10036 ;; Hardware stack levels used: 1
 10037 ;; This function calls:
 10038 ;;		Nothing
 10039 ;; This function is called by:
 10040 ;;		i1_utoa
 10041 ;; This function uses a non-reentrant model
 10042 ;;
 10043                           
 10044     1D57                     i1___lwdiv:	
 10045                           ;psect for function i1___lwdiv
 10046                           
 10047     1D57                     i1l2649:	
 10048                           ;incstack = 0
 10049 ;; hardware stack exceeded
 10050                           ; Regs used in i1___lwdiv: [wreg+status,2+status,0]
 10051                           
 10052     1D57  01F4               	clrf	i1___lwdiv@quotient
 10053     1D58  01F5               	clrf	i1___lwdiv@quotient+1
 10054     1D59                     i1l2651:
 10055     1D59  0870               	movf	i1___lwdiv@divisor,w
 10056     1D5A  0471               	iorwf	i1___lwdiv@divisor+1,w
 10057     1D5B  1903               	btfsc	3,2
 10058     1D5C  2D5E               	goto	u328_21
 10059     1D5D  2D5F               	goto	u328_20
 10060     1D5E                     u328_21:
 10061     1D5E  2D94               	goto	i1l2671
 10062     1D5F                     u328_20:
 10063     1D5F                     i1l2653:
 10064     1D5F  3001               	movlw	1
 10065     1D60  00F6               	movwf	i1___lwdiv@counter
 10066     1D61  2D6B               	goto	i1l2659
 10067     1D62                     i1l2655:
 10068     1D62  3001               	movlw	1
 10069     1D63                     u329_25:
 10070     1D63  1003               	clrc
 10071     1D64  0DF0               	rlf	i1___lwdiv@divisor,f
 10072     1D65  0DF1               	rlf	i1___lwdiv@divisor+1,f
 10073     1D66  3EFF               	addlw	-1
 10074     1D67  1D03               	skipz
 10075     1D68  2D63               	goto	u329_25
 10076     1D69                     i1l2657:
 10077     1D69  3001               	movlw	1
 10078     1D6A  07F6               	addwf	i1___lwdiv@counter,f
 10079     1D6B                     i1l2659:
 10080     1D6B  1FF1               	btfss	i1___lwdiv@divisor+1,7
 10081     1D6C  2D6E               	goto	u330_21
 10082     1D6D  2D6F               	goto	u330_20
 10083     1D6E                     u330_21:
 10084     1D6E  2D62               	goto	i1l2655
 10085     1D6F                     u330_20:
 10086     1D6F                     i1l2661:
 10087     1D6F  3001               	movlw	1
 10088     1D70                     u331_25:
 10089     1D70  1003               	clrc
 10090     1D71  0DF4               	rlf	i1___lwdiv@quotient,f
 10091     1D72  0DF5               	rlf	i1___lwdiv@quotient+1,f
 10092     1D73  3EFF               	addlw	-1
 10093     1D74  1D03               	skipz
 10094     1D75  2D70               	goto	u331_25
 10095     1D76  0871               	movf	i1___lwdiv@divisor+1,w
 10096     1D77  0273               	subwf	i1___lwdiv@dividend+1,w
 10097     1D78  1D03               	skipz
 10098     1D79  2D7C               	goto	u332_25
 10099     1D7A  0870               	movf	i1___lwdiv@divisor,w
 10100     1D7B  0272               	subwf	i1___lwdiv@dividend,w
 10101     1D7C                     u332_25:
 10102     1D7C  1C03               	skipc
 10103     1D7D  2D7F               	goto	u332_21
 10104     1D7E  2D80               	goto	u332_20
 10105     1D7F                     u332_21:
 10106     1D7F  2D87               	goto	i1l2667
 10107     1D80                     u332_20:
 10108     1D80                     i1l2663:
 10109     1D80  0870               	movf	i1___lwdiv@divisor,w
 10110     1D81  02F2               	subwf	i1___lwdiv@dividend,f
 10111     1D82  0871               	movf	i1___lwdiv@divisor+1,w
 10112     1D83  1C03               	skipc
 10113     1D84  03F3               	decf	i1___lwdiv@dividend+1,f
 10114     1D85  02F3               	subwf	i1___lwdiv@dividend+1,f
 10115     1D86                     i1l2665:
 10116     1D86  1474               	bsf	i1___lwdiv@quotient,0
 10117     1D87                     i1l2667:
 10118     1D87  3001               	movlw	1
 10119     1D88                     u333_25:
 10120     1D88  1003               	clrc
 10121     1D89  0CF1               	rrf	i1___lwdiv@divisor+1,f
 10122     1D8A  0CF0               	rrf	i1___lwdiv@divisor,f
 10123     1D8B  3EFF               	addlw	-1
 10124     1D8C  1D03               	skipz
 10125     1D8D  2D88               	goto	u333_25
 10126     1D8E                     i1l2669:
 10127     1D8E  3001               	movlw	1
 10128     1D8F  02F6               	subwf	i1___lwdiv@counter,f
 10129     1D90  1D03               	btfss	3,2
 10130     1D91  2D93               	goto	u334_21
 10131     1D92  2D94               	goto	u334_20
 10132     1D93                     u334_21:
 10133     1D93  2D6F               	goto	i1l2661
 10134     1D94                     u334_20:
 10135     1D94                     i1l2671:
 10136     1D94  0875               	movf	i1___lwdiv@quotient+1,w
 10137     1D95  00F1               	movwf	?i1___lwdiv+1
 10138     1D96  0874               	movf	i1___lwdiv@quotient,w
 10139     1D97  00F0               	movwf	?i1___lwdiv
 10140     1D98                     i1l442:
 10141     1D98  0008               	return
 10142     1D99                     __end_ofi1___lwdiv:
 10143                           
 10144                           	psect	text30
 10145     10E1                     __ptext30:	
 10146 ;; *************** function i1_read_prec_or_width *****************
 10147 ;; Defined at:
 10148 ;;		line 1158 in file "C:\Program Files\Microchip\xc8\v2.50\pic\sources\c99\common\doprnt.c"
 10149 ;; Parameters:    Size  Location     Type
 10150 ;;  fmt             1    6[COMMON] PTR PTR const unsigned c
 10151 ;;		 -> i1vfprintf@cfmt(2), vfprintf@cfmt(2), 
 10152 ;;  ap              2    7[COMMON] PTR PTR void [1]
 10153 ;;		 -> i1sprintf@ap(2), sprintf@ap(1), 
 10154 ;; Auto vars:     Size  Location     Type
 10155 ;;  n               2   12[COMMON] int 
 10156 ;;  c               1   11[COMMON] unsigned char 
 10157 ;; Return value:  Size  Location     Type
 10158 ;;                  2    6[COMMON] int 
 10159 ;; Registers used:
 10160 ;;		wreg, fsr0l, fsr0h, status,2, status,0, btemp+1, pclath, cstack
 10161 ;; Tracked objects:
 10162 ;;		On entry : 0/0
 10163 ;;		On exit  : 0/0
 10164 ;;		Unchanged: 0/0
 10165 ;; Data sizes:     COMMON   BANK0   BANK1   BANK3   BANK2
 10166 ;;      Params:         3       0       0       0       0
 10167 ;;      Locals:         3       0       0       0       0
 10168 ;;      Temps:          2       0       0       0       0
 10169 ;;      Totals:         8       0       0       0       0
 10170 ;;Total ram usage:        8 bytes
 10171 ;; Hardware stack levels used: 1
 10172 ;; Hardware stack levels required when called: 1
 10173 ;; This function calls:
 10174 ;;		i1___wmul
 10175 ;; This function is called by:
 10176 ;;		i1_vfpfcnvrt
 10177 ;; This function uses a non-reentrant model
 10178 ;;
 10179                           
 10180     10E1                     i1_read_prec_or_width:	
 10181                           ;psect for function i1_read_prec_or_width
 10182                           
 10183     10E1                     i1l3229:	
 10184                           ;incstack = 0
 10185 ;; hardware stack exceeded
 10186                           ; Regs used in i1_read_prec_or_width: [wreg-fsr0h+status,2+status,0+btemp+1+pclath+cstac
      +                          k]
 10187                           
 10188                           
 10189                           ;C:\Program Files\Microchip\xc8\v2.50\pic\sources\c99\common\doprnt.c: 1159:     int n =
      +                           0;
 10190     10E1  01FC               	clrf	i1read_prec_or_width@n
 10191     10E2  01FD               	clrf	i1read_prec_or_width@n+1
 10192     10E3                     i1l3231:
 10193                           
 10194                           ;C:\Program Files\Microchip\xc8\v2.50\pic\sources\c99\common\doprnt.c: 1160:     if ((*f
      +                          mt)[0] == '*') {
 10195     10E3  0876               	movf	i1read_prec_or_width@fmt,w
 10196     10E4  0084               	movwf	4
 10197     10E5  1383               	bcf	3,7	;select IRP bank0
 10198     10E6  0800               	movf	0,w
 10199     10E7  00F9               	movwf	??i1_read_prec_or_width
 10200     10E8  0A84               	incf	4,f
 10201     10E9  0800               	movf	0,w
 10202     10EA  00FA               	movwf	??i1_read_prec_or_width+1
 10203     10EB  087A               	movf	??i1_read_prec_or_width+1,w
 10204     10EC  1283               	bcf	3,5	;RP0=0, select bank0
 10205     10ED  1303               	bcf	3,6	;RP1=0, select bank0
 10206     10EE  00FF               	movwf	btemp+1
 10207     10EF  0879               	movf	??i1_read_prec_or_width,w
 10208     10F0  0084               	movwf	4
 10209     10F1  160A  158A  2000  160A  118A  	fcall	stringtab
 10210     10F6  3A2A               	xorlw	42
 10211     10F7  1D03               	skipz
 10212     10F8  28FA               	goto	u452_21
 10213     10F9  28FB               	goto	u452_20
 10214     10FA                     u452_21:
 10215     10FA  293B               	goto	i1l3239
 10216     10FB                     u452_20:
 10217     10FB                     i1l3233:
 10218                           
 10219                           ;C:\Program Files\Microchip\xc8\v2.50\pic\sources\c99\common\doprnt.c: 1161:         ++*
      +                          fmt;
 10220     10FB  0876               	movf	i1read_prec_or_width@fmt,w
 10221     10FC  0084               	movwf	4
 10222     10FD  3001               	movlw	1
 10223     10FE  1383               	bcf	3,7	;select IRP bank0
 10224     10FF  0780               	addwf	0,f
 10225     1100  0A84               	incf	4,f
 10226     1101  1803               	skipnc
 10227     1102  0A80               	incf	0,f
 10228                           
 10229                           ;C:\Program Files\Microchip\xc8\v2.50\pic\sources\c99\common\doprnt.c: 1162:         n =
      +                           (*(int *)__va_arg(*(int **)*ap, (int)0));
 10230     1103  0877               	movf	i1read_prec_or_width@ap,w
 10231     1104  0084               	movwf	4
 10232     1105  1783               	bsf	3,7
 10233     1106  1C78               	btfss	i1read_prec_or_width@ap+1,0
 10234     1107  1383               	bcf	3,7
 10235     1108  0800               	movf	0,w
 10236     1109  00F9               	movwf	??i1_read_prec_or_width
 10237     110A  3002               	movlw	2
 10238     110B  0780               	addwf	0,f
 10239     110C  0A84               	incf	4,f
 10240     110D  0800               	movf	0,w
 10241     110E  00FA               	movwf	??i1_read_prec_or_width+1
 10242     110F  3000               	movlw	0
 10243     1110  1803               	skipnc
 10244     1111  0A80               	incf	0,f
 10245     1112  0780               	addwf	0,f
 10246     1113  0879               	movf	??i1_read_prec_or_width,w
 10247     1114  0084               	movwf	4
 10248     1115  1783               	bsf	3,7
 10249     1116  1C7A               	btfss	??i1_read_prec_or_width+1,0
 10250     1117  1383               	bcf	3,7
 10251     1118  0800               	movf	0,w
 10252     1119  00FC               	movwf	i1read_prec_or_width@n
 10253     111A  0A84               	incf	4,f
 10254     111B  0800               	movf	0,w
 10255     111C  00FD               	movwf	i1read_prec_or_width@n+1
 10256                           
 10257                           ;C:\Program Files\Microchip\xc8\v2.50\pic\sources\c99\common\doprnt.c: 1163:     } else 
      +                          {
 10258     111D  2956               	goto	i1l3241
 10259     111E                     i1l3235:
 10260                           
 10261                           ;C:\Program Files\Microchip\xc8\v2.50\pic\sources\c99\common\doprnt.c: 1166:            
      +                           n = n * 10 + c;
 10262     111E  087D               	movf	i1read_prec_or_width@n+1,w
 10263     111F  00F1               	movwf	i1___wmul@multiplier+1
 10264     1120  087C               	movf	i1read_prec_or_width@n,w
 10265     1121  00F0               	movwf	i1___wmul@multiplier
 10266     1122  300A               	movlw	10
 10267     1123  00F2               	movwf	i1___wmul@multiplicand
 10268     1124  3000               	movlw	0
 10269     1125  00F3               	movwf	i1___wmul@multiplicand+1
 10270     1126  160A  158A  2373  160A  118A  	fcall	i1___wmul
 10271     112B  087B               	movf	i1read_prec_or_width@c,w
 10272     112C  0770               	addwf	?i1___wmul,w
 10273     112D  00FC               	movwf	i1read_prec_or_width@n
 10274     112E  3000               	movlw	0
 10275     112F  1803               	skipnc
 10276     1130  3001               	movlw	1
 10277     1131  0771               	addwf	?i1___wmul+1,w
 10278     1132  00FD               	movwf	i1read_prec_or_width@n+1
 10279     1133                     i1l3237:
 10280                           
 10281                           ;C:\Program Files\Microchip\xc8\v2.50\pic\sources\c99\common\doprnt.c: 1167:            
      +                           ++*fmt;
 10282     1133  0876               	movf	i1read_prec_or_width@fmt,w
 10283     1134  0084               	movwf	4
 10284     1135  3001               	movlw	1
 10285     1136  1383               	bcf	3,7	;select IRP bank0
 10286     1137  0780               	addwf	0,f
 10287     1138  0A84               	incf	4,f
 10288     1139  1803               	skipnc
 10289     113A  0A80               	incf	0,f
 10290     113B                     i1l3239:
 10291                           
 10292                           ;C:\Program Files\Microchip\xc8\v2.50\pic\sources\c99\common\doprnt.c: 1165:         whi
      +                          le ((c = ((unsigned)(*fmt)[0]) - '0') < 10) {
 10293     113B  0876               	movf	i1read_prec_or_width@fmt,w
 10294     113C  0084               	movwf	4
 10295     113D  1383               	bcf	3,7	;select IRP bank0
 10296     113E  0800               	movf	0,w
 10297     113F  00F9               	movwf	??i1_read_prec_or_width
 10298     1140  0A84               	incf	4,f
 10299     1141  0800               	movf	0,w
 10300     1142  00FA               	movwf	??i1_read_prec_or_width+1
 10301     1143  087A               	movf	??i1_read_prec_or_width+1,w
 10302     1144  1283               	bcf	3,5	;RP0=0, select bank0
 10303     1145  1303               	bcf	3,6	;RP1=0, select bank0
 10304     1146  00FF               	movwf	btemp+1
 10305     1147  0879               	movf	??i1_read_prec_or_width,w
 10306     1148  0084               	movwf	4
 10307     1149  160A  158A  2000  160A  118A  	fcall	stringtab
 10308     114E  3ED0               	addlw	208
 10309     114F  00FB               	movwf	i1read_prec_or_width@c
 10310     1150  300A               	movlw	10
 10311     1151  027B               	subwf	i1read_prec_or_width@c,w
 10312     1152  1C03               	skipc
 10313     1153  2955               	goto	u453_21
 10314     1154  2956               	goto	u453_20
 10315     1155                     u453_21:
 10316     1155  291E               	goto	i1l3235
 10317     1156                     u453_20:
 10318     1156                     i1l3241:
 10319                           
 10320                           ;C:\Program Files\Microchip\xc8\v2.50\pic\sources\c99\common\doprnt.c: 1170:     return 
      +                          n;
 10321     1156  087D               	movf	i1read_prec_or_width@n+1,w
 10322     1157  00F7               	movwf	?i1_read_prec_or_width+1
 10323     1158  087C               	movf	i1read_prec_or_width@n,w
 10324     1159  00F6               	movwf	?i1_read_prec_or_width
 10325     115A                     i1l759:
 10326     115A  0008               	return
 10327     115B                     __end_ofi1_read_prec_or_width:
 10328                           
 10329                           	psect	text31
 10330     1B73                     __ptext31:	
 10331 ;; *************** function i1___wmul *****************
 10332 ;; Defined at:
 10333 ;;		line 15 in file "C:\Program Files\Microchip\xc8\v2.50\pic\sources\c99\common\Umul16.c"
 10334 ;; Parameters:    Size  Location     Type
 10335 ;;  multiplier      2    0[COMMON] unsigned int 
 10336 ;;  multiplicand    2    2[COMMON] unsigned int 
 10337 ;; Auto vars:     Size  Location     Type
 10338 ;;  product         2    4[COMMON] unsigned int 
 10339 ;; Return value:  Size  Location     Type
 10340 ;;                  2    0[COMMON] unsigned int 
 10341 ;; Registers used:
 10342 ;;		wreg, status,2, status,0
 10343 ;; Tracked objects:
 10344 ;;		On entry : 0/0
 10345 ;;		On exit  : 0/0
 10346 ;;		Unchanged: 0/0
 10347 ;; Data sizes:     COMMON   BANK0   BANK1   BANK3   BANK2
 10348 ;;      Params:         4       0       0       0       0
 10349 ;;      Locals:         2       0       0       0       0
 10350 ;;      Temps:          0       0       0       0       0
 10351 ;;      Totals:         6       0       0       0       0
 10352 ;;Total ram usage:        6 bytes
 10353 ;; Hardware stack levels used: 1
 10354 ;; This function calls:
 10355 ;;		Nothing
 10356 ;; This function is called by:
 10357 ;;		i1_read_prec_or_width
 10358 ;; This function uses a non-reentrant model
 10359 ;;
 10360                           
 10361     1B73                     i1___wmul:	
 10362                           ;psect for function i1___wmul
 10363                           
 10364     1B73                     i1l2553:	
 10365                           ;incstack = 0
 10366 ;; hardware stack exceeded
 10367                           ; Regs used in i1___wmul: [wreg+status,2+status,0]
 10368                           
 10369     1B73  01F4               	clrf	i1___wmul@product
 10370     1B74  01F5               	clrf	i1___wmul@product+1
 10371     1B75                     i1l2555:
 10372     1B75  1C70               	btfss	i1___wmul@multiplier,0
 10373     1B76  2B78               	goto	u305_21
 10374     1B77  2B79               	goto	u305_20
 10375     1B78                     u305_21:
 10376     1B78  2B7F               	goto	i1l162
 10377     1B79                     u305_20:
 10378     1B79                     i1l2557:
 10379     1B79  0872               	movf	i1___wmul@multiplicand,w
 10380     1B7A  07F4               	addwf	i1___wmul@product,f
 10381     1B7B  1803               	skipnc
 10382     1B7C  0AF5               	incf	i1___wmul@product+1,f
 10383     1B7D  0873               	movf	i1___wmul@multiplicand+1,w
 10384     1B7E  07F5               	addwf	i1___wmul@product+1,f
 10385     1B7F                     i1l162:
 10386     1B7F  3001               	movlw	1
 10387     1B80                     u306_25:
 10388     1B80  1003               	clrc
 10389     1B81  0DF2               	rlf	i1___wmul@multiplicand,f
 10390     1B82  0DF3               	rlf	i1___wmul@multiplicand+1,f
 10391     1B83  3EFF               	addlw	-1
 10392     1B84  1D03               	skipz
 10393     1B85  2B80               	goto	u306_25
 10394     1B86                     i1l2559:
 10395     1B86  3001               	movlw	1
 10396     1B87                     u307_25:
 10397     1B87  1003               	clrc
 10398     1B88  0CF1               	rrf	i1___wmul@multiplier+1,f
 10399     1B89  0CF0               	rrf	i1___wmul@multiplier,f
 10400     1B8A  3EFF               	addlw	-1
 10401     1B8B  1D03               	skipz
 10402     1B8C  2B87               	goto	u307_25
 10403     1B8D                     i1l2561:
 10404     1B8D  0870               	movf	i1___wmul@multiplier,w
 10405     1B8E  0471               	iorwf	i1___wmul@multiplier+1,w
 10406     1B8F  1D03               	btfss	3,2
 10407     1B90  2B92               	goto	u308_21
 10408     1B91  2B93               	goto	u308_20
 10409     1B92                     u308_21:
 10410     1B92  2B75               	goto	i1l2555
 10411     1B93                     u308_20:
 10412     1B93                     i1l2563:
 10413     1B93  0875               	movf	i1___wmul@product+1,w
 10414     1B94  00F1               	movwf	?i1___wmul+1
 10415     1B95  0874               	movf	i1___wmul@product,w
 10416     1B96  00F0               	movwf	?i1___wmul
 10417     1B97                     i1l164:
 10418     1B97  0008               	return
 10419     1B98                     __end_ofi1___wmul:
 10420                           
 10421                           	psect	text32
 10422     1500                     __ptext32:	
 10423 ;; *************** function i1_otoa *****************
 10424 ;; Defined at:
 10425 ;;		line 872 in file "C:\Program Files\Microchip\xc8\v2.50\pic\sources\c99\common\doprnt.c"
 10426 ;; Parameters:    Size  Location     Type
 10427 ;;  fp              2   15[BANK0 ] PTR struct _IO_FILE
 10428 ;;		 -> i1sprintf@f(11), sprintf@f(11), 
 10429 ;;  d               2   17[BANK0 ] unsigned int 
 10430 ;; Auto vars:     Size  Location     Type
 10431 ;;  i               2   26[BANK0 ] int 
 10432 ;;  w               2   23[BANK0 ] int 
 10433 ;;  p               2   21[BANK0 ] int 
 10434 ;;  t               1   25[BANK0 ] unsigned char 
 10435 ;; Return value:  Size  Location     Type
 10436 ;;                  2   15[BANK0 ] int 
 10437 ;; Registers used:
 10438 ;;		wreg, fsr0l, fsr0h, status,2, status,0, btemp+1, pclath, cstack
 10439 ;; Tracked objects:
 10440 ;;		On entry : 0/0
 10441 ;;		On exit  : 0/0
 10442 ;;		Unchanged: 0/0
 10443 ;; Data sizes:     COMMON   BANK0   BANK1   BANK3   BANK2
 10444 ;;      Params:         0       4       0       0       0
 10445 ;;      Locals:         0       7       0       0       0
 10446 ;;      Temps:          0       2       0       0       0
 10447 ;;      Totals:         0      13       0       0       0
 10448 ;;Total ram usage:       13 bytes
 10449 ;; Hardware stack levels used: 1
 10450 ;; Hardware stack levels required when called: 4
 10451 ;; This function calls:
 10452 ;;		i1_pad
 10453 ;; This function is called by:
 10454 ;;		i1_vfpfcnvrt
 10455 ;; This function uses a non-reentrant model
 10456 ;;
 10457                           
 10458     1500                     i1_otoa:	
 10459                           ;psect for function i1_otoa
 10460                           
 10461     1500                     i1l3073:	
 10462                           ;incstack = 0
 10463 ;; hardware stack exceeded
 10464                           ; Regs used in i1_otoa: [wreg-fsr0h+status,2+status,0+btemp+1+pclath+cstack]
 10465                           
 10466                           
 10467                           ;C:\Program Files\Microchip\xc8\v2.50\pic\sources\c99\common\doprnt.c: 872: static int o
      +                          toa(FILE *fp, vfpf_uint_t d);C:\Program Files\Microchip\xc8\v2.50\pic\sources\c99\common
      +                          \doprnt.c: 873: {;C:\Program Files\Microchip\xc8\v2.50\pic\sources\c99\common\doprnt.c: 
      +                          875:  char t;;C:\Program Files\Microchip\xc8\v2.50\pic\sources\c99\common\doprnt.c: 877:
      +                               int i, w;;C:\Program Files\Microchip\xc8\v2.50\pic\sources\c99\common\doprnt.c: 879
      +                          :  int p;;C:\Program Files\Microchip\xc8\v2.50\pic\sources\c99\common\doprnt.c: 887:    
      +                           if (!(prec < 0)) {
 10468     1500  1683               	bsf	3,5	;RP0=1, select bank1
 10469     1501  1303               	bcf	3,6	;RP1=0, select bank1
 10470     1502  1BDA               	btfsc	(_prec+1)^(0+128),7
 10471     1503  2D05               	goto	u419_21
 10472     1504  2D06               	goto	u419_20
 10473     1505                     u419_21:
 10474     1505  2D08               	goto	i1l3077
 10475     1506                     u419_20:
 10476     1506                     i1l3075:
 10477                           
 10478                           ;C:\Program Files\Microchip\xc8\v2.50\pic\sources\c99\common\doprnt.c: 888:         flag
      +                          s &= ~(1 << 1);
 10479     1506  30FD               	movlw	253
 10480     1507  05DD               	andwf	_flags^(0+128),f
 10481     1508                     i1l3077:
 10482                           
 10483                           ;C:\Program Files\Microchip\xc8\v2.50\pic\sources\c99\common\doprnt.c: 891:     p = (0 <
      +                          = prec) ? prec : 1;
 10484     1508  1FDA               	btfss	(_prec+1)^(0+128),7
 10485     1509  2D0B               	goto	u420_21
 10486     150A  2D0C               	goto	u420_20
 10487     150B                     u420_21:
 10488     150B  2D13               	goto	i1l3081
 10489     150C                     u420_20:
 10490     150C                     i1l3079:
 10491     150C  3001               	movlw	1
 10492     150D  1283               	bcf	3,5	;RP0=0, select bank0
 10493     150E  1303               	bcf	3,6	;RP1=0, select bank0
 10494     150F  00B5               	movwf	i1otoa@p
 10495     1510  3000               	movlw	0
 10496     1511  00B6               	movwf	i1otoa@p+1
 10497     1512  2D1D               	goto	i1l702
 10498     1513                     i1l3081:
 10499     1513  085A               	movf	(_prec+1)^(0+128),w
 10500     1514  1283               	bcf	3,5	;RP0=0, select bank0
 10501     1515  1303               	bcf	3,6	;RP1=0, select bank0
 10502     1516  00B6               	movwf	i1otoa@p+1
 10503     1517  1683               	bsf	3,5	;RP0=1, select bank1
 10504     1518  1303               	bcf	3,6	;RP1=0, select bank1
 10505     1519  0859               	movf	_prec^(0+128),w
 10506     151A  1283               	bcf	3,5	;RP0=0, select bank0
 10507     151B  1303               	bcf	3,6	;RP1=0, select bank0
 10508     151C  00B5               	movwf	i1otoa@p
 10509     151D                     i1l702:
 10510                           
 10511                           ;C:\Program Files\Microchip\xc8\v2.50\pic\sources\c99\common\doprnt.c: 893:     w = widt
      +                          h;
 10512     151D  1683               	bsf	3,5	;RP0=1, select bank1
 10513     151E  1303               	bcf	3,6	;RP1=0, select bank1
 10514     151F  0858               	movf	(_width+1)^(0+128),w
 10515     1520  1283               	bcf	3,5	;RP0=0, select bank0
 10516     1521  1303               	bcf	3,6	;RP1=0, select bank0
 10517     1522  00B8               	movwf	i1otoa@w+1
 10518     1523  1683               	bsf	3,5	;RP0=1, select bank1
 10519     1524  1303               	bcf	3,6	;RP1=0, select bank1
 10520     1525  0857               	movf	_width^(0+128),w
 10521     1526  1283               	bcf	3,5	;RP0=0, select bank0
 10522     1527  1303               	bcf	3,6	;RP1=0, select bank0
 10523     1528  00B7               	movwf	i1otoa@w
 10524                           
 10525                           ;C:\Program Files\Microchip\xc8\v2.50\pic\sources\c99\common\doprnt.c: 896:     i = size
      +                          of(dbuf) - 1;
 10526     1529  301F               	movlw	31
 10527     152A  00BA               	movwf	i1otoa@i
 10528     152B  3000               	movlw	0
 10529     152C  00BB               	movwf	i1otoa@i+1
 10530     152D                     i1l3083:
 10531                           
 10532                           ;C:\Program Files\Microchip\xc8\v2.50\pic\sources\c99\common\doprnt.c: 897:     dbuf[i] 
      +                          = '\0';
 10533     152D  1283               	bcf	3,5	;RP0=0, select bank2
 10534     152E  1703               	bsf	3,6	;RP1=1, select bank2
 10535     152F  01AF               	clrf	(_dbuf^(0+256)+31)
 10536     1530                     i1l3085:
 10537                           
 10538                           ;C:\Program Files\Microchip\xc8\v2.50\pic\sources\c99\common\doprnt.c: 899:     t = 0;
 10539     1530  1283               	bcf	3,5	;RP0=0, select bank0
 10540     1531  1303               	bcf	3,6	;RP1=0, select bank0
 10541     1532  01B9               	clrf	i1otoa@t
 10542                           
 10543                           ;C:\Program Files\Microchip\xc8\v2.50\pic\sources\c99\common\doprnt.c: 901:     while (!
      +                          (i < 1) && (d != 0
 10544     1533  2D64               	goto	i1l3099
 10545     1534                     i1l3087:
 10546                           
 10547                           ;C:\Program Files\Microchip\xc8\v2.50\pic\sources\c99\common\doprnt.c: 910:     )) {;C:\
      +                          Program Files\Microchip\xc8\v2.50\pic\sources\c99\common\doprnt.c: 911:         --i;
 10548     1534  30FF               	movlw	255
 10549     1535  1283               	bcf	3,5	;RP0=0, select bank0
 10550     1536  1303               	bcf	3,6	;RP1=0, select bank0
 10551     1537  07BA               	addwf	i1otoa@i,f
 10552     1538  1803               	skipnc
 10553     1539  0ABB               	incf	i1otoa@i+1,f
 10554     153A  30FF               	movlw	255
 10555     153B  07BB               	addwf	i1otoa@i+1,f
 10556                           
 10557                           ;C:\Program Files\Microchip\xc8\v2.50\pic\sources\c99\common\doprnt.c: 913:         t = 
      +                          d & 07;
 10558     153C  0831               	movf	i1otoa@d,w
 10559     153D  00B9               	movwf	i1otoa@t
 10560     153E                     i1l3089:
 10561     153E  3007               	movlw	7
 10562     153F  05B9               	andwf	i1otoa@t,f
 10563     1540                     i1l3091:
 10564                           
 10565                           ;C:\Program Files\Microchip\xc8\v2.50\pic\sources\c99\common\doprnt.c: 914:         dbuf
      +                          [i] = (char)((int)'0' + t);
 10566     1540  083A               	movf	i1otoa@i,w
 10567     1541  3E10               	addlw	(low (_dbuf| (0+256)))& (0+255)
 10568     1542  0084               	movwf	4
 10569     1543  0839               	movf	i1otoa@t,w
 10570     1544  3E30               	addlw	48
 10571     1545  1783               	bsf	3,7	;select IRP bank2
 10572     1546  0080               	movwf	0
 10573     1547                     i1l3093:
 10574                           
 10575                           ;C:\Program Files\Microchip\xc8\v2.50\pic\sources\c99\common\doprnt.c: 919:         --p;
 10576     1547  30FF               	movlw	255
 10577     1548  07B5               	addwf	i1otoa@p,f
 10578     1549  1803               	skipnc
 10579     154A  0AB6               	incf	i1otoa@p+1,f
 10580     154B  30FF               	movlw	255
 10581     154C  07B6               	addwf	i1otoa@p+1,f
 10582     154D                     i1l3095:
 10583                           
 10584                           ;C:\Program Files\Microchip\xc8\v2.50\pic\sources\c99\common\doprnt.c: 923:         --w;
 10585     154D  30FF               	movlw	255
 10586     154E  07B7               	addwf	i1otoa@w,f
 10587     154F  1803               	skipnc
 10588     1550  0AB8               	incf	i1otoa@w+1,f
 10589     1551  30FF               	movlw	255
 10590     1552  07B8               	addwf	i1otoa@w+1,f
 10591     1553                     i1l3097:
 10592                           
 10593                           ;C:\Program Files\Microchip\xc8\v2.50\pic\sources\c99\common\doprnt.c: 924:         d = 
      +                          d >> 3;
 10594     1553  0832               	movf	i1otoa@d+1,w
 10595     1554  00B4               	movwf	??i1_otoa+1
 10596     1555  0831               	movf	i1otoa@d,w
 10597     1556  00B3               	movwf	??i1_otoa
 10598     1557  1003               	clrc
 10599     1558  0CB4               	rrf	??i1_otoa+1,f
 10600     1559  0CB3               	rrf	??i1_otoa,f
 10601     155A  1003               	clrc
 10602     155B  0CB4               	rrf	??i1_otoa+1,f
 10603     155C  0CB3               	rrf	??i1_otoa,f
 10604     155D  1003               	clrc
 10605     155E  0CB4               	rrf	??i1_otoa+1,f
 10606     155F  0CB3               	rrf	??i1_otoa,f
 10607     1560  0833               	movf	??i1_otoa,w
 10608     1561  00B1               	movwf	i1otoa@d
 10609     1562  0834               	movf	??i1_otoa+1,w
 10610     1563  00B2               	movwf	i1otoa@d+1
 10611     1564                     i1l3099:
 10612                           
 10613                           ;C:\Program Files\Microchip\xc8\v2.50\pic\sources\c99\common\doprnt.c: 901:     while (!
      +                          (i < 1) && (d != 0
 10614     1564  083B               	movf	i1otoa@i+1,w
 10615     1565  3A80               	xorlw	128
 10616     1566  00FF               	movwf	btemp+1
 10617     1567  3080               	movlw	128
 10618     1568  027F               	subwf	btemp+1,w
 10619     1569  1D03               	skipz
 10620     156A  2D6D               	goto	u421_25
 10621     156B  3001               	movlw	1
 10622     156C  023A               	subwf	i1otoa@i,w
 10623     156D                     u421_25:
 10624     156D  1C03               	skipc
 10625     156E  2D70               	goto	u421_21
 10626     156F  2D71               	goto	u421_20
 10627     1570                     u421_21:
 10628     1570  2D9B               	goto	i1l3109
 10629     1571                     u421_20:
 10630     1571                     i1l3101:
 10631     1571  1283               	bcf	3,5	;RP0=0, select bank0
 10632     1572  1303               	bcf	3,6	;RP1=0, select bank0
 10633     1573  0831               	movf	i1otoa@d,w
 10634     1574  0432               	iorwf	i1otoa@d+1,w
 10635     1575  1D03               	btfss	3,2
 10636     1576  2D78               	goto	u422_21
 10637     1577  2D79               	goto	u422_20
 10638     1578                     u422_21:
 10639     1578  2D34               	goto	i1l3087
 10640     1579                     u422_20:
 10641     1579                     i1l3103:
 10642     1579  0836               	movf	i1otoa@p+1,w
 10643     157A  3A80               	xorlw	128
 10644     157B  00FF               	movwf	btemp+1
 10645     157C  3080               	movlw	128
 10646     157D  027F               	subwf	btemp+1,w
 10647     157E  1D03               	skipz
 10648     157F  2D82               	goto	u423_25
 10649     1580  3001               	movlw	1
 10650     1581  0235               	subwf	i1otoa@p,w
 10651     1582                     u423_25:
 10652     1582  1803               	skipnc
 10653     1583  2D85               	goto	u423_21
 10654     1584  2D86               	goto	u423_20
 10655     1585                     u423_21:
 10656     1585  2D34               	goto	i1l3087
 10657     1586                     u423_20:
 10658     1586                     i1l3105:
 10659     1586  1283               	bcf	3,5	;RP0=0, select bank0
 10660     1587  1303               	bcf	3,6	;RP1=0, select bank0
 10661     1588  0838               	movf	i1otoa@w+1,w
 10662     1589  3A80               	xorlw	128
 10663     158A  00FF               	movwf	btemp+1
 10664     158B  3080               	movlw	128
 10665     158C  027F               	subwf	btemp+1,w
 10666     158D  1D03               	skipz
 10667     158E  2D91               	goto	u424_25
 10668     158F  3001               	movlw	1
 10669     1590  0237               	subwf	i1otoa@w,w
 10670     1591                     u424_25:
 10671     1591  1C03               	skipc
 10672     1592  2D94               	goto	u424_21
 10673     1593  2D95               	goto	u424_20
 10674     1594                     u424_21:
 10675     1594  2D9B               	goto	i1l3109
 10676     1595                     u424_20:
 10677     1595                     i1l3107:
 10678     1595  1683               	bsf	3,5	;RP0=1, select bank1
 10679     1596  1303               	bcf	3,6	;RP1=0, select bank1
 10680     1597  18DD               	btfsc	_flags^(0+128),1
 10681     1598  2D9A               	goto	u425_21
 10682     1599  2D9B               	goto	u425_20
 10683     159A                     u425_21:
 10684     159A  2D34               	goto	i1l3087
 10685     159B                     u425_20:
 10686     159B                     i1l3109:
 10687                           
 10688                           ;C:\Program Files\Microchip\xc8\v2.50\pic\sources\c99\common\doprnt.c: 929:     if ((t |
      +                          | prec == 0) && (flags & (1 << 4))) {
 10689     159B  1283               	bcf	3,5	;RP0=0, select bank0
 10690     159C  1303               	bcf	3,6	;RP1=0, select bank0
 10691     159D  0839               	movf	i1otoa@t,w
 10692     159E  1D03               	btfss	3,2
 10693     159F  2DA1               	goto	u426_21
 10694     15A0  2DA2               	goto	u426_20
 10695     15A1                     u426_21:
 10696     15A1  2DAA               	goto	i1l712
 10697     15A2                     u426_20:
 10698     15A2                     i1l3111:
 10699     15A2  1683               	bsf	3,5	;RP0=1, select bank1
 10700     15A3  1303               	bcf	3,6	;RP1=0, select bank1
 10701     15A4  0859               	movf	_prec^(0+128),w
 10702     15A5  045A               	iorwf	(_prec+1)^(0+128),w
 10703     15A6  1D03               	btfss	3,2
 10704     15A7  2DA9               	goto	u427_21
 10705     15A8  2DAA               	goto	u427_20
 10706     15A9                     u427_21:
 10707     15A9  2DC4               	goto	i1l3119
 10708     15AA                     u427_20:
 10709     15AA                     i1l712:
 10710     15AA  1683               	bsf	3,5	;RP0=1, select bank1
 10711     15AB  1303               	bcf	3,6	;RP1=0, select bank1
 10712     15AC  1E5D               	btfss	_flags^(0+128),4
 10713     15AD  2DAF               	goto	u428_21
 10714     15AE  2DB0               	goto	u428_20
 10715     15AF                     u428_21:
 10716     15AF  2DC4               	goto	i1l3119
 10717     15B0                     u428_20:
 10718     15B0                     i1l3113:
 10719                           
 10720                           ;C:\Program Files\Microchip\xc8\v2.50\pic\sources\c99\common\doprnt.c: 930:         --i;
 10721     15B0  30FF               	movlw	255
 10722     15B1  1283               	bcf	3,5	;RP0=0, select bank0
 10723     15B2  1303               	bcf	3,6	;RP1=0, select bank0
 10724     15B3  07BA               	addwf	i1otoa@i,f
 10725     15B4  1803               	skipnc
 10726     15B5  0ABB               	incf	i1otoa@i+1,f
 10727     15B6  30FF               	movlw	255
 10728     15B7  07BB               	addwf	i1otoa@i+1,f
 10729     15B8                     i1l3115:
 10730                           
 10731                           ;C:\Program Files\Microchip\xc8\v2.50\pic\sources\c99\common\doprnt.c: 931:         dbuf
      +                          [i] = '0';
 10732     15B8  083A               	movf	i1otoa@i,w
 10733     15B9  3E10               	addlw	(low (_dbuf| (0+256)))& (0+255)
 10734     15BA  0084               	movwf	4
 10735     15BB  3030               	movlw	48
 10736     15BC  1783               	bsf	3,7	;select IRP bank2
 10737     15BD  0080               	movwf	0
 10738     15BE                     i1l3117:
 10739                           
 10740                           ;C:\Program Files\Microchip\xc8\v2.50\pic\sources\c99\common\doprnt.c: 932:         --w;
 10741     15BE  30FF               	movlw	255
 10742     15BF  07B7               	addwf	i1otoa@w,f
 10743     15C0  1803               	skipnc
 10744     15C1  0AB8               	incf	i1otoa@w+1,f
 10745     15C2  30FF               	movlw	255
 10746     15C3  07B8               	addwf	i1otoa@w+1,f
 10747     15C4                     i1l3119:
 10748                           
 10749                           ;C:\Program Files\Microchip\xc8\v2.50\pic\sources\c99\common\doprnt.c: 937:     return (
      +                          int) pad(fp, &dbuf[i], w);
 10750     15C4  1283               	bcf	3,5	;RP0=0, select bank0
 10751     15C5  082F               	movf	i1otoa@fp,w
 10752     15C6  00A8               	movwf	i1pad@fp
 10753     15C7  0830               	movf	i1otoa@fp+1,w
 10754     15C8  00A9               	movwf	i1pad@fp+1
 10755     15C9  083A               	movf	i1otoa@i,w
 10756     15CA  3E10               	addlw	(low (_dbuf| (0+256)))& (0+255)
 10757     15CB  00AA               	movwf	i1pad@buf
 10758     15CC  0838               	movf	i1otoa@w+1,w
 10759     15CD  00AC               	movwf	i1pad@p+1
 10760     15CE  0837               	movf	i1otoa@w,w
 10761     15CF  00AB               	movwf	i1pad@p
 10762     15D0  160A  118A  2077  160A  118A  	fcall	i1_pad
 10763     15D5  1283               	bcf	3,5	;RP0=0, select bank0
 10764     15D6  1303               	bcf	3,6	;RP1=0, select bank0
 10765     15D7  0829               	movf	?i1_pad+1,w
 10766     15D8  00B0               	movwf	?i1_otoa+1
 10767     15D9  0828               	movf	?i1_pad,w
 10768     15DA  00AF               	movwf	?i1_otoa
 10769     15DB                     i1l713:
 10770     15DB  0008               	return
 10771     15DC                     __end_ofi1_otoa:
 10772                           
 10773                           	psect	text33
 10774     16EC                     __ptext33:	
 10775 ;; *************** function i1_dtoa *****************
 10776 ;; Defined at:
 10777 ;;		line 513 in file "C:\Program Files\Microchip\xc8\v2.50\pic\sources\c99\common\doprnt.c"
 10778 ;; Parameters:    Size  Location     Type
 10779 ;;  fp              2   15[BANK0 ] PTR struct _IO_FILE
 10780 ;;		 -> i1sprintf@f(11), sprintf@f(11), 
 10781 ;;  d               2   17[BANK0 ] int 
 10782 ;; Auto vars:     Size  Location     Type
 10783 ;;  i               2   26[BANK0 ] int 
 10784 ;;  w               2   23[BANK0 ] int 
 10785 ;;  p               2   21[BANK0 ] int 
 10786 ;;  s               1   25[BANK0 ] unsigned char 
 10787 ;; Return value:  Size  Location     Type
 10788 ;;                  2   15[BANK0 ] int 
 10789 ;; Registers used:
 10790 ;;		wreg, fsr0l, fsr0h, status,2, status,0, btemp+1, pclath, cstack
 10791 ;; Tracked objects:
 10792 ;;		On entry : 0/0
 10793 ;;		On exit  : 0/0
 10794 ;;		Unchanged: 0/0
 10795 ;; Data sizes:     COMMON   BANK0   BANK1   BANK3   BANK2
 10796 ;;      Params:         0       4       0       0       0
 10797 ;;      Locals:         0       9       0       0       0
 10798 ;;      Temps:          0       0       0       0       0
 10799 ;;      Totals:         0      13       0       0       0
 10800 ;;Total ram usage:       13 bytes
 10801 ;; Hardware stack levels used: 1
 10802 ;; Hardware stack levels required when called: 4
 10803 ;; This function calls:
 10804 ;;		i1___awdiv
 10805 ;;		i1___awmod
 10806 ;;		i1_abs
 10807 ;;		i1_pad
 10808 ;; This function is called by:
 10809 ;;		i1_vfpfcnvrt
 10810 ;; This function uses a non-reentrant model
 10811 ;;
 10812                           
 10813     16EC                     i1_dtoa:	
 10814                           ;psect for function i1_dtoa
 10815                           
 10816     16EC                     i1l3013:	
 10817                           ;incstack = 0
 10818 ;; hardware stack exceeded
 10819                           ; Regs used in i1_dtoa: [wreg-fsr0h+status,2+status,0+btemp+1+pclath+cstack]
 10820                           
 10821                           
 10822                           ;C:\Program Files\Microchip\xc8\v2.50\pic\sources\c99\common\doprnt.c: 513: static int d
      +                          toa(FILE *fp, vfpf_sint_t d);C:\Program Files\Microchip\xc8\v2.50\pic\sources\c99\common
      +                          \doprnt.c: 514: {;C:\Program Files\Microchip\xc8\v2.50\pic\sources\c99\common\doprnt.c: 
      +                          515:  char s;;C:\Program Files\Microchip\xc8\v2.50\pic\sources\c99\common\doprnt.c: 516:
      +                               int i, w;;C:\Program Files\Microchip\xc8\v2.50\pic\sources\c99\common\doprnt.c: 518
      +                          :  int p;;C:\Program Files\Microchip\xc8\v2.50\pic\sources\c99\common\doprnt.c: 524:    
      +                           s = d < 0 ? 1 : 0;
 10823     16EC  1283               	bcf	3,5	;RP0=0, select bank0
 10824     16ED  1303               	bcf	3,6	;RP1=0, select bank0
 10825     16EE  1BB2               	btfsc	i1dtoa@d+1,7
 10826     16EF  2EF1               	goto	u405_21
 10827     16F0  2EF3               	goto	u405_20
 10828     16F1                     u405_21:
 10829     16F1  3001               	movlw	1
 10830     16F2  2EF4               	goto	u406_20
 10831     16F3                     u405_20:
 10832     16F3  3000               	movlw	0
 10833     16F4                     u406_20:
 10834     16F4  00B9               	movwf	i1dtoa@s
 10835     16F5                     i1l3015:
 10836                           
 10837                           ;C:\Program Files\Microchip\xc8\v2.50\pic\sources\c99\common\doprnt.c: 529:     if (!(pr
      +                          ec < 0)) {
 10838     16F5  1683               	bsf	3,5	;RP0=1, select bank1
 10839     16F6  1303               	bcf	3,6	;RP1=0, select bank1
 10840     16F7  1BDA               	btfsc	(_prec+1)^(0+128),7
 10841     16F8  2EFA               	goto	u407_21
 10842     16F9  2EFB               	goto	u407_20
 10843     16FA                     u407_21:
 10844     16FA  2EFD               	goto	i1l3019
 10845     16FB                     u407_20:
 10846     16FB                     i1l3017:
 10847                           
 10848                           ;C:\Program Files\Microchip\xc8\v2.50\pic\sources\c99\common\doprnt.c: 530:         flag
      +                          s &= ~(1 << 1);
 10849     16FB  30FD               	movlw	253
 10850     16FC  05DD               	andwf	_flags^(0+128),f
 10851     16FD                     i1l3019:
 10852                           
 10853                           ;C:\Program Files\Microchip\xc8\v2.50\pic\sources\c99\common\doprnt.c: 533:     p = (0 <
      +                          = prec) ? prec : 1;
 10854     16FD  1FDA               	btfss	(_prec+1)^(0+128),7
 10855     16FE  2F00               	goto	u408_21
 10856     16FF  2F01               	goto	u408_20
 10857     1700                     u408_21:
 10858     1700  2F08               	goto	i1l3023
 10859     1701                     u408_20:
 10860     1701                     i1l3021:
 10861     1701  3001               	movlw	1
 10862     1702  1283               	bcf	3,5	;RP0=0, select bank0
 10863     1703  1303               	bcf	3,6	;RP1=0, select bank0
 10864     1704  00B5               	movwf	i1dtoa@p
 10865     1705  3000               	movlw	0
 10866     1706  00B6               	movwf	i1dtoa@p+1
 10867     1707  2F12               	goto	i1l677
 10868     1708                     i1l3023:
 10869     1708  085A               	movf	(_prec+1)^(0+128),w
 10870     1709  1283               	bcf	3,5	;RP0=0, select bank0
 10871     170A  1303               	bcf	3,6	;RP1=0, select bank0
 10872     170B  00B6               	movwf	i1dtoa@p+1
 10873     170C  1683               	bsf	3,5	;RP0=1, select bank1
 10874     170D  1303               	bcf	3,6	;RP1=0, select bank1
 10875     170E  0859               	movf	_prec^(0+128),w
 10876     170F  1283               	bcf	3,5	;RP0=0, select bank0
 10877     1710  1303               	bcf	3,6	;RP1=0, select bank0
 10878     1711  00B5               	movwf	i1dtoa@p
 10879     1712                     i1l677:
 10880                           
 10881                           ;C:\Program Files\Microchip\xc8\v2.50\pic\sources\c99\common\doprnt.c: 535:     w = widt
      +                          h;
 10882     1712  1683               	bsf	3,5	;RP0=1, select bank1
 10883     1713  1303               	bcf	3,6	;RP1=0, select bank1
 10884     1714  0858               	movf	(_width+1)^(0+128),w
 10885     1715  1283               	bcf	3,5	;RP0=0, select bank0
 10886     1716  1303               	bcf	3,6	;RP1=0, select bank0
 10887     1717  00B8               	movwf	i1dtoa@w+1
 10888     1718  1683               	bsf	3,5	;RP0=1, select bank1
 10889     1719  1303               	bcf	3,6	;RP1=0, select bank1
 10890     171A  0857               	movf	_width^(0+128),w
 10891     171B  1283               	bcf	3,5	;RP0=0, select bank0
 10892     171C  1303               	bcf	3,6	;RP1=0, select bank0
 10893     171D  00B7               	movwf	i1dtoa@w
 10894     171E                     i1l3025:
 10895                           
 10896                           ;C:\Program Files\Microchip\xc8\v2.50\pic\sources\c99\common\doprnt.c: 536:     if (s
 10897     171E  0839               	movf	i1dtoa@s,w
 10898     171F  1D03               	btfss	3,2
 10899     1720  2F22               	goto	u409_21
 10900     1721  2F23               	goto	u409_20
 10901     1722                     u409_21:
 10902     1722  2F29               	goto	i1l3029
 10903     1723                     u409_20:
 10904     1723                     i1l3027:
 10905     1723  1683               	bsf	3,5	;RP0=1, select bank1
 10906     1724  1303               	bcf	3,6	;RP1=0, select bank1
 10907     1725  1D5D               	btfss	_flags^(0+128),2
 10908     1726  2F28               	goto	u410_21
 10909     1727  2F29               	goto	u410_20
 10910     1728                     u410_21:
 10911     1728  2F41               	goto	i1l678
 10912     1729                     u410_20:
 10913     1729                     i1l3029:
 10914                           
 10915                           ;C:\Program Files\Microchip\xc8\v2.50\pic\sources\c99\common\doprnt.c: 540:     ) {;C:\P
      +                          rogram Files\Microchip\xc8\v2.50\pic\sources\c99\common\doprnt.c: 541:         --w;
 10916     1729  30FF               	movlw	255
 10917     172A  1283               	bcf	3,5	;RP0=0, select bank0
 10918     172B  07B7               	addwf	i1dtoa@w,f
 10919     172C  1803               	skipnc
 10920     172D  0AB8               	incf	i1dtoa@w+1,f
 10921     172E  30FF               	movlw	255
 10922     172F  07B8               	addwf	i1dtoa@w+1,f
 10923     1730                     i1l3031:
 10924                           
 10925                           ;C:\Program Files\Microchip\xc8\v2.50\pic\sources\c99\common\doprnt.c: 542:   s = s ? '-
      +                          ' : '+';
 10926     1730  0839               	movf	i1dtoa@s,w
 10927     1731  1D03               	btfss	3,2
 10928     1732  2F34               	goto	u411_21
 10929     1733  2F35               	goto	u411_20
 10930     1734                     u411_21:
 10931     1734  2F3A               	goto	i1l3035
 10932     1735                     u411_20:
 10933     1735                     i1l3033:
 10934     1735  302B               	movlw	43
 10935     1736  00B3               	movwf	i1_dtoa$616
 10936     1737  3000               	movlw	0
 10937     1738  00B4               	movwf	i1_dtoa$616+1
 10938     1739  2F3E               	goto	i1l684
 10939     173A                     i1l3035:
 10940     173A  302D               	movlw	45
 10941     173B  00B3               	movwf	i1_dtoa$616
 10942     173C  3000               	movlw	0
 10943     173D  00B4               	movwf	i1_dtoa$616+1
 10944     173E                     i1l684:
 10945     173E  0833               	movf	i1_dtoa$616,w
 10946     173F  00B9               	movwf	i1dtoa@s
 10947                           
 10948                           ;C:\Program Files\Microchip\xc8\v2.50\pic\sources\c99\common\doprnt.c: 543:     }
 10949     1740  2F4F               	goto	i1l685
 10950     1741                     i1l678:	
 10951                           ;C:\Program Files\Microchip\xc8\v2.50\pic\sources\c99\common\doprnt.c: 545:  else if (fl
      +                          ags & (1 << 3)) {
 10952                           
 10953     1741  1DDD               	btfss	_flags^(0+128),3
 10954     1742  2F44               	goto	u412_21
 10955     1743  2F45               	goto	u412_20
 10956     1744                     u412_21:
 10957     1744  2F4F               	goto	i1l685
 10958     1745                     u412_20:
 10959     1745                     i1l3037:
 10960                           
 10961                           ;C:\Program Files\Microchip\xc8\v2.50\pic\sources\c99\common\doprnt.c: 546:         --w;
 10962     1745  30FF               	movlw	255
 10963     1746  1283               	bcf	3,5	;RP0=0, select bank0
 10964     1747  1303               	bcf	3,6	;RP1=0, select bank0
 10965     1748  07B7               	addwf	i1dtoa@w,f
 10966     1749  1803               	skipnc
 10967     174A  0AB8               	incf	i1dtoa@w+1,f
 10968     174B  30FF               	movlw	255
 10969     174C  07B8               	addwf	i1dtoa@w+1,f
 10970     174D                     i1l3039:
 10971                           
 10972                           ;C:\Program Files\Microchip\xc8\v2.50\pic\sources\c99\common\doprnt.c: 547:   s = ' ';
 10973     174D  3020               	movlw	32
 10974     174E  00B9               	movwf	i1dtoa@s
 10975     174F                     i1l685:
 10976                           
 10977                           ;C:\Program Files\Microchip\xc8\v2.50\pic\sources\c99\common\doprnt.c: 552:     i = size
      +                          of(dbuf) - 1;
 10978     174F  301F               	movlw	31
 10979     1750  1283               	bcf	3,5	;RP0=0, select bank0
 10980     1751  00BA               	movwf	i1dtoa@i
 10981     1752  3000               	movlw	0
 10982     1753  00BB               	movwf	i1dtoa@i+1
 10983     1754                     i1l3041:
 10984                           
 10985                           ;C:\Program Files\Microchip\xc8\v2.50\pic\sources\c99\common\doprnt.c: 553:     dbuf[i] 
      +                          = '\0';
 10986     1754  1283               	bcf	3,5	;RP0=0, select bank2
 10987     1755  1703               	bsf	3,6	;RP1=1, select bank2
 10988     1756  01AF               	clrf	(_dbuf^(0+256)+31)
 10989                           
 10990                           ;C:\Program Files\Microchip\xc8\v2.50\pic\sources\c99\common\doprnt.c: 554:     while (!
      +                          (i < 1) && (d != 0
 10991     1757  2F9E               	goto	i1l3053
 10992     1758                     i1l3043:
 10993                           
 10994                           ;C:\Program Files\Microchip\xc8\v2.50\pic\sources\c99\common\doprnt.c: 563:     )) {;C:\
      +                          Program Files\Microchip\xc8\v2.50\pic\sources\c99\common\doprnt.c: 564:         --i;
 10995     1758  30FF               	movlw	255
 10996     1759  1283               	bcf	3,5	;RP0=0, select bank0
 10997     175A  1303               	bcf	3,6	;RP1=0, select bank0
 10998     175B  07BA               	addwf	i1dtoa@i,f
 10999     175C  1803               	skipnc
 11000     175D  0ABB               	incf	i1dtoa@i+1,f
 11001     175E  30FF               	movlw	255
 11002     175F  07BB               	addwf	i1dtoa@i+1,f
 11003     1760                     i1l3045:
 11004                           
 11005                           ;C:\Program Files\Microchip\xc8\v2.50\pic\sources\c99\common\doprnt.c: 565:         dbuf
      +                          [i] = (char)((int)'0' + abs(d % 10));
 11006     1760  083A               	movf	i1dtoa@i,w
 11007     1761  3E10               	addlw	(low (_dbuf| (0+256)))& (0+255)
 11008     1762  0084               	movwf	4
 11009     1763  300A               	movlw	10
 11010     1764  00F0               	movwf	i1___awmod@divisor
 11011     1765  3000               	movlw	0
 11012     1766  00F1               	movwf	i1___awmod@divisor+1
 11013     1767  0832               	movf	i1dtoa@d+1,w
 11014     1768  00F3               	movwf	i1___awmod@dividend+1
 11015     1769  0831               	movf	i1dtoa@d,w
 11016     176A  00F2               	movwf	i1___awmod@dividend
 11017     176B  160A  158A  2622  160A  118A  	fcall	i1___awmod
 11018     1770  0871               	movf	?i1___awmod+1,w
 11019     1771  00F7               	movwf	i1abs@a+1
 11020     1772  0870               	movf	?i1___awmod,w
 11021     1773  00F6               	movwf	i1abs@a
 11022     1774  160A  158A  2302  160A  118A  	fcall	i1_abs
 11023     1779  0876               	movf	?i1_abs,w
 11024     177A  3E30               	addlw	48
 11025     177B  1783               	bsf	3,7	;select IRP bank2
 11026     177C  0080               	movwf	0
 11027     177D                     i1l3047:
 11028                           
 11029                           ;C:\Program Files\Microchip\xc8\v2.50\pic\sources\c99\common\doprnt.c: 567:         --p;
 11030     177D  30FF               	movlw	255
 11031     177E  1283               	bcf	3,5	;RP0=0, select bank0
 11032     177F  1303               	bcf	3,6	;RP1=0, select bank0
 11033     1780  07B5               	addwf	i1dtoa@p,f
 11034     1781  1803               	skipnc
 11035     1782  0AB6               	incf	i1dtoa@p+1,f
 11036     1783  30FF               	movlw	255
 11037     1784  07B6               	addwf	i1dtoa@p+1,f
 11038     1785                     i1l3049:
 11039                           
 11040                           ;C:\Program Files\Microchip\xc8\v2.50\pic\sources\c99\common\doprnt.c: 571:         --w;
 11041     1785  30FF               	movlw	255
 11042     1786  07B7               	addwf	i1dtoa@w,f
 11043     1787  1803               	skipnc
 11044     1788  0AB8               	incf	i1dtoa@w+1,f
 11045     1789  30FF               	movlw	255
 11046     178A  07B8               	addwf	i1dtoa@w+1,f
 11047     178B                     i1l3051:
 11048                           
 11049                           ;C:\Program Files\Microchip\xc8\v2.50\pic\sources\c99\common\doprnt.c: 572:         d = 
      +                          d / 10;
 11050     178B  300A               	movlw	10
 11051     178C  00F0               	movwf	i1___awdiv@divisor
 11052     178D  3000               	movlw	0
 11053     178E  00F1               	movwf	i1___awdiv@divisor+1
 11054     178F  0832               	movf	i1dtoa@d+1,w
 11055     1790  00F3               	movwf	i1___awdiv@dividend+1
 11056     1791  0831               	movf	i1dtoa@d,w
 11057     1792  00F2               	movwf	i1___awdiv@dividend
 11058     1793  160A  158A  26D2  160A  118A  	fcall	i1___awdiv
 11059     1798  0871               	movf	?i1___awdiv+1,w
 11060     1799  1283               	bcf	3,5	;RP0=0, select bank0
 11061     179A  1303               	bcf	3,6	;RP1=0, select bank0
 11062     179B  00B2               	movwf	i1dtoa@d+1
 11063     179C  0870               	movf	?i1___awdiv,w
 11064     179D  00B1               	movwf	i1dtoa@d
 11065     179E                     i1l3053:
 11066                           
 11067                           ;C:\Program Files\Microchip\xc8\v2.50\pic\sources\c99\common\doprnt.c: 554:     while (!
      +                          (i < 1) && (d != 0
 11068     179E  1303               	bcf	3,6	;RP1=0, select bank0
 11069     179F  083B               	movf	i1dtoa@i+1,w
 11070     17A0  3A80               	xorlw	128
 11071     17A1  00FF               	movwf	btemp+1
 11072     17A2  3080               	movlw	128
 11073     17A3  027F               	subwf	btemp+1,w
 11074     17A4  1D03               	skipz
 11075     17A5  2FA8               	goto	u413_25
 11076     17A6  3001               	movlw	1
 11077     17A7  023A               	subwf	i1dtoa@i,w
 11078     17A8                     u413_25:
 11079     17A8  1C03               	skipc
 11080     17A9  2FAB               	goto	u413_21
 11081     17AA  2FAC               	goto	u413_20
 11082     17AB                     u413_21:
 11083     17AB  2FD6               	goto	i1l3063
 11084     17AC                     u413_20:
 11085     17AC                     i1l3055:
 11086     17AC  1283               	bcf	3,5	;RP0=0, select bank0
 11087     17AD  1303               	bcf	3,6	;RP1=0, select bank0
 11088     17AE  0831               	movf	i1dtoa@d,w
 11089     17AF  0432               	iorwf	i1dtoa@d+1,w
 11090     17B0  1D03               	btfss	3,2
 11091     17B1  2FB3               	goto	u414_21
 11092     17B2  2FB4               	goto	u414_20
 11093     17B3                     u414_21:
 11094     17B3  2F58               	goto	i1l3043
 11095     17B4                     u414_20:
 11096     17B4                     i1l3057:
 11097     17B4  0836               	movf	i1dtoa@p+1,w
 11098     17B5  3A80               	xorlw	128
 11099     17B6  00FF               	movwf	btemp+1
 11100     17B7  3080               	movlw	128
 11101     17B8  027F               	subwf	btemp+1,w
 11102     17B9  1D03               	skipz
 11103     17BA  2FBD               	goto	u415_25
 11104     17BB  3001               	movlw	1
 11105     17BC  0235               	subwf	i1dtoa@p,w
 11106     17BD                     u415_25:
 11107     17BD  1803               	skipnc
 11108     17BE  2FC0               	goto	u415_21
 11109     17BF  2FC1               	goto	u415_20
 11110     17C0                     u415_21:
 11111     17C0  2F58               	goto	i1l3043
 11112     17C1                     u415_20:
 11113     17C1                     i1l3059:
 11114     17C1  1283               	bcf	3,5	;RP0=0, select bank0
 11115     17C2  1303               	bcf	3,6	;RP1=0, select bank0
 11116     17C3  0838               	movf	i1dtoa@w+1,w
 11117     17C4  3A80               	xorlw	128
 11118     17C5  00FF               	movwf	btemp+1
 11119     17C6  3080               	movlw	128
 11120     17C7  027F               	subwf	btemp+1,w
 11121     17C8  1D03               	skipz
 11122     17C9  2FCC               	goto	u416_25
 11123     17CA  3001               	movlw	1
 11124     17CB  0237               	subwf	i1dtoa@w,w
 11125     17CC                     u416_25:
 11126     17CC  1C03               	skipc
 11127     17CD  2FCF               	goto	u416_21
 11128     17CE  2FD0               	goto	u416_20
 11129     17CF                     u416_21:
 11130     17CF  2FD6               	goto	i1l3063
 11131     17D0                     u416_20:
 11132     17D0                     i1l3061:
 11133     17D0  1683               	bsf	3,5	;RP0=1, select bank1
 11134     17D1  1303               	bcf	3,6	;RP1=0, select bank1
 11135     17D2  18DD               	btfsc	_flags^(0+128),1
 11136     17D3  2FD5               	goto	u417_21
 11137     17D4  2FD6               	goto	u417_20
 11138     17D5                     u417_21:
 11139     17D5  2F58               	goto	i1l3043
 11140     17D6                     u417_20:
 11141     17D6                     i1l3063:
 11142                           
 11143                           ;C:\Program Files\Microchip\xc8\v2.50\pic\sources\c99\common\doprnt.c: 576:     if (s !=
      +                           0) {
 11144     17D6  1283               	bcf	3,5	;RP0=0, select bank0
 11145     17D7  1303               	bcf	3,6	;RP1=0, select bank0
 11146     17D8  0839               	movf	i1dtoa@s,w
 11147     17D9  1903               	btfsc	3,2
 11148     17DA  2FDC               	goto	u418_21
 11149     17DB  2FDD               	goto	u418_20
 11150     17DC                     u418_21:
 11151     17DC  2FE9               	goto	i1l3069
 11152     17DD                     u418_20:
 11153     17DD                     i1l3065:
 11154                           
 11155                           ;C:\Program Files\Microchip\xc8\v2.50\pic\sources\c99\common\doprnt.c: 577:         --i;
 11156     17DD  30FF               	movlw	255
 11157     17DE  07BA               	addwf	i1dtoa@i,f
 11158     17DF  1803               	skipnc
 11159     17E0  0ABB               	incf	i1dtoa@i+1,f
 11160     17E1  30FF               	movlw	255
 11161     17E2  07BB               	addwf	i1dtoa@i+1,f
 11162     17E3                     i1l3067:
 11163                           
 11164                           ;C:\Program Files\Microchip\xc8\v2.50\pic\sources\c99\common\doprnt.c: 578:         dbuf
      +                          [i] = s;
 11165     17E3  083A               	movf	i1dtoa@i,w
 11166     17E4  3E10               	addlw	(low (_dbuf| (0+256)))& (0+255)
 11167     17E5  0084               	movwf	4
 11168     17E6  0839               	movf	i1dtoa@s,w
 11169     17E7  1783               	bsf	3,7	;select IRP bank2
 11170     17E8  0080               	movwf	0
 11171     17E9                     i1l3069:
 11172                           
 11173                           ;C:\Program Files\Microchip\xc8\v2.50\pic\sources\c99\common\doprnt.c: 582:     return (
      +                          int) pad(fp, &dbuf[i], w);
 11174     17E9  082F               	movf	i1dtoa@fp,w
 11175     17EA  00A8               	movwf	i1pad@fp
 11176     17EB  0830               	movf	i1dtoa@fp+1,w
 11177     17EC  00A9               	movwf	i1pad@fp+1
 11178     17ED  083A               	movf	i1dtoa@i,w
 11179     17EE  3E10               	addlw	(low (_dbuf| (0+256)))& (0+255)
 11180     17EF  00AA               	movwf	i1pad@buf
 11181     17F0  0838               	movf	i1dtoa@w+1,w
 11182     17F1  00AC               	movwf	i1pad@p+1
 11183     17F2  0837               	movf	i1dtoa@w,w
 11184     17F3  00AB               	movwf	i1pad@p
 11185     17F4  160A  118A  2077  160A  118A  	fcall	i1_pad
 11186     17F9  1283               	bcf	3,5	;RP0=0, select bank0
 11187     17FA  1303               	bcf	3,6	;RP1=0, select bank0
 11188     17FB  0829               	movf	?i1_pad+1,w
 11189     17FC  00B0               	movwf	?i1_dtoa+1
 11190     17FD  0828               	movf	?i1_pad,w
 11191     17FE  00AF               	movwf	?i1_dtoa
 11192     17FF                     i1l695:
 11193     17FF  0008               	return
 11194     1800                     __end_ofi1_dtoa:
 11195                           
 11196                           	psect	text34
 11197     1077                     __ptext34:	
 11198 ;; *************** function i1_pad *****************
 11199 ;; Defined at:
 11200 ;;		line 193 in file "C:\Program Files\Microchip\xc8\v2.50\pic\sources\c99\common\doprnt.c"
 11201 ;; Parameters:    Size  Location     Type
 11202 ;;  fp              2    8[BANK0 ] PTR struct _IO_FILE
 11203 ;;		 -> i1sprintf@f(11), sprintf@f(11), 
 11204 ;;  buf             1   10[BANK0 ] PTR unsigned char 
 11205 ;;		 -> dbuf(32), 
 11206 ;;  p               2   11[BANK0 ] int 
 11207 ;; Auto vars:     Size  Location     Type
 11208 ;;  i               2   13[BANK0 ] int 
 11209 ;; Return value:  Size  Location     Type
 11210 ;;                  2    8[BANK0 ] int 
 11211 ;; Registers used:
 11212 ;;		wreg, fsr0l, fsr0h, status,2, status,0, pclath, cstack
 11213 ;; Tracked objects:
 11214 ;;		On entry : 0/0
 11215 ;;		On exit  : 0/0
 11216 ;;		Unchanged: 0/0
 11217 ;; Data sizes:     COMMON   BANK0   BANK1   BANK3   BANK2
 11218 ;;      Params:         0       5       0       0       0
 11219 ;;      Locals:         0       2       0       0       0
 11220 ;;      Temps:          1       0       0       0       0
 11221 ;;      Totals:         1       7       0       0       0
 11222 ;;Total ram usage:        8 bytes
 11223 ;; Hardware stack levels used: 1
 11224 ;; Hardware stack levels required when called: 3
 11225 ;; This function calls:
 11226 ;;		i1_fputc
 11227 ;;		i1_fputs
 11228 ;;		i1_strlen
 11229 ;; This function is called by:
 11230 ;;		i1_dtoa
 11231 ;;		i1_otoa
 11232 ;;		i1_utoa
 11233 ;;		i1_xtoa
 11234 ;; This function uses a non-reentrant model
 11235 ;;
 11236                           
 11237     1077                     i1_pad:	
 11238                           ;psect for function i1_pad
 11239                           
 11240     1077                     i1l2697:	
 11241                           ;incstack = 0
 11242 ;; hardware stack exceeded
 11243                           ; Regs used in i1_pad: [wreg-fsr0h+status,2+status,0+pclath+cstack]
 11244                           
 11245                           
 11246                           ;C:\Program Files\Microchip\xc8\v2.50\pic\sources\c99\common\doprnt.c: 193: static int p
      +                          ad(FILE *fp, char *buf, int p);C:\Program Files\Microchip\xc8\v2.50\pic\sources\c99\comm
      +                          on\doprnt.c: 194: {;C:\Program Files\Microchip\xc8\v2.50\pic\sources\c99\common\doprnt.c
      +                          : 195:     int i;;C:\Program Files\Microchip\xc8\v2.50\pic\sources\c99\common\doprnt.c: 
      +                          199:     if (flags & (1 << 0)) {
 11247     1077  1683               	bsf	3,5	;RP0=1, select bank1
 11248     1078  1303               	bcf	3,6	;RP1=0, select bank1
 11249     1079  1C5D               	btfss	_flags^(0+128),0
 11250     107A  287C               	goto	u341_21
 11251     107B  287D               	goto	u341_20
 11252     107C                     u341_21:
 11253     107C  288A               	goto	i1l2701
 11254     107D                     u341_20:
 11255     107D                     i1l2699:
 11256                           
 11257                           ;C:\Program Files\Microchip\xc8\v2.50\pic\sources\c99\common\doprnt.c: 200:         fput
      +                          s((const char *)buf, fp);
 11258     107D  1283               	bcf	3,5	;RP0=0, select bank0
 11259     107E  1303               	bcf	3,6	;RP1=0, select bank0
 11260     107F  082A               	movf	i1pad@buf,w
 11261     1080  00A0               	movwf	i1fputs@s
 11262     1081  0828               	movf	i1pad@fp,w
 11263     1082  00A1               	movwf	i1fputs@fp
 11264     1083  0829               	movf	i1pad@fp+1,w
 11265     1084  00A2               	movwf	i1fputs@fp+1
 11266     1085  160A  158A  23BF  160A  118A  	fcall	i1_fputs
 11267     108A                     i1l2701:
 11268                           
 11269                           ;C:\Program Files\Microchip\xc8\v2.50\pic\sources\c99\common\doprnt.c: 205:  if (p < 0) 
      +                          {
 11270     108A  1283               	bcf	3,5	;RP0=0, select bank0
 11271     108B  1303               	bcf	3,6	;RP1=0, select bank0
 11272     108C  1FAC               	btfss	i1pad@p+1,7
 11273     108D  288F               	goto	u342_21
 11274     108E  2890               	goto	u342_20
 11275     108F                     u342_21:
 11276     108F  2892               	goto	i1l649
 11277     1090                     u342_20:
 11278     1090                     i1l2703:
 11279                           
 11280                           ;C:\Program Files\Microchip\xc8\v2.50\pic\sources\c99\common\doprnt.c: 206:   p = 0;
 11281     1090  01AB               	clrf	i1pad@p
 11282     1091  01AC               	clrf	i1pad@p+1
 11283     1092                     i1l649:	
 11284                           ;C:\Program Files\Microchip\xc8\v2.50\pic\sources\c99\common\doprnt.c: 207:  }
 11285                           
 11286                           
 11287                           ;C:\Program Files\Microchip\xc8\v2.50\pic\sources\c99\common\doprnt.c: 208:     i = 0;
 11288     1092  01AD               	clrf	i1pad@i
 11289     1093  01AE               	clrf	i1pad@i+1
 11290                           
 11291                           ;C:\Program Files\Microchip\xc8\v2.50\pic\sources\c99\common\doprnt.c: 209:     while (i
      +                           < p) {
 11292     1094  28AC               	goto	i1l2709
 11293     1095                     i1l2705:
 11294                           
 11295                           ;C:\Program Files\Microchip\xc8\v2.50\pic\sources\c99\common\doprnt.c: 210:         fput
      +                          c(' ', fp);
 11296     1095  3020               	movlw	32
 11297     1096  00F0               	movwf	i1fputc@c
 11298     1097  3000               	movlw	0
 11299     1098  00F1               	movwf	i1fputc@c+1
 11300     1099  1283               	bcf	3,5	;RP0=0, select bank0
 11301     109A  1303               	bcf	3,6	;RP1=0, select bank0
 11302     109B  0828               	movf	i1pad@fp,w
 11303     109C  00F2               	movwf	i1fputc@fp
 11304     109D  0829               	movf	i1pad@fp+1,w
 11305     109E  00F3               	movwf	i1fputc@fp+1
 11306     109F  160A  118A  22E3  160A  118A  	fcall	i1_fputc
 11307     10A4                     i1l2707:
 11308                           
 11309                           ;C:\Program Files\Microchip\xc8\v2.50\pic\sources\c99\common\doprnt.c: 211:         ++i;
 11310     10A4  3001               	movlw	1
 11311     10A5  1283               	bcf	3,5	;RP0=0, select bank0
 11312     10A6  1303               	bcf	3,6	;RP1=0, select bank0
 11313     10A7  07AD               	addwf	i1pad@i,f
 11314     10A8  1803               	skipnc
 11315     10A9  0AAE               	incf	i1pad@i+1,f
 11316     10AA  3000               	movlw	0
 11317     10AB  07AE               	addwf	i1pad@i+1,f
 11318     10AC                     i1l2709:
 11319                           
 11320                           ;C:\Program Files\Microchip\xc8\v2.50\pic\sources\c99\common\doprnt.c: 209:     while (i
      +                           < p) {
 11321     10AC  082E               	movf	i1pad@i+1,w
 11322     10AD  3A80               	xorlw	128
 11323     10AE  00FD               	movwf	??i1_pad
 11324     10AF  082C               	movf	i1pad@p+1,w
 11325     10B0  3A80               	xorlw	128
 11326     10B1  027D               	subwf	??i1_pad,w
 11327     10B2  1D03               	skipz
 11328     10B3  28B6               	goto	u343_25
 11329     10B4  082B               	movf	i1pad@p,w
 11330     10B5  022D               	subwf	i1pad@i,w
 11331     10B6                     u343_25:
 11332     10B6  1C03               	skipc
 11333     10B7  28B9               	goto	u343_21
 11334     10B8  28BA               	goto	u343_20
 11335     10B9                     u343_21:
 11336     10B9  2895               	goto	i1l2705
 11337     10BA                     u343_20:
 11338     10BA                     i1l652:
 11339                           
 11340                           ;C:\Program Files\Microchip\xc8\v2.50\pic\sources\c99\common\doprnt.c: 216:     if (!(fl
      +                          ags & (1 << 0))) {
 11341     10BA  1683               	bsf	3,5	;RP0=1, select bank1
 11342     10BB  1303               	bcf	3,6	;RP1=0, select bank1
 11343     10BC  185D               	btfsc	_flags^(0+128),0
 11344     10BD  28BF               	goto	u344_21
 11345     10BE  28C0               	goto	u344_20
 11346     10BF                     u344_21:
 11347     10BF  28CD               	goto	i1l653
 11348     10C0                     u344_20:
 11349     10C0                     i1l2711:
 11350                           
 11351                           ;C:\Program Files\Microchip\xc8\v2.50\pic\sources\c99\common\doprnt.c: 218:         fput
      +                          s((const char *)buf, fp);
 11352     10C0  1283               	bcf	3,5	;RP0=0, select bank0
 11353     10C1  1303               	bcf	3,6	;RP1=0, select bank0
 11354     10C2  082A               	movf	i1pad@buf,w
 11355     10C3  00A0               	movwf	i1fputs@s
 11356     10C4  0828               	movf	i1pad@fp,w
 11357     10C5  00A1               	movwf	i1fputs@fp
 11358     10C6  0829               	movf	i1pad@fp+1,w
 11359     10C7  00A2               	movwf	i1fputs@fp+1
 11360     10C8  160A  158A  23BF  160A  118A  	fcall	i1_fputs
 11361     10CD                     i1l653:	
 11362                           ;C:\Program Files\Microchip\xc8\v2.50\pic\sources\c99\common\doprnt.c: 220:     }
 11363                           
 11364                           
 11365                           ;C:\Program Files\Microchip\xc8\v2.50\pic\sources\c99\common\doprnt.c: 224:     return (
      +                          int)(strlen(buf) + (size_t)p);
 11366     10CD  1283               	bcf	3,5	;RP0=0, select bank0
 11367     10CE  1303               	bcf	3,6	;RP1=0, select bank0
 11368     10CF  082A               	movf	i1pad@buf,w
 11369     10D0  00F0               	movwf	i1strlen@s
 11370     10D1  160A  158A  2326  160A  118A  	fcall	i1_strlen
 11371     10D6  1283               	bcf	3,5	;RP0=0, select bank0
 11372     10D7  1303               	bcf	3,6	;RP1=0, select bank0
 11373     10D8  082B               	movf	i1pad@p,w
 11374     10D9  0770               	addwf	?i1_strlen,w
 11375     10DA  00A8               	movwf	?i1_pad
 11376     10DB  082C               	movf	i1pad@p+1,w
 11377     10DC  1803               	skipnc
 11378     10DD  0A2C               	incf	i1pad@p+1,w
 11379     10DE  0771               	addwf	?i1_strlen+1,w
 11380     10DF  00A9               	movwf	?i1_pad+1
 11381     10E0                     i1l654:
 11382     10E0  0008               	return
 11383     10E1                     __end_ofi1_pad:
 11384                           
 11385                           	psect	text35
 11386     1B26                     __ptext35:	
 11387 ;; *************** function i1_strlen *****************
 11388 ;; Defined at:
 11389 ;;		line 5 in file "C:\Program Files\Microchip\xc8\v2.50\pic\sources\c99\common\strlen.c"
 11390 ;; Parameters:    Size  Location     Type
 11391 ;;  s               1    0[COMMON] PTR const unsigned char 
 11392 ;;		 -> dbuf(32), 
 11393 ;; Auto vars:     Size  Location     Type
 11394 ;;  a               1    2[COMMON] PTR const unsigned char 
 11395 ;;		 -> dbuf(32), 
 11396 ;; Return value:  Size  Location     Type
 11397 ;;                  2    0[COMMON] unsigned int 
 11398 ;; Registers used:
 11399 ;;		wreg, fsr0l, fsr0h, status,2, status,0
 11400 ;; Tracked objects:
 11401 ;;		On entry : 0/0
 11402 ;;		On exit  : 0/0
 11403 ;;		Unchanged: 0/0
 11404 ;; Data sizes:     COMMON   BANK0   BANK1   BANK3   BANK2
 11405 ;;      Params:         2       0       0       0       0
 11406 ;;      Locals:         1       0       0       0       0
 11407 ;;      Temps:          0       0       0       0       0
 11408 ;;      Totals:         3       0       0       0       0
 11409 ;;Total ram usage:        3 bytes
 11410 ;; Hardware stack levels used: 1
 11411 ;; This function calls:
 11412 ;;		Nothing
 11413 ;; This function is called by:
 11414 ;;		i1_pad
 11415 ;; This function uses a non-reentrant model
 11416 ;;
 11417                           
 11418     1B26                     i1_strlen:	
 11419                           ;psect for function i1_strlen
 11420                           
 11421     1B26                     i1l2373:	
 11422                           ;incstack = 0
 11423 ;; hardware stack exceeded
 11424                           ; Regs used in i1_strlen: [wreg-fsr0h+status,2+status,0]
 11425                           
 11426     1B26  0870               	movf	i1strlen@s,w
 11427     1B27  00F2               	movwf	i1strlen@a
 11428     1B28  2B2B               	goto	i1l2377
 11429     1B29                     i1l2375:
 11430     1B29  3001               	movlw	1
 11431     1B2A  07F0               	addwf	i1strlen@s,f
 11432     1B2B                     i1l2377:
 11433     1B2B  0870               	movf	i1strlen@s,w
 11434     1B2C  0084               	movwf	4
 11435     1B2D  1783               	bsf	3,7	;select IRP bank2
 11436     1B2E  0800               	movf	0,w
 11437     1B2F  1D03               	btfss	3,2
 11438     1B30  2B32               	goto	u263_21
 11439     1B31  2B33               	goto	u263_20
 11440     1B32                     u263_21:
 11441     1B32  2B29               	goto	i1l2375
 11442     1B33                     u263_20:
 11443     1B33                     i1l2379:
 11444     1B33  0872               	movf	i1strlen@a,w
 11445     1B34  0270               	subwf	i1strlen@s,w
 11446     1B35  00F0               	movwf	?i1_strlen
 11447     1B36  01F1               	clrf	?i1_strlen+1
 11448     1B37  1BF0               	btfsc	?i1_strlen,7
 11449     1B38  03F1               	decf	?i1_strlen+1,f
 11450     1B39                     i1l869:
 11451     1B39  0008               	return
 11452     1B3A                     __end_ofi1_strlen:
 11453                           
 11454                           	psect	text36
 11455     1BBF                     __ptext36:	
 11456 ;; *************** function i1_fputs *****************
 11457 ;; Defined at:
 11458 ;;		line 8 in file "C:\Program Files\Microchip\xc8\v2.50\pic\sources\c99\common\nf_fputs.c"
 11459 ;; Parameters:    Size  Location     Type
 11460 ;;  s               1    0[BANK0 ] PTR const unsigned char 
 11461 ;;		 -> dbuf(32), 
 11462 ;;  fp              2    1[BANK0 ] PTR struct _IO_FILE
 11463 ;;		 -> i1sprintf@f(11), sprintf@f(11), 
 11464 ;; Auto vars:     Size  Location     Type
 11465 ;;  i               2    6[BANK0 ] int 
 11466 ;;  c               1    5[BANK0 ] unsigned char 
 11467 ;; Return value:  Size  Location     Type
 11468 ;;                  2    0[BANK0 ] int 
 11469 ;; Registers used:
 11470 ;;		wreg, fsr0l, fsr0h, status,2, status,0, pclath, cstack
 11471 ;; Tracked objects:
 11472 ;;		On entry : 0/0
 11473 ;;		On exit  : 0/0
 11474 ;;		Unchanged: 0/0
 11475 ;; Data sizes:     COMMON   BANK0   BANK1   BANK3   BANK2
 11476 ;;      Params:         0       3       0       0       0
 11477 ;;      Locals:         0       3       0       0       0
 11478 ;;      Temps:          0       2       0       0       0
 11479 ;;      Totals:         0       8       0       0       0
 11480 ;;Total ram usage:        8 bytes
 11481 ;; Hardware stack levels used: 1
 11482 ;; Hardware stack levels required when called: 2
 11483 ;; This function calls:
 11484 ;;		i1_fputc
 11485 ;; This function is called by:
 11486 ;;		i1_pad
 11487 ;; This function uses a non-reentrant model
 11488 ;;
 11489                           
 11490     1BBF                     i1_fputs:	
 11491                           ;psect for function i1_fputs
 11492                           
 11493     1BBF                     i1l2365:	
 11494                           ;incstack = 0
 11495 ;; hardware stack exceeded
 11496                           ; Regs used in i1_fputs: [wreg-fsr0h+status,2+status,0+pclath+cstack]
 11497                           
 11498     1BBF  1283               	bcf	3,5	;RP0=0, select bank0
 11499     1BC0  1303               	bcf	3,6	;RP1=0, select bank0
 11500     1BC1  01A6               	clrf	i1fputs@i
 11501     1BC2  01A7               	clrf	i1fputs@i+1
 11502     1BC3  2BDC               	goto	i1l2371
 11503     1BC4                     i1l2367:
 11504     1BC4  0825               	movf	i1fputs@c,w
 11505     1BC5  00A3               	movwf	??i1_fputs
 11506     1BC6  01A4               	clrf	??i1_fputs+1
 11507     1BC7  0823               	movf	??i1_fputs,w
 11508     1BC8  00F0               	movwf	i1fputc@c
 11509     1BC9  0824               	movf	??i1_fputs+1,w
 11510     1BCA  00F1               	movwf	i1fputc@c+1
 11511     1BCB  0821               	movf	i1fputs@fp,w
 11512     1BCC  00F2               	movwf	i1fputc@fp
 11513     1BCD  0822               	movf	i1fputs@fp+1,w
 11514     1BCE  00F3               	movwf	i1fputc@fp+1
 11515     1BCF  160A  118A  22E3  160A  158A  	fcall	i1_fputc
 11516     1BD4                     i1l2369:
 11517     1BD4  3001               	movlw	1
 11518     1BD5  1283               	bcf	3,5	;RP0=0, select bank0
 11519     1BD6  1303               	bcf	3,6	;RP1=0, select bank0
 11520     1BD7  07A6               	addwf	i1fputs@i,f
 11521     1BD8  1803               	skipnc
 11522     1BD9  0AA7               	incf	i1fputs@i+1,f
 11523     1BDA  3000               	movlw	0
 11524     1BDB  07A7               	addwf	i1fputs@i+1,f
 11525     1BDC                     i1l2371:
 11526     1BDC  0826               	movf	i1fputs@i,w
 11527     1BDD  0720               	addwf	i1fputs@s,w
 11528     1BDE  00A3               	movwf	??i1_fputs
 11529     1BDF  0823               	movf	??i1_fputs,w
 11530     1BE0  0084               	movwf	4
 11531     1BE1  1783               	bsf	3,7	;select IRP bank2
 11532     1BE2  0800               	movf	0,w
 11533     1BE3  00A5               	movwf	i1fputs@c
 11534     1BE4  0825               	movf	i1fputs@c,w
 11535     1BE5  1D03               	btfss	3,2
 11536     1BE6  2BE8               	goto	u262_21
 11537     1BE7  2BE9               	goto	u262_20
 11538     1BE8                     u262_21:
 11539     1BE8  2BC4               	goto	i1l2367
 11540     1BE9                     u262_20:
 11541     1BE9                     i1l860:
 11542     1BE9  0008               	return
 11543     1BEA                     __end_ofi1_fputs:
 11544                           
 11545                           	psect	text37
 11546     1B02                     __ptext37:	
 11547 ;; *************** function i1_abs *****************
 11548 ;; Defined at:
 11549 ;;		line 1 in file "C:\Program Files\Microchip\xc8\v2.50\pic\sources\c99\common\abs.c"
 11550 ;; Parameters:    Size  Location     Type
 11551 ;;  a               2    6[COMMON] int 
 11552 ;; Auto vars:     Size  Location     Type
 11553 ;;		None
 11554 ;; Return value:  Size  Location     Type
 11555 ;;                  2    6[COMMON] int 
 11556 ;; Registers used:
 11557 ;;		wreg, status,2, status,0
 11558 ;; Tracked objects:
 11559 ;;		On entry : 0/0
 11560 ;;		On exit  : 0/0
 11561 ;;		Unchanged: 0/0
 11562 ;; Data sizes:     COMMON   BANK0   BANK1   BANK3   BANK2
 11563 ;;      Params:         2       0       0       0       0
 11564 ;;      Locals:         0       0       0       0       0
 11565 ;;      Temps:          2       0       0       0       0
 11566 ;;      Totals:         4       0       0       0       0
 11567 ;;Total ram usage:        4 bytes
 11568 ;; Hardware stack levels used: 1
 11569 ;; This function calls:
 11570 ;;		Nothing
 11571 ;; This function is called by:
 11572 ;;		i1_dtoa
 11573 ;; This function uses a non-reentrant model
 11574 ;;
 11575                           
 11576     1B02                     i1_abs:	
 11577                           ;psect for function i1_abs
 11578                           
 11579     1B02                     i1l2715:	
 11580                           ;incstack = 0
 11581 ;; hardware stack exceeded
 11582                           ; Regs used in i1_abs: [wreg+status,2+status,0]
 11583                           
 11584     1B02  1BF7               	btfsc	i1abs@a+1,7
 11585     1B03  2B05               	goto	u345_21
 11586     1B04  2B06               	goto	u345_20
 11587     1B05                     u345_21:
 11588     1B05  2B07               	goto	i1l2719
 11589     1B06                     u345_20:
 11590     1B06                     i1l2717:
 11591     1B06  2B12               	goto	i1l840
 11592     1B07                     i1l2719:
 11593     1B07  0976               	comf	i1abs@a,w
 11594     1B08  00F8               	movwf	??i1_abs
 11595     1B09  0977               	comf	i1abs@a+1,w
 11596     1B0A  00F9               	movwf	??i1_abs+1
 11597     1B0B  0AF8               	incf	??i1_abs,f
 11598     1B0C  1903               	skipnz
 11599     1B0D  0AF9               	incf	??i1_abs+1,f
 11600     1B0E  0878               	movf	??i1_abs,w
 11601     1B0F  00F6               	movwf	?i1_abs
 11602     1B10  0879               	movf	??i1_abs+1,w
 11603     1B11  00F7               	movwf	?i1_abs+1
 11604     1B12                     i1l840:
 11605     1B12  0008               	return
 11606     1B13                     __end_ofi1_abs:
 11607                           
 11608                           	psect	text38
 11609     1E22                     __ptext38:	
 11610 ;; *************** function i1___awmod *****************
 11611 ;; Defined at:
 11612 ;;		line 5 in file "C:\Program Files\Microchip\xc8\v2.50\pic\sources\c99\common\awmod.c"
 11613 ;; Parameters:    Size  Location     Type
 11614 ;;  divisor         2    0[COMMON] int 
 11615 ;;  dividend        2    2[COMMON] int 
 11616 ;; Auto vars:     Size  Location     Type
 11617 ;;  sign            1    5[COMMON] unsigned char 
 11618 ;;  counter         1    4[COMMON] unsigned char 
 11619 ;; Return value:  Size  Location     Type
 11620 ;;                  2    0[COMMON] int 
 11621 ;; Registers used:
 11622 ;;		wreg, status,2, status,0
 11623 ;; Tracked objects:
 11624 ;;		On entry : 0/0
 11625 ;;		On exit  : 0/0
 11626 ;;		Unchanged: 0/0
 11627 ;; Data sizes:     COMMON   BANK0   BANK1   BANK3   BANK2
 11628 ;;      Params:         4       0       0       0       0
 11629 ;;      Locals:         2       0       0       0       0
 11630 ;;      Temps:          0       0       0       0       0
 11631 ;;      Totals:         6       0       0       0       0
 11632 ;;Total ram usage:        6 bytes
 11633 ;; Hardware stack levels used: 1
 11634 ;; This function calls:
 11635 ;;		Nothing
 11636 ;; This function is called by:
 11637 ;;		i1_dtoa
 11638 ;; This function uses a non-reentrant model
 11639 ;;
 11640                           
 11641     1E22                     i1___awmod:	
 11642                           ;psect for function i1___awmod
 11643                           
 11644     1E22                     i1l2611:	
 11645                           ;incstack = 0
 11646 ;; hardware stack exceeded
 11647                           ; Regs used in i1___awmod: [wreg+status,2+status,0]
 11648                           
 11649     1E22  01F5               	clrf	i1___awmod@sign
 11650     1E23                     i1l2613:
 11651     1E23  1FF3               	btfss	i1___awmod@dividend+1,7
 11652     1E24  2E26               	goto	u319_21
 11653     1E25  2E27               	goto	u319_20
 11654     1E26                     u319_21:
 11655     1E26  2E2E               	goto	i1l2619
 11656     1E27                     u319_20:
 11657     1E27                     i1l2615:
 11658     1E27  09F2               	comf	i1___awmod@dividend,f
 11659     1E28  09F3               	comf	i1___awmod@dividend+1,f
 11660     1E29  0AF2               	incf	i1___awmod@dividend,f
 11661     1E2A  1903               	skipnz
 11662     1E2B  0AF3               	incf	i1___awmod@dividend+1,f
 11663     1E2C                     i1l2617:
 11664     1E2C  3001               	movlw	1
 11665     1E2D  00F5               	movwf	i1___awmod@sign
 11666     1E2E                     i1l2619:
 11667     1E2E  1FF1               	btfss	i1___awmod@divisor+1,7
 11668     1E2F  2E31               	goto	u320_21
 11669     1E30  2E32               	goto	u320_20
 11670     1E31                     u320_21:
 11671     1E31  2E37               	goto	i1l2623
 11672     1E32                     u320_20:
 11673     1E32                     i1l2621:
 11674     1E32  09F0               	comf	i1___awmod@divisor,f
 11675     1E33  09F1               	comf	i1___awmod@divisor+1,f
 11676     1E34  0AF0               	incf	i1___awmod@divisor,f
 11677     1E35  1903               	skipnz
 11678     1E36  0AF1               	incf	i1___awmod@divisor+1,f
 11679     1E37                     i1l2623:
 11680     1E37  0870               	movf	i1___awmod@divisor,w
 11681     1E38  0471               	iorwf	i1___awmod@divisor+1,w
 11682     1E39  1903               	btfsc	3,2
 11683     1E3A  2E3C               	goto	u321_21
 11684     1E3B  2E3D               	goto	u321_20
 11685     1E3C                     u321_21:
 11686     1E3C  2E6A               	goto	i1l2641
 11687     1E3D                     u321_20:
 11688     1E3D                     i1l2625:
 11689     1E3D  3001               	movlw	1
 11690     1E3E  00F4               	movwf	i1___awmod@counter
 11691     1E3F  2E49               	goto	i1l2631
 11692     1E40                     i1l2627:
 11693     1E40  3001               	movlw	1
 11694     1E41                     u322_25:
 11695     1E41  1003               	clrc
 11696     1E42  0DF0               	rlf	i1___awmod@divisor,f
 11697     1E43  0DF1               	rlf	i1___awmod@divisor+1,f
 11698     1E44  3EFF               	addlw	-1
 11699     1E45  1D03               	skipz
 11700     1E46  2E41               	goto	u322_25
 11701     1E47                     i1l2629:
 11702     1E47  3001               	movlw	1
 11703     1E48  07F4               	addwf	i1___awmod@counter,f
 11704     1E49                     i1l2631:
 11705     1E49  1FF1               	btfss	i1___awmod@divisor+1,7
 11706     1E4A  2E4C               	goto	u323_21
 11707     1E4B  2E4D               	goto	u323_20
 11708     1E4C                     u323_21:
 11709     1E4C  2E40               	goto	i1l2627
 11710     1E4D                     u323_20:
 11711     1E4D                     i1l2633:
 11712     1E4D  0871               	movf	i1___awmod@divisor+1,w
 11713     1E4E  0273               	subwf	i1___awmod@dividend+1,w
 11714     1E4F  1D03               	skipz
 11715     1E50  2E53               	goto	u324_25
 11716     1E51  0870               	movf	i1___awmod@divisor,w
 11717     1E52  0272               	subwf	i1___awmod@dividend,w
 11718     1E53                     u324_25:
 11719     1E53  1C03               	skipc
 11720     1E54  2E56               	goto	u324_21
 11721     1E55  2E57               	goto	u324_20
 11722     1E56                     u324_21:
 11723     1E56  2E5D               	goto	i1l2637
 11724     1E57                     u324_20:
 11725     1E57                     i1l2635:
 11726     1E57  0870               	movf	i1___awmod@divisor,w
 11727     1E58  02F2               	subwf	i1___awmod@dividend,f
 11728     1E59  0871               	movf	i1___awmod@divisor+1,w
 11729     1E5A  1C03               	skipc
 11730     1E5B  03F3               	decf	i1___awmod@dividend+1,f
 11731     1E5C  02F3               	subwf	i1___awmod@dividend+1,f
 11732     1E5D                     i1l2637:
 11733     1E5D  3001               	movlw	1
 11734     1E5E                     u325_25:
 11735     1E5E  1003               	clrc
 11736     1E5F  0CF1               	rrf	i1___awmod@divisor+1,f
 11737     1E60  0CF0               	rrf	i1___awmod@divisor,f
 11738     1E61  3EFF               	addlw	-1
 11739     1E62  1D03               	skipz
 11740     1E63  2E5E               	goto	u325_25
 11741     1E64                     i1l2639:
 11742     1E64  3001               	movlw	1
 11743     1E65  02F4               	subwf	i1___awmod@counter,f
 11744     1E66  1D03               	btfss	3,2
 11745     1E67  2E69               	goto	u326_21
 11746     1E68  2E6A               	goto	u326_20
 11747     1E69                     u326_21:
 11748     1E69  2E4D               	goto	i1l2633
 11749     1E6A                     u326_20:
 11750     1E6A                     i1l2641:
 11751     1E6A  0875               	movf	i1___awmod@sign,w
 11752     1E6B  1903               	btfsc	3,2
 11753     1E6C  2E6E               	goto	u327_21
 11754     1E6D  2E6F               	goto	u327_20
 11755     1E6E                     u327_21:
 11756     1E6E  2E74               	goto	i1l2645
 11757     1E6F                     u327_20:
 11758     1E6F                     i1l2643:
 11759     1E6F  09F2               	comf	i1___awmod@dividend,f
 11760     1E70  09F3               	comf	i1___awmod@dividend+1,f
 11761     1E71  0AF2               	incf	i1___awmod@dividend,f
 11762     1E72  1903               	skipnz
 11763     1E73  0AF3               	incf	i1___awmod@dividend+1,f
 11764     1E74                     i1l2645:
 11765     1E74  0873               	movf	i1___awmod@dividend+1,w
 11766     1E75  00F1               	movwf	?i1___awmod+1
 11767     1E76  0872               	movf	i1___awmod@dividend,w
 11768     1E77  00F0               	movwf	?i1___awmod
 11769     1E78                     i1l328:
 11770     1E78  0008               	return
 11771     1E79                     __end_ofi1___awmod:
 11772                           
 11773                           	psect	text39
 11774     1ED2                     __ptext39:	
 11775 ;; *************** function i1___awdiv *****************
 11776 ;; Defined at:
 11777 ;;		line 5 in file "C:\Program Files\Microchip\xc8\v2.50\pic\sources\c99\common\awdiv.c"
 11778 ;; Parameters:    Size  Location     Type
 11779 ;;  divisor         2    0[COMMON] int 
 11780 ;;  dividend        2    2[COMMON] int 
 11781 ;; Auto vars:     Size  Location     Type
 11782 ;;  quotient        2    6[COMMON] int 
 11783 ;;  sign            1    5[COMMON] unsigned char 
 11784 ;;  counter         1    4[COMMON] unsigned char 
 11785 ;; Return value:  Size  Location     Type
 11786 ;;                  2    0[COMMON] int 
 11787 ;; Registers used:
 11788 ;;		wreg, status,2, status,0
 11789 ;; Tracked objects:
 11790 ;;		On entry : 0/0
 11791 ;;		On exit  : 0/0
 11792 ;;		Unchanged: 0/0
 11793 ;; Data sizes:     COMMON   BANK0   BANK1   BANK3   BANK2
 11794 ;;      Params:         4       0       0       0       0
 11795 ;;      Locals:         4       0       0       0       0
 11796 ;;      Temps:          0       0       0       0       0
 11797 ;;      Totals:         8       0       0       0       0
 11798 ;;Total ram usage:        8 bytes
 11799 ;; Hardware stack levels used: 1
 11800 ;; This function calls:
 11801 ;;		Nothing
 11802 ;; This function is called by:
 11803 ;;		i1_dtoa
 11804 ;; This function uses a non-reentrant model
 11805 ;;
 11806                           
 11807     1ED2                     i1___awdiv:	
 11808                           ;psect for function i1___awdiv
 11809                           
 11810     1ED2                     i1l2567:	
 11811                           ;incstack = 0
 11812 ;; hardware stack exceeded
 11813                           ; Regs used in i1___awdiv: [wreg+status,2+status,0]
 11814                           
 11815     1ED2  01F5               	clrf	i1___awdiv@sign
 11816     1ED3                     i1l2569:
 11817     1ED3  1FF1               	btfss	i1___awdiv@divisor+1,7
 11818     1ED4  2ED6               	goto	u309_21
 11819     1ED5  2ED7               	goto	u309_20
 11820     1ED6                     u309_21:
 11821     1ED6  2EDE               	goto	i1l2575
 11822     1ED7                     u309_20:
 11823     1ED7                     i1l2571:
 11824     1ED7  09F0               	comf	i1___awdiv@divisor,f
 11825     1ED8  09F1               	comf	i1___awdiv@divisor+1,f
 11826     1ED9  0AF0               	incf	i1___awdiv@divisor,f
 11827     1EDA  1903               	skipnz
 11828     1EDB  0AF1               	incf	i1___awdiv@divisor+1,f
 11829     1EDC                     i1l2573:
 11830     1EDC  3001               	movlw	1
 11831     1EDD  00F5               	movwf	i1___awdiv@sign
 11832     1EDE                     i1l2575:
 11833     1EDE  1FF3               	btfss	i1___awdiv@dividend+1,7
 11834     1EDF  2EE1               	goto	u310_21
 11835     1EE0  2EE2               	goto	u310_20
 11836     1EE1                     u310_21:
 11837     1EE1  2EE9               	goto	i1l2581
 11838     1EE2                     u310_20:
 11839     1EE2                     i1l2577:
 11840     1EE2  09F2               	comf	i1___awdiv@dividend,f
 11841     1EE3  09F3               	comf	i1___awdiv@dividend+1,f
 11842     1EE4  0AF2               	incf	i1___awdiv@dividend,f
 11843     1EE5  1903               	skipnz
 11844     1EE6  0AF3               	incf	i1___awdiv@dividend+1,f
 11845     1EE7                     i1l2579:
 11846     1EE7  3001               	movlw	1
 11847     1EE8  06F5               	xorwf	i1___awdiv@sign,f
 11848     1EE9                     i1l2581:
 11849     1EE9  01F6               	clrf	i1___awdiv@quotient
 11850     1EEA  01F7               	clrf	i1___awdiv@quotient+1
 11851     1EEB                     i1l2583:
 11852     1EEB  0870               	movf	i1___awdiv@divisor,w
 11853     1EEC  0471               	iorwf	i1___awdiv@divisor+1,w
 11854     1EED  1903               	btfsc	3,2
 11855     1EEE  2EF0               	goto	u311_21
 11856     1EEF  2EF1               	goto	u311_20
 11857     1EF0                     u311_21:
 11858     1EF0  2F26               	goto	i1l2603
 11859     1EF1                     u311_20:
 11860     1EF1                     i1l2585:
 11861     1EF1  3001               	movlw	1
 11862     1EF2  00F4               	movwf	i1___awdiv@counter
 11863     1EF3  2EFD               	goto	i1l2591
 11864     1EF4                     i1l2587:
 11865     1EF4  3001               	movlw	1
 11866     1EF5                     u312_25:
 11867     1EF5  1003               	clrc
 11868     1EF6  0DF0               	rlf	i1___awdiv@divisor,f
 11869     1EF7  0DF1               	rlf	i1___awdiv@divisor+1,f
 11870     1EF8  3EFF               	addlw	-1
 11871     1EF9  1D03               	skipz
 11872     1EFA  2EF5               	goto	u312_25
 11873     1EFB                     i1l2589:
 11874     1EFB  3001               	movlw	1
 11875     1EFC  07F4               	addwf	i1___awdiv@counter,f
 11876     1EFD                     i1l2591:
 11877     1EFD  1FF1               	btfss	i1___awdiv@divisor+1,7
 11878     1EFE  2F00               	goto	u313_21
 11879     1EFF  2F01               	goto	u313_20
 11880     1F00                     u313_21:
 11881     1F00  2EF4               	goto	i1l2587
 11882     1F01                     u313_20:
 11883     1F01                     i1l2593:
 11884     1F01  3001               	movlw	1
 11885     1F02                     u314_25:
 11886     1F02  1003               	clrc
 11887     1F03  0DF6               	rlf	i1___awdiv@quotient,f
 11888     1F04  0DF7               	rlf	i1___awdiv@quotient+1,f
 11889     1F05  3EFF               	addlw	-1
 11890     1F06  1D03               	skipz
 11891     1F07  2F02               	goto	u314_25
 11892     1F08  0871               	movf	i1___awdiv@divisor+1,w
 11893     1F09  0273               	subwf	i1___awdiv@dividend+1,w
 11894     1F0A  1D03               	skipz
 11895     1F0B  2F0E               	goto	u315_25
 11896     1F0C  0870               	movf	i1___awdiv@divisor,w
 11897     1F0D  0272               	subwf	i1___awdiv@dividend,w
 11898     1F0E                     u315_25:
 11899     1F0E  1C03               	skipc
 11900     1F0F  2F11               	goto	u315_21
 11901     1F10  2F12               	goto	u315_20
 11902     1F11                     u315_21:
 11903     1F11  2F19               	goto	i1l2599
 11904     1F12                     u315_20:
 11905     1F12                     i1l2595:
 11906     1F12  0870               	movf	i1___awdiv@divisor,w
 11907     1F13  02F2               	subwf	i1___awdiv@dividend,f
 11908     1F14  0871               	movf	i1___awdiv@divisor+1,w
 11909     1F15  1C03               	skipc
 11910     1F16  03F3               	decf	i1___awdiv@dividend+1,f
 11911     1F17  02F3               	subwf	i1___awdiv@dividend+1,f
 11912     1F18                     i1l2597:
 11913     1F18  1476               	bsf	i1___awdiv@quotient,0
 11914     1F19                     i1l2599:
 11915     1F19  3001               	movlw	1
 11916     1F1A                     u316_25:
 11917     1F1A  1003               	clrc
 11918     1F1B  0CF1               	rrf	i1___awdiv@divisor+1,f
 11919     1F1C  0CF0               	rrf	i1___awdiv@divisor,f
 11920     1F1D  3EFF               	addlw	-1
 11921     1F1E  1D03               	skipz
 11922     1F1F  2F1A               	goto	u316_25
 11923     1F20                     i1l2601:
 11924     1F20  3001               	movlw	1
 11925     1F21  02F4               	subwf	i1___awdiv@counter,f
 11926     1F22  1D03               	btfss	3,2
 11927     1F23  2F25               	goto	u317_21
 11928     1F24  2F26               	goto	u317_20
 11929     1F25                     u317_21:
 11930     1F25  2F01               	goto	i1l2593
 11931     1F26                     u317_20:
 11932     1F26                     i1l2603:
 11933     1F26  0875               	movf	i1___awdiv@sign,w
 11934     1F27  1903               	btfsc	3,2
 11935     1F28  2F2A               	goto	u318_21
 11936     1F29  2F2B               	goto	u318_20
 11937     1F2A                     u318_21:
 11938     1F2A  2F30               	goto	i1l2607
 11939     1F2B                     u318_20:
 11940     1F2B                     i1l2605:
 11941     1F2B  09F6               	comf	i1___awdiv@quotient,f
 11942     1F2C  09F7               	comf	i1___awdiv@quotient+1,f
 11943     1F2D  0AF6               	incf	i1___awdiv@quotient,f
 11944     1F2E  1903               	skipnz
 11945     1F2F  0AF7               	incf	i1___awdiv@quotient+1,f
 11946     1F30                     i1l2607:
 11947     1F30  0877               	movf	i1___awdiv@quotient+1,w
 11948     1F31  00F1               	movwf	?i1___awdiv+1
 11949     1F32  0876               	movf	i1___awdiv@quotient,w
 11950     1F33  00F0               	movwf	?i1___awdiv
 11951     1F34                     i1l315:
 11952     1F34  0008               	return
 11953     1F35                     __end_ofi1___awdiv:
 11954                           
 11955                           	psect	text40
 11956     1256                     __ptext40:	
 11957 ;; *************** function i1_ctoa *****************
 11958 ;; Defined at:
 11959 ;;		line 476 in file "C:\Program Files\Microchip\xc8\v2.50\pic\sources\c99\common\doprnt.c"
 11960 ;; Parameters:    Size  Location     Type
 11961 ;;  fp              2    0[BANK0 ] PTR struct _IO_FILE
 11962 ;;		 -> i1sprintf@f(11), sprintf@f(11), 
 11963 ;;  c               1    2[BANK0 ] unsigned char 
 11964 ;; Auto vars:     Size  Location     Type
 11965 ;;  w               2    7[BANK0 ] int 
 11966 ;;  l               2    5[BANK0 ] int 
 11967 ;; Return value:  Size  Location     Type
 11968 ;;                  2    0[BANK0 ] int 
 11969 ;; Registers used:
 11970 ;;		wreg, fsr0l, fsr0h, status,2, status,0, pclath, cstack
 11971 ;; Tracked objects:
 11972 ;;		On entry : 0/0
 11973 ;;		On exit  : 0/0
 11974 ;;		Unchanged: 0/0
 11975 ;; Data sizes:     COMMON   BANK0   BANK1   BANK3   BANK2
 11976 ;;      Params:         0       3       0       0       0
 11977 ;;      Locals:         0       4       0       0       0
 11978 ;;      Temps:          0       2       0       0       0
 11979 ;;      Totals:         0       9       0       0       0
 11980 ;;Total ram usage:        9 bytes
 11981 ;; Hardware stack levels used: 1
 11982 ;; Hardware stack levels required when called: 2
 11983 ;; This function calls:
 11984 ;;		i1_fputc
 11985 ;; This function is called by:
 11986 ;;		i1_vfpfcnvrt
 11987 ;; This function uses a non-reentrant model
 11988 ;;
 11989                           
 11990     1256                     i1_ctoa:	
 11991                           ;psect for function i1_ctoa
 11992                           
 11993     1256                     i1l2985:	
 11994                           ;incstack = 0
 11995 ;; hardware stack exceeded
 11996                           ; Regs used in i1_ctoa: [wreg-fsr0h+status,2+status,0+pclath+cstack]
 11997                           
 11998                           
 11999                           ;C:\Program Files\Microchip\xc8\v2.50\pic\sources\c99\common\doprnt.c: 476: static int c
      +                          toa(FILE *fp, char c);C:\Program Files\Microchip\xc8\v2.50\pic\sources\c99\common\doprnt
      +                          .c: 477: {;C:\Program Files\Microchip\xc8\v2.50\pic\sources\c99\common\doprnt.c: 478:   
      +                            int l,w;;C:\Program Files\Microchip\xc8\v2.50\pic\sources\c99\common\doprnt.c: 481:   
      +                            w = width ? width - 1 : width;
 12000     1256  1683               	bsf	3,5	;RP0=1, select bank1
 12001     1257  1303               	bcf	3,6	;RP1=0, select bank1
 12002     1258  0857               	movf	_width^(0+128),w
 12003     1259  0458               	iorwf	(_width+1)^(0+128),w
 12004     125A  1D03               	btfss	3,2
 12005     125B  2A5D               	goto	u400_21
 12006     125C  2A5E               	goto	u400_20
 12007     125D                     u400_21:
 12008     125D  2A69               	goto	i1l2989
 12009     125E                     u400_20:
 12010     125E                     i1l2987:
 12011     125E  0858               	movf	(_width+1)^(0+128),w
 12012     125F  1283               	bcf	3,5	;RP0=0, select bank0
 12013     1260  1303               	bcf	3,6	;RP1=0, select bank0
 12014     1261  00A8               	movwf	i1ctoa@w+1
 12015     1262  1683               	bsf	3,5	;RP0=1, select bank1
 12016     1263  1303               	bcf	3,6	;RP1=0, select bank1
 12017     1264  0857               	movf	_width^(0+128),w
 12018     1265  1283               	bcf	3,5	;RP0=0, select bank0
 12019     1266  1303               	bcf	3,6	;RP1=0, select bank0
 12020     1267  00A7               	movwf	i1ctoa@w
 12021     1268  2A77               	goto	i1l2991
 12022     1269                     i1l2989:
 12023     1269  0857               	movf	_width^(0+128),w
 12024     126A  3EFF               	addlw	255
 12025     126B  1283               	bcf	3,5	;RP0=0, select bank0
 12026     126C  1303               	bcf	3,6	;RP1=0, select bank0
 12027     126D  00A7               	movwf	i1ctoa@w
 12028     126E  1683               	bsf	3,5	;RP0=1, select bank1
 12029     126F  1303               	bcf	3,6	;RP1=0, select bank1
 12030     1270  0858               	movf	(_width+1)^(0+128),w
 12031     1271  1803               	skipnc
 12032     1272  3E01               	addlw	1
 12033     1273  3EFF               	addlw	255
 12034     1274  1283               	bcf	3,5	;RP0=0, select bank0
 12035     1275  1303               	bcf	3,6	;RP1=0, select bank0
 12036     1276  00A8               	movwf	i1ctoa@w+1
 12037     1277                     i1l2991:
 12038                           
 12039                           ;C:\Program Files\Microchip\xc8\v2.50\pic\sources\c99\common\doprnt.c: 485:     if (flag
      +                          s & (1 << 0)) {
 12040     1277  1683               	bsf	3,5	;RP0=1, select bank1
 12041     1278  1303               	bcf	3,6	;RP1=0, select bank1
 12042     1279  1C5D               	btfss	_flags^(0+128),0
 12043     127A  2A7C               	goto	u401_21
 12044     127B  2A7D               	goto	u401_20
 12045     127C                     u401_21:
 12046     127C  2A8F               	goto	i1l2995
 12047     127D                     u401_20:
 12048     127D                     i1l2993:
 12049                           
 12050                           ;C:\Program Files\Microchip\xc8\v2.50\pic\sources\c99\common\doprnt.c: 486:         fput
      +                          c(c, fp);
 12051     127D  1283               	bcf	3,5	;RP0=0, select bank0
 12052     127E  1303               	bcf	3,6	;RP1=0, select bank0
 12053     127F  0822               	movf	i1ctoa@c,w
 12054     1280  00A3               	movwf	??i1_ctoa
 12055     1281  01A4               	clrf	??i1_ctoa+1
 12056     1282  0823               	movf	??i1_ctoa,w
 12057     1283  00F0               	movwf	i1fputc@c
 12058     1284  0824               	movf	??i1_ctoa+1,w
 12059     1285  00F1               	movwf	i1fputc@c+1
 12060     1286  0820               	movf	i1ctoa@fp,w
 12061     1287  00F2               	movwf	i1fputc@fp
 12062     1288  0821               	movf	i1ctoa@fp+1,w
 12063     1289  00F3               	movwf	i1fputc@fp+1
 12064     128A  160A  118A  22E3  160A  118A  	fcall	i1_fputc
 12065     128F                     i1l2995:
 12066                           
 12067                           ;C:\Program Files\Microchip\xc8\v2.50\pic\sources\c99\common\doprnt.c: 491:     w = (w <
      +                           0) ? 0 : w;
 12068     128F  1283               	bcf	3,5	;RP0=0, select bank0
 12069     1290  1303               	bcf	3,6	;RP1=0, select bank0
 12070     1291  1BA8               	btfsc	i1ctoa@w+1,7
 12071     1292  2A94               	goto	u402_21
 12072     1293  2A95               	goto	u402_20
 12073     1294                     u402_21:
 12074     1294  2A96               	goto	i1l2999
 12075     1295                     u402_20:
 12076     1295  2A98               	goto	i1l665
 12077     1296                     i1l2999:
 12078     1296  01A7               	clrf	i1ctoa@w
 12079     1297  01A8               	clrf	i1ctoa@w+1
 12080     1298                     i1l665:
 12081                           
 12082                           ;C:\Program Files\Microchip\xc8\v2.50\pic\sources\c99\common\doprnt.c: 492:     l = 0;
 12083     1298  01A5               	clrf	i1ctoa@l
 12084     1299  01A6               	clrf	i1ctoa@l+1
 12085                           
 12086                           ;C:\Program Files\Microchip\xc8\v2.50\pic\sources\c99\common\doprnt.c: 493:     while (l
      +                           < w) {
 12087     129A  2AB2               	goto	i1l3005
 12088     129B                     i1l3001:
 12089                           
 12090                           ;C:\Program Files\Microchip\xc8\v2.50\pic\sources\c99\common\doprnt.c: 494:         fput
      +                          c(' ', fp);
 12091     129B  3020               	movlw	32
 12092     129C  00F0               	movwf	i1fputc@c
 12093     129D  3000               	movlw	0
 12094     129E  00F1               	movwf	i1fputc@c+1
 12095     129F  1283               	bcf	3,5	;RP0=0, select bank0
 12096     12A0  1303               	bcf	3,6	;RP1=0, select bank0
 12097     12A1  0820               	movf	i1ctoa@fp,w
 12098     12A2  00F2               	movwf	i1fputc@fp
 12099     12A3  0821               	movf	i1ctoa@fp+1,w
 12100     12A4  00F3               	movwf	i1fputc@fp+1
 12101     12A5  160A  118A  22E3  160A  118A  	fcall	i1_fputc
 12102     12AA                     i1l3003:
 12103                           
 12104                           ;C:\Program Files\Microchip\xc8\v2.50\pic\sources\c99\common\doprnt.c: 495:         ++l;
 12105     12AA  3001               	movlw	1
 12106     12AB  1283               	bcf	3,5	;RP0=0, select bank0
 12107     12AC  1303               	bcf	3,6	;RP1=0, select bank0
 12108     12AD  07A5               	addwf	i1ctoa@l,f
 12109     12AE  1803               	skipnc
 12110     12AF  0AA6               	incf	i1ctoa@l+1,f
 12111     12B0  3000               	movlw	0
 12112     12B1  07A6               	addwf	i1ctoa@l+1,f
 12113     12B2                     i1l3005:
 12114                           
 12115                           ;C:\Program Files\Microchip\xc8\v2.50\pic\sources\c99\common\doprnt.c: 493:     while (l
      +                           < w) {
 12116     12B2  0826               	movf	i1ctoa@l+1,w
 12117     12B3  3A80               	xorlw	128
 12118     12B4  00A3               	movwf	??i1_ctoa
 12119     12B5  0828               	movf	i1ctoa@w+1,w
 12120     12B6  3A80               	xorlw	128
 12121     12B7  0223               	subwf	??i1_ctoa,w
 12122     12B8  1D03               	skipz
 12123     12B9  2ABC               	goto	u403_25
 12124     12BA  0827               	movf	i1ctoa@w,w
 12125     12BB  0225               	subwf	i1ctoa@l,w
 12126     12BC                     u403_25:
 12127     12BC  1C03               	skipc
 12128     12BD  2ABF               	goto	u403_21
 12129     12BE  2AC0               	goto	u403_20
 12130     12BF                     u403_21:
 12131     12BF  2A9B               	goto	i1l3001
 12132     12C0                     u403_20:
 12133     12C0                     i1l668:
 12134                           
 12135                           ;C:\Program Files\Microchip\xc8\v2.50\pic\sources\c99\common\doprnt.c: 499:     if (!(fl
      +                          ags & (1 << 0))) {
 12136     12C0  1683               	bsf	3,5	;RP0=1, select bank1
 12137     12C1  1303               	bcf	3,6	;RP1=0, select bank1
 12138     12C2  185D               	btfsc	_flags^(0+128),0
 12139     12C3  2AC5               	goto	u404_21
 12140     12C4  2AC6               	goto	u404_20
 12141     12C5                     u404_21:
 12142     12C5  2AD8               	goto	i1l3009
 12143     12C6                     u404_20:
 12144     12C6                     i1l3007:
 12145                           
 12146                           ;C:\Program Files\Microchip\xc8\v2.50\pic\sources\c99\common\doprnt.c: 501:         fput
      +                          c(c, fp);
 12147     12C6  1283               	bcf	3,5	;RP0=0, select bank0
 12148     12C7  1303               	bcf	3,6	;RP1=0, select bank0
 12149     12C8  0822               	movf	i1ctoa@c,w
 12150     12C9  00A3               	movwf	??i1_ctoa
 12151     12CA  01A4               	clrf	??i1_ctoa+1
 12152     12CB  0823               	movf	??i1_ctoa,w
 12153     12CC  00F0               	movwf	i1fputc@c
 12154     12CD  0824               	movf	??i1_ctoa+1,w
 12155     12CE  00F1               	movwf	i1fputc@c+1
 12156     12CF  0820               	movf	i1ctoa@fp,w
 12157     12D0  00F2               	movwf	i1fputc@fp
 12158     12D1  0821               	movf	i1ctoa@fp+1,w
 12159     12D2  00F3               	movwf	i1fputc@fp+1
 12160     12D3  160A  118A  22E3  160A  118A  	fcall	i1_fputc
 12161     12D8                     i1l3009:
 12162                           
 12163                           ;C:\Program Files\Microchip\xc8\v2.50\pic\sources\c99\common\doprnt.c: 507:     return l
      +                          +1;
 12164     12D8  1283               	bcf	3,5	;RP0=0, select bank0
 12165     12D9  1303               	bcf	3,6	;RP1=0, select bank0
 12166     12DA  0825               	movf	i1ctoa@l,w
 12167     12DB  3E01               	addlw	1
 12168     12DC  00A0               	movwf	?i1_ctoa
 12169     12DD  0826               	movf	i1ctoa@l+1,w
 12170     12DE  1803               	skipnc
 12171     12DF  3E01               	addlw	1
 12172     12E0  3E00               	addlw	0
 12173     12E1  00A1               	movwf	?i1_ctoa+1
 12174     12E2                     i1l670:
 12175     12E2  0008               	return
 12176     12E3                     __end_ofi1_ctoa:
 12177                           
 12178                           	psect	text41
 12179     12E3                     __ptext41:	
 12180 ;; *************** function i1_fputc *****************
 12181 ;; Defined at:
 12182 ;;		line 8 in file "C:\Program Files\Microchip\xc8\v2.50\pic\sources\c99\common\nf_fputc.c"
 12183 ;; Parameters:    Size  Location     Type
 12184 ;;  c               2    0[COMMON] int 
 12185 ;;  fp              2    2[COMMON] PTR struct _IO_FILE
 12186 ;;		 -> i1sprintf@f(11), sprintf@f(11), 
 12187 ;; Auto vars:     Size  Location     Type
 12188 ;;		None
 12189 ;; Return value:  Size  Location     Type
 12190 ;;                  2    0[COMMON] int 
 12191 ;; Registers used:
 12192 ;;		wreg, fsr0l, fsr0h, status,2, status,0, pclath, cstack
 12193 ;; Tracked objects:
 12194 ;;		On entry : 0/0
 12195 ;;		On exit  : 0/0
 12196 ;;		Unchanged: 0/0
 12197 ;; Data sizes:     COMMON   BANK0   BANK1   BANK3   BANK2
 12198 ;;      Params:         4       0       0       0       0
 12199 ;;      Locals:         0       0       0       0       0
 12200 ;;      Temps:          9       0       0       0       0
 12201 ;;      Totals:        13       0       0       0       0
 12202 ;;Total ram usage:       13 bytes
 12203 ;; Hardware stack levels used: 1
 12204 ;; Hardware stack levels required when called: 1
 12205 ;; This function calls:
 12206 ;;		i1_putch
 12207 ;; This function is called by:
 12208 ;;		i1_pad
 12209 ;;		i1_ctoa
 12210 ;;		i1_vfpfcnvrt
 12211 ;;		i1_fputs
 12212 ;; This function uses a non-reentrant model
 12213 ;;
 12214                           
 12215     12E3                     i1_fputc:	
 12216                           ;psect for function i1_fputc
 12217                           
 12218     12E3                     i1l2333:	
 12219                           ;incstack = 0
 12220 ;; hardware stack exceeded
 12221                           ; Regs used in i1_fputc: [wreg-fsr0h+status,2+status,0+pclath+cstack]
 12222                           
 12223     12E3  0872               	movf	i1fputc@fp,w
 12224     12E4  0473               	iorwf	i1fputc@fp+1,w
 12225     12E5  1903               	btfsc	3,2
 12226     12E6  2AE8               	goto	u255_21
 12227     12E7  2AE9               	goto	u255_20
 12228     12E8                     u255_21:
 12229     12E8  2AEF               	goto	i1l2337
 12230     12E9                     u255_20:
 12231     12E9                     i1l2335:
 12232     12E9  0872               	movf	i1fputc@fp,w
 12233     12EA  0473               	iorwf	i1fputc@fp+1,w
 12234     12EB  1D03               	btfss	3,2
 12235     12EC  2AEE               	goto	u256_21
 12236     12ED  2AEF               	goto	u256_20
 12237     12EE                     u256_21:
 12238     12EE  2AF6               	goto	i1l2339
 12239     12EF                     u256_20:
 12240     12EF                     i1l2337:
 12241     12EF  0870               	movf	i1fputc@c,w
 12242     12F0  120A  118A  27FF  160A  118A  	fcall	i1_putch
 12243     12F5  2B7C               	goto	i1l852
 12244     12F6                     i1l2339:
 12245     12F6  0872               	movf	i1fputc@fp,w
 12246     12F7  3E09               	addlw	9
 12247     12F8  00F4               	movwf	??i1_fputc
 12248     12F9  0873               	movf	i1fputc@fp+1,w
 12249     12FA  1803               	skipnc
 12250     12FB  3E01               	addlw	1
 12251     12FC  3E00               	addlw	0
 12252     12FD  00F5               	movwf	??i1_fputc+1
 12253     12FE  0874               	movf	??i1_fputc,w
 12254     12FF  0084               	movwf	4
 12255     1300  1783               	bsf	3,7
 12256     1301  1C75               	btfss	??i1_fputc+1,0
 12257     1302  1383               	bcf	3,7
 12258     1303  0800               	movf	0,w
 12259     1304  00F6               	movwf	??i1_fputc+2
 12260     1305  0A84               	incf	4,f
 12261     1306  0800               	movf	0,w
 12262     1307  00F7               	movwf	??i1_fputc+3
 12263     1308  0876               	movf	??i1_fputc+2,w
 12264     1309  0477               	iorwf	??i1_fputc+3,w
 12265     130A  1903               	btfsc	3,2
 12266     130B  2B0D               	goto	u257_21
 12267     130C  2B0E               	goto	u257_20
 12268     130D                     u257_21:
 12269     130D  2B40               	goto	i1l2343
 12270     130E                     u257_20:
 12271     130E                     i1l2341:
 12272     130E  0872               	movf	i1fputc@fp,w
 12273     130F  3E09               	addlw	9
 12274     1310  00F4               	movwf	??i1_fputc
 12275     1311  0873               	movf	i1fputc@fp+1,w
 12276     1312  1803               	skipnc
 12277     1313  3E01               	addlw	1
 12278     1314  3E00               	addlw	0
 12279     1315  00F5               	movwf	??i1_fputc+1
 12280     1316  0874               	movf	??i1_fputc,w
 12281     1317  0084               	movwf	4
 12282     1318  1783               	bsf	3,7
 12283     1319  1C75               	btfss	??i1_fputc+1,0
 12284     131A  1383               	bcf	3,7
 12285     131B  0800               	movf	0,w
 12286     131C  00F6               	movwf	??i1_fputc+2
 12287     131D  0A84               	incf	4,f
 12288     131E  0800               	movf	0,w
 12289     131F  00F7               	movwf	??i1_fputc+3
 12290     1320  0872               	movf	i1fputc@fp,w
 12291     1321  3E02               	addlw	2
 12292     1322  00F8               	movwf	??i1_fputc+4
 12293     1323  0873               	movf	i1fputc@fp+1,w
 12294     1324  1803               	skipnc
 12295     1325  3E01               	addlw	1
 12296     1326  3E00               	addlw	0
 12297     1327  00F9               	movwf	??i1_fputc+5
 12298     1328  0878               	movf	??i1_fputc+4,w
 12299     1329  0084               	movwf	4
 12300     132A  1783               	bsf	3,7
 12301     132B  1C79               	btfss	??i1_fputc+5,0
 12302     132C  1383               	bcf	3,7
 12303     132D  0800               	movf	0,w
 12304     132E  00FA               	movwf	??i1_fputc+6
 12305     132F  0A84               	incf	4,f
 12306     1330  0800               	movf	0,w
 12307     1331  00FB               	movwf	??i1_fputc+7
 12308     1332  087B               	movf	??i1_fputc+7,w
 12309     1333  3A80               	xorlw	128
 12310     1334  00FC               	movwf	??i1_fputc+8
 12311     1335  0877               	movf	??i1_fputc+3,w
 12312     1336  3A80               	xorlw	128
 12313     1337  027C               	subwf	??i1_fputc+8,w
 12314     1338  1D03               	skipz
 12315     1339  2B3C               	goto	u258_25
 12316     133A  0876               	movf	??i1_fputc+2,w
 12317     133B  027A               	subwf	??i1_fputc+6,w
 12318     133C                     u258_25:
 12319     133C  1803               	skipnc
 12320     133D  2B3F               	goto	u258_21
 12321     133E  2B40               	goto	u258_20
 12322     133F                     u258_21:
 12323     133F  2B7C               	goto	i1l852
 12324     1340                     u258_20:
 12325     1340                     i1l2343:
 12326     1340  0872               	movf	i1fputc@fp,w
 12327     1341  0084               	movwf	4
 12328     1342  1783               	bsf	3,7
 12329     1343  1C73               	btfss	i1fputc@fp+1,0
 12330     1344  1383               	bcf	3,7
 12331     1345  0800               	movf	0,w
 12332     1346  00F4               	movwf	??i1_fputc
 12333     1347  0A84               	incf	4,f
 12334     1348  0800               	movf	0,w
 12335     1349  00F5               	movwf	??i1_fputc+1
 12336     134A  0872               	movf	i1fputc@fp,w
 12337     134B  3E02               	addlw	2
 12338     134C  00F6               	movwf	??i1_fputc+2
 12339     134D  0873               	movf	i1fputc@fp+1,w
 12340     134E  1803               	skipnc
 12341     134F  3E01               	addlw	1
 12342     1350  3E00               	addlw	0
 12343     1351  00F7               	movwf	??i1_fputc+3
 12344     1352  0876               	movf	??i1_fputc+2,w
 12345     1353  0084               	movwf	4
 12346     1354  1783               	bsf	3,7
 12347     1355  1C77               	btfss	??i1_fputc+3,0
 12348     1356  1383               	bcf	3,7
 12349     1357  0800               	movf	0,w
 12350     1358  0774               	addwf	??i1_fputc,w
 12351     1359  00F9               	movwf	??i1_fputc+5
 12352     135A  0875               	movf	??i1_fputc+1,w
 12353     135B  00F8               	movwf	??i1_fputc+4
 12354     135C  1803               	skipnc
 12355     135D  0AF8               	incf	??i1_fputc+4,f
 12356     135E  1F80               	btfss	0,7
 12357     135F  2B61               	goto	u259_20
 12358     1360  03F8               	decf	??i1_fputc+4,f
 12359     1361                     u259_20:
 12360     1361  0878               	movf	??i1_fputc+4,w
 12361     1362  00FA               	movwf	??i1_fputc+6
 12362     1363  0879               	movf	??i1_fputc+5,w
 12363     1364  0084               	movwf	4
 12364     1365  1783               	bsf	3,7
 12365     1366  1C7A               	btfss	??i1_fputc+6,0
 12366     1367  1383               	bcf	3,7
 12367     1368  0870               	movf	i1fputc@c,w
 12368     1369  0080               	movwf	0
 12369     136A  0872               	movf	i1fputc@fp,w
 12370     136B  3E02               	addlw	2
 12371     136C  00F4               	movwf	??i1_fputc
 12372     136D  0873               	movf	i1fputc@fp+1,w
 12373     136E  1803               	skipnc
 12374     136F  3E01               	addlw	1
 12375     1370  3E00               	addlw	0
 12376     1371  00F5               	movwf	??i1_fputc+1
 12377     1372  0874               	movf	??i1_fputc,w
 12378     1373  0084               	movwf	4
 12379     1374  1783               	bsf	3,7
 12380     1375  1C75               	btfss	??i1_fputc+1,0
 12381     1376  1383               	bcf	3,7
 12382     1377  3001               	movlw	1
 12383     1378  0780               	addwf	0,f
 12384     1379  0A84               	incf	4,f
 12385     137A  1803               	skipnc
 12386     137B  0A80               	incf	0,f
 12387     137C                     i1l852:
 12388     137C  0008               	return
 12389     137D                     __end_ofi1_fputc:
 12390                           
 12391                           	psect	text42
 12392     07FF                     __ptext42:	
 12393 ;; *************** function i1_putch *****************
 12394 ;; Defined at:
 12395 ;;		line 7 in file "C:\Program Files\Microchip\xc8\v2.50\pic\sources\c99\common\putch.c"
 12396 ;; Parameters:    Size  Location     Type
 12397 ;;  c               1    wreg     unsigned char 
 12398 ;; Auto vars:     Size  Location     Type
 12399 ;;  c               1  (no storage) unsigned char 
 12400 ;; Return value:  Size  Location     Type
 12401 ;;                  1    wreg      void 
 12402 ;; Registers used:
 12403 ;;		wreg
 12404 ;; Tracked objects:
 12405 ;;		On entry : 0/0
 12406 ;;		On exit  : 0/0
 12407 ;;		Unchanged: 0/0
 12408 ;; Data sizes:     COMMON   BANK0   BANK1   BANK3   BANK2
 12409 ;;      Params:         0       0       0       0       0
 12410 ;;      Locals:         0       0       0       0       0
 12411 ;;      Temps:          0       0       0       0       0
 12412 ;;      Totals:         0       0       0       0       0
 12413 ;;Total ram usage:        0 bytes
 12414 ;; Hardware stack levels used: 1
 12415 ;; This function calls:
 12416 ;;		Nothing
 12417 ;; This function is called by:
 12418 ;;		i1_fputc
 12419 ;; This function uses a non-reentrant model
 12420 ;;
 12421                           
 12422     07FF                     i1_putch:	
 12423                           ;psect for function i1_putch
 12424                           
 12425     07FF                     i1l863:	
 12426                           ;incstack = 0
 12427 ;; hardware stack exceeded
 12428                           ; Regs used in i1_putch: [wreg]
 12429                           
 12430     07FF  0008               	return
 12431     0800                     __end_ofi1_putch:
 12432                           
 12433                           	psect	text43
 12434     1B50                     __ptext43:	
 12435 ;; *************** function i1_display *****************
 12436 ;; Defined at:
 12437 ;;		line 106 in file "newmain.c"
 12438 ;; Parameters:    Size  Location     Type
 12439 ;;  RS              2    0[COMMON] int 
 12440 ;;  DC              2    2[COMMON] int 
 12441 ;; Auto vars:     Size  Location     Type
 12442 ;;		None
 12443 ;; Return value:  Size  Location     Type
 12444 ;;                  1    wreg      void 
 12445 ;; Registers used:
 12446 ;;		wreg
 12447 ;; Tracked objects:
 12448 ;;		On entry : 0/0
 12449 ;;		On exit  : 0/0
 12450 ;;		Unchanged: 0/0
 12451 ;; Data sizes:     COMMON   BANK0   BANK1   BANK3   BANK2
 12452 ;;      Params:         4       0       0       0       0
 12453 ;;      Locals:         0       0       0       0       0
 12454 ;;      Temps:          2       0       0       0       0
 12455 ;;      Totals:         6       0       0       0       0
 12456 ;;Total ram usage:        6 bytes
 12457 ;; Hardware stack levels used: 1
 12458 ;; This function calls:
 12459 ;;		Nothing
 12460 ;; This function is called by:
 12461 ;;		_ISR
 12462 ;; This function uses a non-reentrant model
 12463 ;;
 12464                           
 12465     1B50                     i1_display:	
 12466                           ;psect for function i1_display
 12467                           
 12468     1B50                     i1l3659:	
 12469                           ;incstack = 0
 12470 ;; hardware stack exceeded
 12471                           ; Regs used in i1_display: [wreg]
 12472                           
 12473                           
 12474                           ;newmain.c: 106: void display(int RS, int DC);newmain.c: 107: {;newmain.c: 108:     RD0=
      +                          RS;
 12475     1B50  1870               	btfsc	i1display@RS,0
 12476     1B51  2B53               	goto	u489_21
 12477     1B52  2B57               	goto	u489_20
 12478     1B53                     u489_21:
 12479     1B53  1283               	bcf	3,5	;RP0=0, select bank0
 12480     1B54  1303               	bcf	3,6	;RP1=0, select bank0
 12481     1B55  1408               	bsf	8,0	;volatile
 12482     1B56  2B5A               	goto	u490_24
 12483     1B57                     u489_20:
 12484     1B57  1283               	bcf	3,5	;RP0=0, select bank0
 12485     1B58  1303               	bcf	3,6	;RP1=0, select bank0
 12486     1B59  1008               	bcf	8,0	;volatile
 12487     1B5A                     u490_24:
 12488     1B5A                     i1l3661:
 12489                           
 12490                           ;newmain.c: 109:     PORTC=DC;
 12491     1B5A  0872               	movf	i1display@DC,w
 12492     1B5B  0087               	movwf	7	;volatile
 12493     1B5C                     i1l3663:
 12494                           
 12495                           ;newmain.c: 110:     RD1=1;
 12496     1B5C  1488               	bsf	8,1	;volatile
 12497                           
 12498                           ;newmain.c: 111:     _delay((unsigned long)((10)*(10000000/4000.0)));
 12499     1B5D  3021               	movlw	33
 12500     1B5E  00F5               	movwf	??i1_display+1
 12501     1B5F  3076               	movlw	118
 12502     1B60  00F4               	movwf	??i1_display
 12503     1B61                     u624_27:
 12504     1B61  0BF4               	decfsz	??i1_display,f
 12505     1B62  2B61               	goto	u624_27
 12506     1B63  0BF5               	decfsz	??i1_display+1,f
 12507     1B64  2B61               	goto	u624_27
 12508     1B65  0000               	nop
 12509     1B66                     i1l3665:
 12510                           
 12511                           ;newmain.c: 112:     RD1=0;
 12512     1B66  1283               	bcf	3,5	;RP0=0, select bank0
 12513     1B67  1303               	bcf	3,6	;RP1=0, select bank0
 12514     1B68  1088               	bcf	8,1	;volatile
 12515                           
 12516                           ;newmain.c: 113:     _delay((unsigned long)((10)*(10000000/4000.0)));
 12517     1B69  3021               	movlw	33
 12518     1B6A  00F5               	movwf	??i1_display+1
 12519     1B6B  3076               	movlw	118
 12520     1B6C  00F4               	movwf	??i1_display
 12521     1B6D                     u625_27:
 12522     1B6D  0BF4               	decfsz	??i1_display,f
 12523     1B6E  2B6D               	goto	u625_27
 12524     1B6F  0BF5               	decfsz	??i1_display+1,f
 12525     1B70  2B6D               	goto	u625_27
 12526     1B71  0000               	nop
 12527     1B72                     i1l67:
 12528     1B72  0008               	return
 12529     1B73                     __end_ofi1_display:
 12530     0002                     ___latbits      equ	2
 12531     007E                     btemp           set	126	;btemp
 12532     007E                     wtemp0          set	126
 12533                           
 12534                           	psect	config
 12535                           
 12536                           ;Config register CONFIG @ 0x2007
 12537                           ;	Oscillator Selection bits
 12538                           ;	FOSC = HS, HS oscillator
 12539                           ;	Watchdog Timer Enable bit
 12540                           ;	WDTE = OFF, WDT disabled
 12541                           ;	Power-up Timer Enable bit
 12542                           ;	PWRTE = OFF, PWRT disabled
 12543                           ;	Brown-out Reset Enable bit
 12544                           ;	BOREN = OFF, BOR disabled
 12545                           ;	Low-Voltage (Single-Supply) In-Circuit Serial Programming Enable bit
 12546                           ;	LVP = OFF, RB3 is digital I/O, HV on MCLR must be used for programming
 12547                           ;	Data EEPROM Memory Code Protection bit
 12548                           ;	CPD = OFF, Data EEPROM code protection off
 12549                           ;	Flash Program Memory Write Enable bits
 12550                           ;	WRT = OFF, Write protection off; all program memory may be written to by EECON control
 12551                           ;	In-Circuit Debugger Mode bit
 12552                           ;	DEBUG = 0x1, unprogrammed default
 12553                           ;	Flash Program Memory Code Protection bit
 12554                           ;	CP = OFF, Code protection off
 12555     2007                     	org	8199
 12556     2007  3F3A               	dw	16186

Data Sizes:
    Strings     5
    Constant    0
    Data        0
    BSS         41
    Persistent  0
    Stack       0

Auto Spaces:
    Space          Size  Autos    Used
    COMMON           14     14      14
    BANK0            80     78      78
    BANK1            80     55      62
    BANK3            96     87      89
    BANK2            96      0      32

Pointer List with Targets:

    ctoa@fp	PTR struct _IO_FILE size(2) Largest target is 11
		 -> sprintf@f(BANK3[11]), 

    dtoa@fp	PTR struct _IO_FILE size(2) Largest target is 11
		 -> sprintf@f(BANK3[11]), 

    f$.$buffer	PTR unsigned char  size(2) Largest target is 10
		 -> ISR@c(BANK1[10]), main@a(BANK3[10]), main@b(BANK3[10]), 

    f$.$source	PTR const unsigned char  size(1) Largest target is 0

    fputc@fp	PTR struct _IO_FILE size(2) Largest target is 11
		 -> sprintf@f(BANK3[11]), 

    fputc@fp$.$buffer	PTR unsigned char  size(2) Largest target is 10
		 -> ISR@c(BANK1[10]), main@a(BANK3[10]), main@b(BANK3[10]), 

    fputc@fp$.$source	PTR const unsigned char  size(1) Largest target is 0

    fputs@fp	PTR struct _IO_FILE size(2) Largest target is 11
		 -> sprintf@f(BANK3[11]), 

    fputs@s	PTR const unsigned char  size(1) Largest target is 32
		 -> dbuf(BANK2[32]), 

    i1sprintf@f$.$buffer	PTR unsigned char  size(2) Largest target is 10
		 -> ISR@c(BANK1[10]), main@a(BANK3[10]), main@b(BANK3[10]), 

    i1sprintf@f$.$source	PTR const unsigned char  size(1) Largest target is 0

    otoa@fp	PTR struct _IO_FILE size(2) Largest target is 11
		 -> sprintf@f(BANK3[11]), 

    pad@buf	PTR unsigned char  size(1) Largest target is 32
		 -> dbuf(BANK2[32]), 

    pad@fp	PTR struct _IO_FILE size(2) Largest target is 11
		 -> sprintf@f(BANK3[11]), 

    read_prec_or_width@ap	PTR PTR void [1] size(1) Largest target is 1
		 -> sprintf@ap(BANK3[1]), 

    read_prec_or_width@fmt	PTR PTR const unsigned char  size(1) Largest target is 2
		 -> vfprintf@cfmt(BANK1[2]), 

    S526$buffer	PTR unsigned char  size(2) Largest target is 10
		 -> ISR@c(BANK1[10]), main@a(BANK3[10]), main@b(BANK3[10]), 

    S526$source	PTR const unsigned char  size(1) Largest target is 0

    sprintf@ap	PTR void [1] size(1) Largest target is 2
		 -> ?_sprintf(BANK3[2]), 

    sprintf@fmt	PTR const unsigned char  size(2) Largest target is 8192
		 -> ROM(CODE[8192]), STR_1(CODE[5]), STR_2(CODE[5]), 

    sprintf@s	PTR unsigned char  size(2) Largest target is 10
		 -> ISR@c(BANK1[10]), main@a(BANK3[10]), main@b(BANK3[10]), 

    strlen@a	PTR const unsigned char  size(1) Largest target is 32
		 -> dbuf(BANK2[32]), 

    strlen@s	PTR const unsigned char  size(1) Largest target is 32
		 -> dbuf(BANK2[32]), 

    utoa@fp	PTR struct _IO_FILE size(2) Largest target is 11
		 -> sprintf@f(BANK3[11]), 

    vfpfcnvrt@ap	PTR PTR void  size(2) Largest target is 1
		 -> sprintf@ap(BANK3[1]), 

    vfpfcnvrt@cp	PTR unsigned char  size(2) Largest target is 8192
		 -> ROM(CODE[8192]), STR_1(CODE[5]), STR_2(CODE[5]), 

    vfpfcnvrt@fmt	PTR PTR unsigned char  size(1) Largest target is 2
		 -> vfprintf@cfmt(BANK1[2]), 

    vfpfcnvrt@fp	PTR struct _IO_FILE size(2) Largest target is 11
		 -> sprintf@f(BANK3[11]), 

    vfprintf@ap	PTR PTR void  size(1) Largest target is 1
		 -> sprintf@ap(BANK3[1]), 

    vfprintf@cfmt	PTR unsigned char  size(2) Largest target is 8192
		 -> ROM(CODE[8192]), STR_1(CODE[5]), STR_2(CODE[5]), 

    vfprintf@fmt	PTR const unsigned char  size(2) Largest target is 8192
		 -> ROM(CODE[8192]), STR_1(CODE[5]), STR_2(CODE[5]), 

    vfprintf@fp	PTR struct _IO_FILE size(2) Largest target is 11
		 -> sprintf@f(BANK3[11]), 

    xtoa@fp	PTR struct _IO_FILE size(2) Largest target is 11
		 -> sprintf@f(BANK3[11]), 


Critical Paths under _main in COMMON

    None.

Critical Paths under _ISR in COMMON

    i1_vfpfcnvrt->i1_read_prec_or_width
    i1_xtoa->i1_pad
    i1_utoa->i1_pad
    i1_read_prec_or_width->i1___wmul
    i1_otoa->i1_pad
    i1_dtoa->i1_pad
    i1_pad->i1_fputc
    i1_fputs->i1_fputc
    i1_abs->i1___awmod
    i1_ctoa->i1_fputc

Critical Paths under _main in BANK0

    None.

Critical Paths under _ISR in BANK0

    _ISR->i1_sprintf
    i1_sprintf->i1_vfprintf
    i1_vfprintf->i1_vfpfcnvrt
    i1_vfpfcnvrt->i1_xtoa
    i1_xtoa->i1_pad
    i1_utoa->i1_pad
    i1_otoa->i1_pad
    i1_dtoa->i1_pad
    i1_pad->i1_fputs

Critical Paths under _main in BANK1

    _sprintf->_vfprintf
    _vfpfcnvrt->_otoa
    _xtoa->_pad
    _utoa->_pad
    _read_prec_or_width->___wmul
    _otoa->_pad
    _dtoa->_pad
    _pad->_fputs
    _fputs->_fputc
    _abs->___awmod
    _ctoa->_fputc

Critical Paths under _ISR in BANK1

    None.

Critical Paths under _main in BANK3

    _main->_sprintf
    _sprintf->_vfprintf
    _vfprintf->_vfpfcnvrt
    _vfpfcnvrt->_xtoa

Critical Paths under _ISR in BANK3

    None.

Critical Paths under _main in BANK2

    None.

Critical Paths under _ISR in BANK2

    None.

Call Graph Tables:

 ---------------------------------------------------------------------------------
 (Depth) Function   	        Calls       Base Space   Used Autos Params    Refs
 ---------------------------------------------------------------------------------
 (0) _main                                                43    43      0   14317
                                             54 BANK3     33    33      0
                            _display
                            _sprintf
 ---------------------------------------------------------------------------------
 (1) _sprintf                                             23    17      6   13673
                                             33 BANK3     21    15      6
                           _vfprintf
 ---------------------------------------------------------------------------------
 (2) _vfprintf                                             7     2      5   13129
                                             53 BANK1      2     2      0
                                             28 BANK3      5     0      5
                          _vfpfcnvrt
 ---------------------------------------------------------------------------------
 (3) _vfpfcnvrt                                           17    12      5   12716
                                             11 BANK3     17    12      5
                               _ctoa
                               _dtoa
                              _fputc
                               _otoa
                 _read_prec_or_width
                               _utoa
                               _xtoa
 ---------------------------------------------------------------------------------
 (4) _xtoa                                                16    11      5    2109
                                             47 BANK1      5     0      5
                                              0 BANK3     11    11      0
                                _pad
 ---------------------------------------------------------------------------------
 (4) _utoa                                                10     6      4    2214
                                             47 BANK1      4     0      4
                                              0 BANK3      6     6      0
                            ___lwdiv
                            ___lwmod
                                _pad
 ---------------------------------------------------------------------------------
 (5) ___lwmod                                              5     1      4     238
                                             18 BANK1      5     1      4
 ---------------------------------------------------------------------------------
 (5) ___lwdiv                                              7     3      4     247
                                             18 BANK1      7     3      4
 ---------------------------------------------------------------------------------
 (4) _read_prec_or_width                                   7     5      2     278
                                             24 BANK1      7     5      2
                             ___wmul
 ---------------------------------------------------------------------------------
 (5) ___wmul                                               6     2      4      94
                                             18 BANK1      6     2      4
 ---------------------------------------------------------------------------------
 (4) _otoa                                                13     9      4    1837
                                             47 BANK1      6     2      4
                                              0 BANK3      7     7      0
                                _pad
 ---------------------------------------------------------------------------------
 (4) _dtoa                                                13     9      4    2956
                                             47 BANK1      4     0      4
                                              0 BANK3      9     9      0
                            ___awdiv
                            ___awmod
                                _abs
                                _pad
 ---------------------------------------------------------------------------------
 (5) _pad                                                  8     3      5    1358
                                             39 BANK1      8     3      5
                              _fputc
                              _fputs
                             _strlen
 ---------------------------------------------------------------------------------
 (6) _strlen                                               3     1      2     133
                                             18 BANK1      3     1      2
 ---------------------------------------------------------------------------------
 (6) _fputs                                                8     5      3     511
                                             31 BANK1      8     5      3
                              _fputc
 ---------------------------------------------------------------------------------
 (5) _abs                                                  4     2      2      96
                                             24 BANK1      4     2      2
                            ___awmod (ARG)
 ---------------------------------------------------------------------------------
 (5) ___awmod                                              6     2      4     439
                                             18 BANK1      6     2      4
 ---------------------------------------------------------------------------------
 (5) ___awdiv                                              8     4      4     451
                                             18 BANK1      8     4      4
 ---------------------------------------------------------------------------------
 (4) _ctoa                                                 9     6      3     659
                                             31 BANK1      9     6      3
                              _fputc
 ---------------------------------------------------------------------------------
 (7) _fputc                                               13     9      4     359
                                             18 BANK1     13     9      4
                              _putch
 ---------------------------------------------------------------------------------
 (8) _putch                                                1     1      0       0
 ---------------------------------------------------------------------------------
 (1) _display                                              6     2      4      58
                                             18 BANK1      6     2      4
 ---------------------------------------------------------------------------------
 Estimated maximum stack depth 8
 ---------------------------------------------------------------------------------
 (Depth) Function   	        Calls       Base Space   Used Autos Params    Refs
 ---------------------------------------------------------------------------------
 (9) _ISR                                                 18    18      0    9318
                                              0 BANK1     18    18      0
                          i1_display
                          i1_sprintf
 ---------------------------------------------------------------------------------
 (10) i1_sprintf                                          24    18      6    9079
                                             56 BANK0     22    16      6
                         i1_vfprintf
 ---------------------------------------------------------------------------------
 (11) i1_vfprintf                                          8     2      6    8842
                                             48 BANK0      8     2      6
                        i1_vfpfcnvrt
 ---------------------------------------------------------------------------------
 (12) i1_vfpfcnvrt                                        17    12      5    8687
                                             31 BANK0     17    12      5
                             i1_ctoa
                             i1_dtoa
                            i1_fputc
                             i1_otoa
               i1_read_prec_or_width
                             i1_utoa
                             i1_xtoa
 ---------------------------------------------------------------------------------
 (13) i1_xtoa                                             16    11      5    1414
                                             15 BANK0     16    11      5
                              i1_pad
 ---------------------------------------------------------------------------------
 (13) i1_utoa                                             10     6      4    1484
                                             15 BANK0     10     6      4
                          i1___lwdiv
                          i1___lwmod
                              i1_pad
 ---------------------------------------------------------------------------------
 (14) i1___lwmod                                           5     1      4     161
                                              0 COMMON     5     1      4
 ---------------------------------------------------------------------------------
 (14) i1___lwdiv                                           7     3      4     164
                                              0 COMMON     7     3      4
 ---------------------------------------------------------------------------------
 (13) i1_read_prec_or_width                                8     5      3     278
                                              6 COMMON     8     5      3
                           i1___wmul
 ---------------------------------------------------------------------------------
 (14) i1___wmul                                            6     2      4      94
                                              0 COMMON     6     2      4
 ---------------------------------------------------------------------------------
 (13) i1_otoa                                             13     9      4    1230
                                             15 BANK0     13     9      4
                              i1_pad
 ---------------------------------------------------------------------------------
 (13) i1_dtoa                                             13     9      4    1988
                                             15 BANK0     13     9      4
                          i1___awdiv
                          i1___awmod
                              i1_abs
                              i1_pad
 ---------------------------------------------------------------------------------
 (14) i1_pad                                               8     3      5     907
                                             13 COMMON     1     1      0
                                              8 BANK0      7     2      5
                            i1_fputc
                            i1_fputs
                           i1_strlen
 ---------------------------------------------------------------------------------
 (15) i1_strlen                                            3     1      2      91
                                              0 COMMON     3     1      2
 ---------------------------------------------------------------------------------
 (15) i1_fputs                                             8     5      3     341
                                              0 BANK0      8     5      3
                            i1_fputc
 ---------------------------------------------------------------------------------
 (14) i1_abs                                               4     2      2      67
                                              6 COMMON     4     2      2
                          i1___awmod (ARG)
 ---------------------------------------------------------------------------------
 (14) i1___awmod                                           6     2      4     298
                                              0 COMMON     6     2      4
 ---------------------------------------------------------------------------------
 (14) i1___awdiv                                           8     4      4     302
                                              0 COMMON     8     4      4
 ---------------------------------------------------------------------------------
 (13) i1_ctoa                                              9     6      3     445
                                              0 BANK0      9     6      3
                            i1_fputc
 ---------------------------------------------------------------------------------
 (16) i1_fputc                                            13     9      4     240
                                              0 COMMON    13     9      4
                            i1_putch
 ---------------------------------------------------------------------------------
 (17) i1_putch                                             1     1      0       0
 ---------------------------------------------------------------------------------
 (10) i1_display                                           6     2      4      48
                                              0 COMMON     6     2      4
 ---------------------------------------------------------------------------------
 Estimated maximum stack depth 17
 ---------------------------------------------------------------------------------

 Call Graph Graphs:

 _main (ROOT)
   _display
   _sprintf
     _vfprintf
       _vfpfcnvrt
         _ctoa
           _fputc
             _putch
         _dtoa
           ___awdiv
           ___awmod
           _abs
             ___awmod (ARG)
           _pad
             _fputc
             _fputs
               _fputc
             _strlen
         _fputc
         _otoa
           _pad
         _read_prec_or_width
           ___wmul
         _utoa
           ___lwdiv
           ___lwmod
           _pad
         _xtoa
           _pad

 _ISR (ROOT)
   i1_display
   i1_sprintf
     i1_vfprintf
       i1_vfpfcnvrt
         i1_ctoa
           i1_fputc
             i1_putch
         i1_dtoa
           i1___awdiv
           i1___awmod
           i1_abs
             i1___awmod (ARG)
           i1_pad
             i1_fputc
             i1_fputs
               i1_fputc
             i1_strlen
         i1_fputc
         i1_otoa
           i1_pad
         i1_read_prec_or_width
           i1___wmul
         i1_utoa
           i1___lwdiv
           i1___lwmod
           i1_pad
         i1_xtoa
           i1_pad

Address spaces:
Name               Size   Autos  Total    Usage
BITCOMMON           14      0       0      0.0%
BITBANK0            80      0       0      0.0%
BITBANK1            80      0       0      0.0%
BITBANK3            96      0       0      0.0%
BITBANK2            96      0       0      0.0%
COMMON              14     14      14    100.0%
BANK0               80     78      78     97.5%
BANK1               80     55      62     77.5%
BANK3               96     87      89     92.7%
BANK2               96      0      32     33.3%
STACK                0      0       0      0.0%
DATA                 0      0     269      0.0%


Microchip Technology PIC Macro Assembler V2.50 build 20240725155939 
Symbol Table                                                                                   Sat Dec 21 20:58:01 2024

                           pc 0002                            l50 067A                            l44 05E1  
                          l67 1C41                  ___awdiv@sign 00B7                            fsr 0004  
         __end_ofi1_vfpfcnvrt 1000           ___wmul@multiplicand 00B4              i1___wmul@product 0074  
__end_ofi1_read_prec_or_width 115B                           l162 1BA6                           l315 1F99  
                         l164 1BBE                           l328 1ED1                           l442 1DDC  
                         l452 1D1B                           l702 0722                           l712 07B9  
                         l720 1450                           l713 07F5                           l625 1C73  
                         l652 1FDB                           l740 0A3C                           l653 1FEC  
                         l670 11D5                           l654 1FFF                           l751 0B0F  
                         l735 09FC                           l840 1B25                           l728 14FF  
                         l665 118D                           l649 1FB3                           l833 1E21  
                         l770 007B                           l771 007F                           l852 08AD  
                         l668 11B5                           l860 1C14                           l684 0903  
                         l772 0083                           l685 0914                           l677 08D6  
                         l749 0ABA                           l773 00B4                           l678 0906  
                         l766 0065                           l863 07FE                           l695 09DE  
                         l759 1255                           l791 01B5                           l768 0073  
                         l769 0077                           l778 059F                           l788 01B5  
                         l869 1B4F                           _GIE 005F                           _RD0 0040  
                         _RD1 0041                           _ISR 100F                    i1_dtoa$616 0033  
                         _abs 1B13                           _pad 1F9A                           fsr0 0004  
                         indf 0000                  ___awmod@sign 00B7                  main@Low_bits 01DD  
                        ?_ISR 0070                          ISR@c 00A6                          ISR@i 00B0  
                        ?_abs 00B8                          l4001 08FF                          l4011 0926  
                        l4003 090A                          l4021 097B                          l4013 0949  
                        l4005 0912                          l4101 1464                          l4031 09AE  
                        l4023 0983                          l4015 0951                          l4007 091A  
                        l4103 146C                          l4111 14A7                          l4033 09B4  
                        l4025 0992                          l4017 0957                          l4009 091E  
                        l4041 070B                          l4113 14AF                          l4121 14DB  
                        l4105 1484                          l4201 005D                          l4035 09BA  
                        l4027 09A1                          l4019 096C                          l4051 0735  
                        l4043 070D                          l4115 14B7                          l4107 148C  
                        l4131 09E7                          l4203 0061                          l4029 09A7  
                        l4061 0756                          l4053 0739                          l4045 0711  
                        l4117 14C6                          l4109 1492                          l4141 0A1B  
                        l4133 09EB                          l4125 09DF                          l4301 031D  
                        l4221 00BA                          l4205 0068                          l4071 0795  
                        l4063 075C                          l4055 0747                          l4047 0718  
                        l4039 0705                          l2391 1BB4                          l2383 1B98  
                        l4119 14D5                          l4151 0A42                          l4143 0A22  
                        l4135 09F2                          l4127 09DF                          l4303 032F  
                        l4311 0367                          l4231 00DD                          l4223 00BC  
                        l4081 07C6                          l4073 07A4                          l4057 0749  
                        l4065 076F                          l4049 0732                          l2393 1BBA  
                        l2385 1B9C                          l4161 0A5F                          l4153 0A46  
                        l4145 0A28                          l4137 0A08                          l4129 09E5  
                        l4305 0343                          l4313 037A                          l4241 0142  
                        l4233 00FB                          l4225 00D3                          l4217 0088  
                        l4401 1C5D                          l4083 07CC                          l4067 077E  
                        l4075 07AA                          l4059 0750                          l2387 1BA0  
                        l4091 1439                          l4163 0A62                          l4155 0A54  
                        l4171 0A7F                          l4147 0A2F                          l4139 0A15  
                        l4323 03E5                          l4315 0391                          l4307 0355  
                        l4331 043F                          l4251 0190                          l4243 0150  
                        l4235 0105                          l4227 00D7                          l4219 00AF  
                        l4411 05B2                          l4085 07D2                          l4077 07B1  
                        l4069 0786                          l2389 1BAD                          l4093 143B  
                        l4181 0AC0                          l4173 0A8E                          l4165 0A68  
                        l4157 0A56                          l4149 0A36                          l4341 04A7  
                        l4261 01B8                          l4253 0196                          l4237 011A  
                        l4229 00D8                          l4421 05D3                          l4413 05B3  
                        l4405 05A0                          l4079 07BE                          l4095 143F  
                        l4183 0AC7                          l4191 0AEC                          l4175 0A96  
                        l4167 0A6E                          l4159 0A5C                          l4351 0508  
                        l4343 04C3                          l4335 0456                          l4319 03BB  
                        l4271 0207                          l4255 01AA                          l4239 0138  
                        l4247 0172                          l4431 0619                          l4423 05DE  
                        l4415 05B5                          l4407 05AC                          l3641 1C27  
                        l3801 1F41                          l4097 1446                          l4089 1433  
                        l4185 0ACF                          l4177 0AA5                          l4169 0A74  
                        l4361 054A                          l4337 0472                          l4329 0423  
                        l4273 0219                          l4257 01AE                          l4265 01BA  
                        l4249 017D                          l4441 065A                          l4433 0627  
                        l4425 05E5                          l4417 05C1                          l4409 05AE  
                        l3643 1C33                          l3811 1F50                          l3803 1F43  
                        l4099 1460                          l4187 0AD7                          l4179 0AB4  
                        l4339 048E                          l4347 04DF                          l4355 050B  
                        l4275 022B                          l4291 02B2                          l4283 0261  
                        l4267 01DA                          l4371 055C                          l4195 002F  
                        l4451 06A1                          l4443 0668                          l4435 062C  
                        l4427 05FB                          l4419 05CF                          l3637 1C15  
                        l3821 1F66                          l3813 1F56                          l3805 1F47  
                        l4189 0ADF                          l4373 0594                          l4357 0529  
                        l4365 0551                          l4349 04F2                          l4293 02C8  
                        l4277 023D                          l4285 0274                          l4269 01F0  
                        l4197 004D                          l4381 1DE9                          l4461 06EA  
                        l4453 06B2                          l4445 0677                          l4437 0649  
                        l4429 0608                          ?_pad 00C7                          l3639 1C21  
                        l3823 1F77                          l3815 1F59                          l3831 1F8B  
                        l3807 1F4C                          l3911 1CF6                          l3903 1CE2  
                        l4359 0533                          l4295 02DE                          l4287 028A  
                        l4279 024F                          l4199 0057                          l4383 1DEE  
                        l4391 1C42                          l4463 06F3                          l4455 06C0  
                        l4447 067E                          l4439 0651                          l3833 1F90  
                        l3825 1F7D                          l3817 1F60                          l3809 1F4E  
                        l3841 1E7C                          l3913 1CFA                          l3905 1CEA  
                        l3921 1D17                          l4297 02F4                          l4385 1E07  
                        l4393 1C46                          l4457 06C5                          l4449 0694  
                        l3771 083B                          l3763 080E                          l3835 1F95  
                        l3827 1F7E                          l3819 1F62                          l3851 1E90  
                        l3843 1E80                          l3931 1FB1                          l2971 11F6  
                        l3915 1D04                          l3907 1CED                          l4299 030B  
                        l4387 1E1D                          l4379 1DDD                          l4395 1C4A  
                        l4459 06E2                          l3773 086D                          l3765 0816  
                        l3829 1F85                          l3861 1EA6                          l3853 1E96  
                        l3845 1E85                          l3781 1BFF                          l3933 1FB6  
                        l3925 1F9A                          l2981 1251                          l2973 1200  
                        l3917 1D0A                          l3909 1CF4                          l4397 1C4C  
                        l3767 081C                          l3951 115B                          l3871 1EC8  
                        l3863 1EB0                          l3855 1E99                          l3847 1E87  
                        l3839 1E79                          l3943 1B13                          l3783 1C07  
                        l3791 1B49                          l3935 1FC5                          l3927 1FA0  
                        l2975 120F                          l2967 11D6                          l3919 1D11  
                        l4399 1C4E                          l3769 0823                          l3961 1184  
                        l3953 1163                          l3873 1ECD                          l3865 1EB6  
                        l3857 1EA0                          l3849 1E8B                          l3945 1B19  
                        l3777 1BEA                          l3785 1B3A                          l3937 1FCD  
                        l3929 1FAB                          l2977 1226                          l2969 11DA  
                        l3881 1DA3                          l3971 11A7                          l3955 1168  
                        l3795 1F35                          l3867 1EBD                          l3859 1EA2  
                        l3947 1B1A                          l3779 1BEF                          l3787 1B3F  
                        l3939 1FE1                          l2979 122E                          l3891 1DC4  
                        l3883 1DA6                          l3973 11BB                          l3965 118B  
                        l3957 1170                          l3797 1F38                          l3869 1EC3  
                        l3789 1B41                          l3981 08B9                          l3893 1DCA  
                        l3885 1DAD                          l3877 1D99                          l3975 11CB  
                        l3967 1190                          l3959 1174                          l3799 1F3C  
                        l3991 08E2                          l3983 08BF                          l3895 1DCB  
                        l3887 1DAF                          l3879 1D9D                          l3969 119F  
                        l3993 08E7                          l3985 08C1                          l3897 1DD2  
                        l3889 1DB3                          l3995 08ED                          l3987 08C5  
                        l3979 08AE                          l3899 1DD8                          l3997 08F5  
                        l3989 08CC                          l3999 08FA                          STR_1 1810  
                        STR_2 1810                          u5000 081C                          u5001 081B  
                        u5010 083B                          u5011 083A                          u5020 086D  
                        u5100 1F66                          u5021 086C                          u5101 1F65  
                        u5030 0890                          u5120 1F77                          u5200 1EA6  
                        u5040 1C14                          u2640 1BA0                          u6000 0138  
                        u5025 0869                          u5121 1F76                          u5201 1EA5  
                        u5041 1C13                          u2641 1B9F                          u6001 0137  
                        u5210 1EB0                          u5050 1B49                          u6010 01AA  
                        u5115 1F67                          u5211 1EAF                          u5051 1B48  
                        u6011 01A9                          u5140 1F8B                          u5060 1F3C  
                        u6020 01F0                          u6100 1E1D                          u5141 1F8A  
                        u5125 1F73                          u5061 1F3B                          u6021 01EF  
                        u6101 1E1C                          u5150 1F90                          u5070 1F47  
                        u5230 1EC3                          u2670 1BBA                          u5310 1DD8  
                        u6030 0206                          u6110 1C69                          u5151 1F8F  
                        u5135 1F7F                          u5071 1F46                          u5231 1EC2  
                        u5215 1EAC                          u2671 1BB9                          u2655 1BA7  
                        u5311 1DD7                          u6031 0205                          u5080 1F56  
                        u5240 1EC8                          u5160 1E80                          u5400 1FDB  
                        u5320 1CEA                          u6040 02C8                          u6120 05E5  
                        u5081 1F55                          u5241 1EC7                          u5225 1EB7  
                        u5161 1E7F                          u5401 1FDA                          u2665 1BAE  
                        u5305 1DCC                          u5321 1CE9                          u6041 02C7  
                        u6121 05E4                          u5170 1E8B                          u5410 1FE1  
                        u5250 1DA3                          u6050 02DE                          u6130 065A  
                        u5171 1E8A                          u5411 1FE0                          u5251 1DA2  
                        u6051 02DD                          u6131 0659                          u5180 1E96  
                        u5420 1B19                          u5500 08BF                          u5340 1CFA  
                        u6060 02F4                          u6140 067E                          u5181 1E95  
                        u5421 1B18                          u5405 1FD7                          u5501 08BE  
                        u5341 1CF9                          u6061 02F3                          u6141 067D  
                        _INTE 005C                          u5430 1163                          u5510 08C5  
                        u5270 1DB3                          u5350 1D04                          u6070 030A  
                        u6150 06F3                          _INTF 0059                          u5431 1162  
                        u5095 1F5A                          u5511 08C4                          u5271 1DB2  
                        u5351 1D03                          u5335 1CEE                          u6071 0309  
                        u6151 06F2                          u6207 0672                          u5440 1174  
                        u5600 09A7                          u5520 08E7                          u6080 0455  
                        u5441 1173                          u5601 09A6                          u5521 08E6  
                        u5265 1DA7                          u6081 0454                          u6217 06FB  
                        u5450 118A                          u5610 09AE                          u5530 08ED  
                        u5290 1DC4                          u5370 1D17                          u6090 0529  
                        u6227 1C2E                          u5451 1189                          u5195 1E9A  
                        u5611 09AD                          u5531 08EC                          u5291 1DC3  
                        u5371 1D16                          u5355 1D00                          u6091 0528  
                        u5460 11B5                          u5380 1FA0                          u5540 08FA  
                        u5700 07B9                          u5620 070B                          u6237 1C3C  
                        u5461 11B4                          u5381 1F9F                          u5541 08F9  
                        u5701 07B8                          u5621 070A                          u5285 1DB4  
                        u5365 1D0B                          u5470 11BB                          u5390 1FB1  
                        u5550 090A                          u5710 07BE                          u5630 0711  
                        u5471 11BA                          u5391 1FB0                          u5551 0909  
                        u5711 07BD                          u5631 0710                          u5295 1DC0  
                        u5560 097B                          u5480 08B5                          u5640 077E  
                        u5720 1439                          u5800 09EB                          u5465 11B1  
                        u5561 097A                          u5481 08B3                          u5641 077D  
                        u5721 1438                          u5801 09EA                          u5570 0983  
                        u5490 08B6                          u5650 0786                          u5730 143F  
                        u5810 0A11                          i1l67 1B72                          i1l75 106B  
                        u5571 0982                          u5651 0785                          u5731 143E  
                        u5811 0A0F                          u6187 05D9                          i1l76 106C  
                        u4860 1C1E                          u5580 0992                          u5660 0795  
                        u3980 11F6                          u5740 14AF                          u5900 0AB4  
                        u5820 0A12                          u4861 1C1A                          u5581 0991  
                        u5565 0977                          u5661 0794                          u5645 077A  
                        u3981 11F5                          u5741 14AE                          u5901 0AB3  
                        u6197 0662                          u5590 09A1                          u5670 07A4  
                        u3990 1251                          u5750 14B7                          u5910 0ABA  
                        u5830 0A1B                          u5591 09A0                          u5671 07A3  
                        u3991 1250                          u5751 14B6                          u5911 0AB9  
                        u5831 0A1A                          u5680 07AA                          u5760 14C6  
                        u5920 0AC0                          u5840 0A22                          u5585 098E  
                        u5681 07A9                          u5665 0791                          u5761 14C5  
                        u5921 0ABF                          u5905 0AB0                          u5841 0A21  
                        u4874 1C21                          u5690 07B1                          u5770 14D5  
                        u5930 0AC7                          u5850 0A2F                          u5595 099D  
                        u5691 07B0                          u5675 07A0                          u5771 14D4  
                        u5931 0AC6                          u5851 0A2E                          u5780 14DB  
                        u5940 0ACF                          u5860 0A5C                          u5781 14DA  
                        u5765 14C2                          u5941 0ACE                          u5861 0A5B  
                        u4990 0816                          u5870 0A8E                          u5790 09E5  
                        u5950 004D                          u4991 0815                          u5775 14D1  
                        u5871 0A8D                          u5791 09E4                          u5951 004C  
                        u5880 0A96                          u5960 00B4                          u5881 0A95  
                        u5961 00B3                          u5890 0AA5                          u5970 00BA  
                        u5891 0AA4                          u5875 0A8A                          u5971 00B9  
                        u5980 00D7                          u5981 00D6                          u5990 00FB  
                        u5895 0AA1                          u5991 00FA                          abs@a 00B8  
                        _dbuf 0110               i1xtoa@d_nonzero 003B                          _ctoa 115B  
                        _main 05A0                          _dtoa 08AE                          _prec 00D9  
                        _otoa 0705                          _nout 01E7                          pad@i 00CD  
                        pad@p 00CA                          btemp 007E                          _utoa 1433  
                        _xtoa 09DF                          start 0012               __end_ofi1_fputc 137D  
             __end_ofi1_fputs 1BEA               __end_ofi1_putch 0800                    i1_xtoa$641 0034  
                  i1_vfprintf 1D1C                         ??_ISR 00A0                         ??_abs 00BA  
                       ??_pad 00CC                 i1vfpfcnvrt@ap 0042                 i1vfpfcnvrt@cp 004E  
               i1vfpfcnvrt@fp 003F                         ?_ctoa 00BF                         ?_main 0070  
                       ?_dtoa 00CF                i1___awdiv@sign 0075               __end_of___awdiv 1F9A  
             __end_of___awmod 1ED2                         ?_otoa 00CF                         ?_utoa 00CF  
             ___awdiv@divisor 00B2                         ?_xtoa 00CF               __end_of___lwdiv 1DDD  
                       i1l162 1B7F                         i1l315 1F34                         i1l164 1B97  
                       i1l328 1E78               __end_of___lwmod 1D1C                         i1l442 1D98  
                       i1l452 1CE1                         i1l702 151D                         i1l712 15AA  
                       i1l720 139A                         i1l713 15DB                         i1l625 1CA9  
                       i1l652 10BA                         i1l740 1631                         i1l653 10CD  
                       i1l670 12E2                         i1l654 10E0                         i1l751 16EB  
                       i1l735 15F9                         i1l840 1B12                         i1l728 1432  
                       i1l665 1298                         i1l649 1092                         i1l833 1D56  
                       i1l770 0B54                         i1l771 0B58                         i1l852 137C  
                       i1l668 12C0                         i1l860 1BE9                         i1l684 173E  
                       i1l772 0B5C                         i1l685 174F                         i1l677 1712  
                       i1l749 16A6                         i1l773 0B85                         i1l678 1741  
                       i1l766 0B3E                         i1l863 07FF                         i1l695 17FF  
                       i1l759 115A                         i1l791 0C54                         i1l768 0B4C  
                       i1l769 0B50                         i1l778 0FFF                         i1l788 0C54  
                       i1l869 1B39               ___awdiv@counter 00B6                  vfpfcnvrt@fmt 019D  
                       _PORTC 0007                         _PORTD 0008                         _TRISC 0087  
                       _TRISD 0088                         i1_abs 1B02                         i1_pad 1077  
          i1___lwmod@dividend 0072               __end_of_display 1C42                i1___awmod@sign 0075  
                       _flags 00DD                         _count 00DB           read_prec_or_width@c 00BC  
         read_prec_or_width@n 00BD                         _fputc 080E                         _fputs 1BEA  
                       pad@fp 00C7                         _width 00D7                         ctoa@c 00C1  
                       _putch 07FE                         ctoa@l 00C4                         main@a 01C9  
                       main@b 01D3                         ctoa@w 00C6                         main@i 01E3  
                       dtoa@d 00D1                         dtoa@i 0197                         dtoa@p 0192  
                       dtoa@s 0196                         dtoa@w 0194                         pclath 000A  
            __end_ofi1___wmul 1B98                         otoa@d 00D1                         otoa@i 0195  
                       otoa@p 0190                         otoa@t 0194                         otoa@w 0192  
                       utoa@d 00D1                         utoa@i 0194                         utoa@p 0190  
                       utoa@w 0192                         status 0003           i1___wmul@multiplier 0070  
                       wtemp0 007E               __end_of_sprintf 1C74                         xtoa@a 0190  
                       xtoa@c 0198                         xtoa@d 00D1                         xtoa@i 0199  
                       xtoa@p 0193                         xtoa@w 0196                         xtoa@x 00D3  
            __end_ofi1_strlen 1B3A                   i1_vfpfcnvrt 0B10               __initialization 0015  
                __end_of_ctoa 11D6                  __end_of_main 0705                  __end_of_dtoa 09DF  
               i1vfprintf@fmt 0052                  __end_of_otoa 07F6                  __end_of_utoa 1500  
                __end_of_xtoa 0B10        i1read_prec_or_width@ap 0077                   i1display@DC 0072  
                 i1display@RS 0070                    i1sprintf@f 0061                    i1sprintf@s 0058  
                      ??_ctoa 00C2                        ??_main 01C6                        ??_dtoa 00D3  
                      ??_otoa 00D3                        ??_utoa 00D3                        ??_xtoa 00D4  
                      ?i1_abs 0076                        ?i1_pad 0028    __end_of_read_prec_or_width 1256  
               main@high_bits 01DF                i1vfpfcnvrt@fmt 0041                        _ADCON0 001F  
                      _ADCON1 009F                        ?_fputc 00B2                        ?_fputs 00BF  
                      _ADRESH 001E                        _ADRESL 009E              ___awdiv@dividend 00B4  
                      ?_putch 0070                        i1l3001 129B                        i1l3003 12AA  
                      i1l3005 12B2                        i1l3021 1701                        i1l3013 16EC  
                      i1l3101 1571                        i1l3007 12C6                        i1l3031 1730  
                      i1l3023 1708                        i1l3015 16F5                        i1l3111 15A2  
                      i1l3103 1579                        i1l3009 12D8                        i1l3041 1754  
                      i1l3033 1735                        i1l3025 171E                        i1l3017 16FB  
                      i1l3113 15B0                        i1l3105 1586                        i1l3201 165F  
                      i1l3051 178B                        i1l3043 1758                        i1l3035 173A  
                      i1l3027 1723                        i1l3019 16FD                        i1l3115 15B8  
                      i1l3107 1595                        i1l3131 1390                        i1l3123 137D  
                      i1l3211 1691                        i1l3203 1665                        i1l2341 130E  
                      i1l2333 12E3                        i1l3061 17D0                        i1l3045 1760  
                      i1l3053 179E                        i1l3037 1745                        i1l3029 1729  
                      i1l3117 15BE                        i1l3109 159B                        i1l3141 13D2  
                      i1l3133 13AA                        i1l3125 1383                        i1l3221 16C3  
                      i1l3213 16A0                        i1l3205 166E                        i1l2343 1340  
                      i1l2335 12E9                        i1l3055 17AC                        i1l3063 17D6  
                      i1l3047 177D                        i1l3039 174D                        i1l3119 15C4  
                      i1l3231 10E3                        i1l3151 1405                        i1l3143 13D8  
                      i1l3135 13AE                        i1l3127 1385                        i1l3223 16C9  
                      i1l3215 16AC                        i1l3207 167C                        i1l2337 12EF  
                      i1l2601 1F20                        i1l3065 17DD                        i1l3057 17B4  
                      i1l3049 1785                        i1l3081 1513                        i1l3073 1500  
                      i1l3241 1156                        i1l3233 10FB                        i1l3153 1414  
                      i1l3137 13B6                        i1l3145 13EB                        i1l3129 1389  
                      i1l3217 16B3                        i1l3225 16D4                        i1l3209 1684  
                      i1l3161 15DC                        i1l2339 12F6                        i1l2603 1F26  
                      i1l2611 1E22                        i1l2371 1BDC                        i1l3067 17E3  
                      i1l3059 17C1                        i1l3091 1540                        i1l3083 152D  
                      i1l3075 1506                        i1l3235 111E                        i1l3147 13F2  
                      i1l3155 141A                        i1l3139 13CA                        i1l3219 16BB  
                      i1l3171 1605                        i1l3163 15E2                        i1l2605 1F2B  
                      i1l2621 1E32                        i1l2613 1E23                        i1l2365 1BBF  
                      i1l2373 1B26                        i1l2701 108A                        i1l3069 17E9  
                      i1l3093 1547                        i1l3085 1530                        i1l3077 1508  
                      i1l3237 1133                        i1l3229 10E1                        i1l3149 13F8  
                      i1l3181 1628                        i1l3173 160E                        i1l3165 15E4  
                      i1l3501 0C79                        i1l2607 1F30                        i1l2631 1E49  
                      i1l2623 1E37                        i1l2615 1E27                        i1l2367 1BC4  
                      i1l2375 1B29                        i1l2711 10C0                        i1l2703 1090  
                      i1l3095 154D                        i1l3087 1534                        i1l3079 150C  
                      i1l3239 113B                        i1l3191 1647                        i1l3183 162D  
                      i1l3175 1614                        i1l3167 15E8                        i1l3159 15DC  
                      i1l3511 0CE7                        i1l3503 0C87                        i1l3431 0B28  
                      i1l2633 1E4D                        i1l2625 1E3D                        i1l2641 1E6A  
                      i1l2617 1E2C                        i1l2369 1BD4                        i1l2377 1B2B  
                      i1l2705 1095                        i1l3097 1553                        i1l3089 153E  
                      i1l2561 1B8D                        i1l2553 1B73                        i1l3193 164D  
                      i1l3185 1637                        i1l3177 161B                        i1l3169 15EF  
                      i1l3521 0D44                        i1l3513 0D02                        i1l3505 0C96  
                      i1l3433 0B30                        i1l2571 1ED7                        i1l2643 1E6F  
                      i1l2635 1E57                        i1l2627 1E40                        i1l2619 1E2E  
                      i1l2715 1B02                        i1l2379 1B33                        i1l2707 10A4  
                      i1l3099 1564                        i1l2563 1B93                        i1l2555 1B75  
                      i1l2651 1D59                        i1l3195 1650                        i1l3187 163B  
                      i1l3179 1621                        i1l3531 0D82                        i1l3507 0CB1  
                      i1l3451 0B5F                        i1l3435 0B36                        i1l2581 1EE9  
                      i1l2573 1EDC                        i1l2645 1E74                        i1l2637 1E5D  
                      i1l2629 1E47                        i1l2717 1B06                        i1l2709 10AC  
                      i1l2557 1B79                        i1l2661 1D6F                        i1l2653 1D5F  
                      i1l3197 1653                        i1l3189 1645                        i1l3541 0DFF  
                      i1l3533 0D91                        i1l3509 0CCC                        i1l3525 0D58  
                      i1l3517 0D1D                        i1l3461 0BA4                        i1l3453 0B80  
                      i1l3437 0B3A                        i1l3605 0FD4                        i1l3429 0B10  
                      i1l2591 1EFD                        i1l2583 1EEB                        i1l2575 1EDE  
                      i1l2567 1ED2                        i1l2639 1E64                        i1l2719 1B07  
                      i1l2559 1B86                        i1l2663 1D80                        i1l2655 1D62  
                      i1l2671 1D94                        i1l3199 1659                        i1l3607 0FF4  
                      i1l3535 0DAC                        i1l3527 0D66                        i1l3519 0D2E  
                      i1l3471 0BDB                        i1l3463 0BA5                        i1l3455 0B8B  
                      i1l3439 0B41                        i1l3631 1D44                        i1l2593 1F01  
                      i1l2585 1EF1                        i1l2577 1EE2                        i1l2569 1ED3  
                      i1l2665 1D86                        i1l2657 1D69                        i1l2649 1D57  
                      i1l2681 1CBA                        i1l3553 0E56                        i1l3537 0DC7  
                      i1l3529 0D74                        i1l3545 0E1A                        i1l3473 0BF2  
                      i1l3481 0C23                        i1l3465 0BAA                        i1l3457 0B8D  
                      i1l3633 1D54                        i1l3625 1D1C                        i1l2595 1F12  
                      i1l2587 1EF4                        i1l2579 1EE7                        i1l2667 1D87  
                      i1l2659 1D6B                        i1l2691 1CD7                        i1l2683 1CBC  
                      i1l2675 1CAA                        i1l3571 0ED4                        i1l3563 0E88  
                      i1l3539 0DE4                        i1l3547 0E2B                        i1l3491 0C4D  
                      i1l3483 0C2C                        i1l3475 0BFA                        i1l3467 0BC2  
                      i1l3459 0BA0                        i1l3627 1D22                        i1l3661 1B5A  
                      i1l2597 1F18                        i1l2589 1EFB                        i1l2669 1D8E  
                      i1l2685 1CC0                        i1l2677 1CB0                        i1l2693 1CDD  
                      i1l3573 0EFB                        i1l3581 0F6D                        i1l3557 0E6A  
                      i1l3549 0E42                        i1l3565 0E9E                        i1l3485 0C37  
                      i1l3477 0C11                        i1l3469 0BCA                        i1l3629 1D27  
                      i1l3663 1B5C                        i1l2599 1F19                        i1l2687 1CCA  
                      i1l2679 1CB3                        i1l3591 0FAF                        i1l3575 0F1F  
                      i1l3583 0F7E                        i1l3495 0C57                        i1l3487 0C3D  
                      i1l3671 1C80                        i1l4471 1036                        i1l3665 1B66  
                      i1l2697 1077                        i1l2689 1CD0                        i1l3593 0FB7  
                      i1l3585 0F96                        i1l3577 0F46                        i1l3569 0EAD  
                      i1l3489 0C4B                        i1l3673 1C82                        i1l4473 1042  
                      i1l4465 100F                        i1l3659 1B50                        i1l2699 107D  
                      i1l3595 0FC4                        i1l3499 0C59                        i1l3675 1C93  
                      i1l3667 1C74                        i1l4475 1047                        i1l4467 1013  
                      i1l3589 0F99                        i1l3669 1C7E                        i1l4477 105A  
                      i1l4469 101B                        i1l2991 1277                        i1l3599 0FCB  
                      i1l4479 1062                        i1l2993 127D                        i1l2985 1256  
                      i1l2995 128F                        i1l2987 125E                        i1l2989 1269  
                      i1l2999 1296                        u310_20 1EE2                        u310_21 1EE1  
                      u311_20 1EF1                        u311_21 1EF0                        u400_20 125E  
                      u320_20 1E32                        u400_21 125D                        u320_21 1E31  
                   ??i1_fputc 0074                        u312_25 1EF5                        u401_20 127D  
                      u313_20 1F01                        u321_20 1E3D                        u305_20 1B79  
                      u401_21 127C                        u313_21 1F00                        u321_21 1E3C  
                      u305_21 1B78                        u402_20 1295                        u410_20 1729  
                      u330_20 1D6F                        u402_21 1294                        u410_21 1728  
                      u330_21 1D6E                     ??i1_fputs 0023                        u314_25 1F02  
                      u322_25 1E41                        u306_25 1B80                        u403_20 12C0  
                      u315_20 1F12                        u323_20 1E4D                        u411_20 1735  
                      u403_21 12BF                        u315_21 1F11                        u323_21 1E4C  
                      u411_21 1734                        u403_25 12BC                        u315_25 1F0E  
                      u307_25 1B87                        u331_25 1D70                        u404_20 12C6  
                      u324_20 1E57                        u412_20 1745                        u420_20 150C  
                      u308_20 1B93                        u332_20 1D80                        u340_20 1CDD  
                      u404_21 12C5                        u324_21 1E56                        u412_21 1744  
                      u420_21 150B                        u308_21 1B92                        u332_21 1D7F  
                      u340_21 1CDC                        u316_25 1F1A                        u324_25 1E53  
                      u332_25 1D7C                        u317_20 1F26                        u309_20 1ED7  
                      u341_20 107D                        u413_20 17AC                        u405_20 16F3  
                      u421_20 1571                        u317_21 1F25                        u309_21 1ED6  
                      u341_21 107C                        u413_21 17AB                        u405_21 16F1  
                      u421_21 1570                        u325_25 1E5E                        u413_25 17A8  
                      u421_25 156D                        u333_25 1D88                        u318_20 1F2B  
                      u326_20 1E6A                        u262_20 1BE9                        u342_20 1090  
                      u414_20 17B4                        u406_20 16F4                        u422_20 1579  
                      u334_20 1D94                        u430_20 1389                        u318_21 1F2A  
                      u326_21 1E69                        u262_21 1BE8                        u342_21 108F  
                      u414_21 17B3                        u422_21 1578                        u334_21 1D93  
                      u430_21 1388                        u255_20 12E9                        u327_20 1E6F  
                      u319_20 1E27                        u263_20 1B33                        u343_20 10BA  
                      u415_20 17C1                        u407_20 16FB                        u423_20 1586  
                      u335_20 1CB0                        u431_20 13F2                        u255_21 12E8  
                      u327_21 1E6E                        u319_21 1E26                        u263_21 1B32  
                      u343_21 10B9                        u415_21 17C0                        u407_21 16FA  
                      u423_21 1585                        u335_21 1CAF                        u431_21 13F1  
                      u343_25 10B6                        u415_25 17BD                        u423_25 1582  
                      u256_20 12EF                        u344_20 10C0                        u416_20 17D0  
                      u408_20 1701                        u424_20 1595                        u328_20 1D5F  
                      u432_20 13F8                        u440_20 1614                        u256_21 12EE  
                      u344_21 10BF                        u416_21 17CF                        u408_21 1700  
                      u424_21 1594                        u328_21 1D5E                        u432_21 13F7  
                      u440_21 1613                        u416_25 17CC                        u424_25 1591  
                      u336_25 1CB4                        u257_20 130E                        u345_20 1B06  
                      u417_20 17D6                        u409_20 1723                        u425_20 159B  
                      u337_20 1CC0                        u433_20 1405                        u441_20 161B  
                      u257_21 130D                        u345_21 1B05                        u417_21 17D5  
                      u409_21 1722                        u425_21 159A                        u337_21 1CBF  
                      u433_21 1404                        u441_21 161A                        u329_25 1D63  
                      u433_25 1401                        u258_20 1340                        u418_20 17DD  
                      u426_20 15A2                        u338_20 1CCA                        u434_20 1414  
                      u450_20 16B3                        u442_20 1628                        u258_21 133F  
                      u418_21 17DC                        u426_21 15A1                        u338_21 1CC9  
                      u434_21 1413                        u450_21 16B2                        u442_21 1627  
                      u258_25 133C                        u338_25 1CC6                        u434_25 1410  
                      u259_20 1361                        u427_20 15AA                        u419_20 1506  
                      u435_20 141A                        u451_20 16BB                        u443_20 164D  
                      u427_21 15A9                        u419_21 1505                        u435_21 1419  
                      u451_21 16BA                        u443_21 164C                        u339_25 1CD1  
                      u428_20 15B0                        u452_20 10FB                        u444_20 167C  
                      u436_20 15E2                        u428_21 15AF                        u452_21 10FA  
                      u444_21 167B                        u436_21 15E1                        u444_25 1678  
                      u453_20 1156                        u429_20 1383                        u445_20 1684  
                      u437_20 15E8                        u453_21 1155                        u429_21 1382  
                      u445_21 1683                        u437_21 15E7                        u446_20 1691  
                      u438_20 160C                        u470_20 0B85                        u446_21 1690  
                      u438_21 160A                        u470_21 0B84                        u446_25 168D  
                      u447_20 16A0                        u439_20 160D                        u471_20 0B8B  
                      u447_21 169F                        u471_21 0B8A                        u447_25 169C  
                      u448_20 16A6                        u480_20 0D82                        u472_20 0BA4  
                      u616_20 1013                        u448_21 16A5                        u480_21 0D81  
                      u472_21 0BA3                        u616_21 1012                        u624_27 1B61  
                      u449_20 16AC                        u481_20 0D90                        u473_20 0BC2  
                      u617_20 106B                        u449_21 16AB                        u481_21 0D8F  
                      u473_21 0BC1                        u617_21 106A                        u625_27 1B6D  
                      u482_20 0EAC                        u474_20 0BF2                        u482_21 0EAB  
                      u474_21 0BF1                        u490_24 1B5A                        u483_20 0FAF  
                      u475_20 0C4B                        u491_20 1C9F                        u483_21 0FAE  
                      u475_21 0C4A                        u476_20 0C87                        u476_21 0C86  
                      u477_20 0C95                        u469_20 0B28                        u485_20 1D54  
                      u477_21 0C94                        u469_21 0B27                        u485_21 1D53  
                   ??i1_putch 0070                        u478_20 0D66                        u478_21 0D65  
                      u479_20 0D74                        u479_21 0D73                 vfpfcnvrt@done 01A4  
                      u489_20 1B57                        u489_21 1B53          i1_read_prec_or_width 10E1  
                      i1abs@a 0076                        i1_ctoa 1256                        i1_dtoa 16EC  
                      i1_otoa 1500                        i1pad@i 002D                        i1pad@p 002B  
                      i1_utoa 137D                        i1_xtoa 15DC                  vfprintf@cfmt 00D5  
                 ?i1_vfprintf 0050                        ___wmul 1B98                     ??___awdiv 00B6  
                   ??___awmod 00B6                     ??___lwdiv 00B6                     ??___lwmod 00B6  
        read_prec_or_width@ap 00B9              ___awdiv@quotient 00B8               ___awmod@divisor 00B2  
             ___awmod@counter 00B6                        pad@buf 00C9                        ctoa@fp 00BF  
                      dtoa@fp 00CF                        _strlen 1B3A                     ??_display 00B6  
           __end_ofi1___awdiv 1F35             __end_ofi1___awmod 1E79                        fputc@c 00B2  
           __end_ofi1___lwdiv 1D99                        fputs@c 00C4                        fputs@i 00C5  
                      fputs@s 00BF             __end_ofi1___lwmod 1CE2                        saved_w 007E  
                      otoa@fp 00CF                        putch@c 0070              __end_of_vfprintf 1E22  
           __end_ofi1_display 1B73                        utoa@fp 00CF                     ??_sprintf 01B7  
                      xtoa@fp 00CF       __end_of__initialization 002B         ?i1_read_prec_or_width 0076  
           __end_ofi1_sprintf 1CAA                 __end_ofi1_abs 1B13                 __end_ofi1_pad 10E1  
              __pcstackCOMMON 0070                i1vfprintf@cfmt 0056                 __end_of_fputc 08AE  
               __end_of_fputs 1C15                 __end_of_putch 07FF       i1read_prec_or_width@fmt 0076  
                   ?i1___wmul 0070                       ??i1_abs 0078                       ??i1_pad 007D  
                 i1sprintf@ap 006C                     ?i1_strlen 0070                       ??_fputc 00B6  
                     ??_fputs 00C2                       ??_putch 00B2                    __pbssBANK1 00D7  
                  __pbssBANK2 0110                    __pbssBANK3 01E7                       ?i1_ctoa 0020  
                     ?i1_dtoa 002F                       ?i1_otoa 002F                       ?i1_utoa 002F  
                     ?i1_xtoa 002F               i1vfpfcnvrt@done 0048                    __pmaintext 05A0  
                     ?___wmul 00B2                    __pintentry 0004                    ??i1___wmul 0074  
                     ?_strlen 00B2            i1___awdiv@dividend 0072                    ??i1_strlen 0072  
                  __stringtab 1800        ??i1_read_prec_or_width 0079                       i1_fputc 12E3  
                     i1_fputs 1BBF                       i1pad@fp 0028                       i1ctoa@c 0022  
                     i1_putch 07FF                       i1ctoa@l 0025                       i1ctoa@w 0027  
                     i1dtoa@d 0031                       i1dtoa@i 003A                       i1dtoa@p 0035  
                     i1dtoa@s 0039                       i1dtoa@w 0037                       i1otoa@d 0031  
                     i1otoa@i 003A                       i1otoa@p 0035                       i1otoa@t 0039  
                     i1otoa@w 0037                       i1utoa@d 0031                       i1utoa@i 0037  
                     i1utoa@p 0033                       i1utoa@w 0035                       i1xtoa@a 0036  
                     i1xtoa@c 003C                       i1xtoa@d 0031                       i1xtoa@i 003D  
                     i1xtoa@p 0037                       i1xtoa@w 0039                       i1xtoa@x 0033  
                ?i1_vfpfcnvrt 003F            i1___awdiv@quotient 0076                       ___awdiv 1F35  
                     ___awmod 1E79                       ___lwdiv 1D99                       ___lwmod 1CE2  
                   ?_vfprintf 01AC                       __ptext1 1C42                       __ptext2 1DDD  
                     __ptext3 002F                       __ptext4 09DF                       __ptext5 1433  
                     __ptext6 1CE2                       __ptext7 1D99                       __ptext8 11D6  
                     __ptext9 1B98                       _display 1C15             i1___lwdiv@divisor 0070  
       read_prec_or_width@fmt 00B8             i1___lwdiv@counter 0076              ___awmod@dividend 00B4  
                     _sprintf 1C42                       clrloop0 07F7          end_of_initialization 002B  
                     fputc@fp 00B4                       fputs@fp 00C0            _read_prec_or_width 11D6  
                ??i1_vfprintf 007E             __end_of_vfpfcnvrt 05A0           ?_read_prec_or_width 00B8  
            vfpfcnvrt@convarg 01A6                    ??_vfprintf 00D5         i1___wmul@multiplicand 0072  
                     strlen@a 00B4                       strlen@s 00B2                     i1___awdiv 1ED2  
                   i1___awmod 1E22          ??_read_prec_or_width 00BA                     i1___lwdiv 1D57  
                   i1___lwmod 1CAA            __end_ofi1_vfprintf 1D57                     i1_display 1B50  
              __end_ofi1_ctoa 12E3                __end_ofi1_dtoa 1800                __end_ofi1_otoa 15DC  
              __end_ofi1_utoa 1433                __end_ofi1_xtoa 16EC                     i1_sprintf 1C74  
                i1vfpfcnvrt@c 004D                   vfpfcnvrt@ap 019E                   vfpfcnvrt@cp 01AA  
                 vfpfcnvrt@fp 019B                __end_of___wmul 1BBF                     i1fputc@fp 0072  
                   i1fputs@fp 0021             i1___lwmod@divisor 0070             i1___lwmod@counter 0074  
              __end_of_strlen 1B50           start_initialization 0015                   __end_of_ISR 1077  
                 __end_of_abs 1B26                  i1vfprintf@ap 0054                   __end_of_pad 2000  
                i1vfprintf@fp 0050                    ?i1___awdiv 0070                    ?i1___awmod 0070  
       i1read_prec_or_width@c 007B         i1read_prec_or_width@n 007C                    ?i1___lwdiv 0070  
                  ?i1___lwmod 0070                     i1strlen@a 0072                     i1strlen@s 0070  
                  ?i1_display 0070                      ??i1_ctoa 0023                      ??i1_dtoa 007E  
                    ??i1_otoa 0033                      ??i1_utoa 007E                      ??i1_xtoa 007E  
                i1sprintf@fmt 005A                   vfprintf@fmt 01AE                    ?i1_sprintf 0058  
                    ??___wmul 00B6            i1___awmod@dividend 0072                      ??_strlen 00B4  
                   ___latbits 0002                 __pcstackBANK0 0020                 __pcstackBANK1 00A0  
               __pcstackBANK3 0190                      ?i1_fputc 0070                      ?i1_fputs 0020  
                    ?i1_putch 0070            i1vfpfcnvrt@convarg 0049              ___lwdiv@dividend 00B4  
                    ?___awdiv 00B2                      ?___awmod 00B2                      ?___lwdiv 00B2  
                    ?___lwmod 00B2             i1___awdiv@divisor 0070             i1___awdiv@counter 0074  
                   __pstrings 1800                      ?_display 00B2                   ??i1___awdiv 0074  
                 ??i1___awmod 0074              ___lwdiv@quotient 00B7                   ??i1___lwdiv 0074  
                 ??i1___lwmod 0074                      ?_sprintf 01B1                   ??i1_display 0074  
           interrupt_function 0004                ___wmul@product 00B6                     clear_ram0 07F6  
                    _GO_nDONE 00FA                   ??i1_sprintf 005E                     _vfpfcnvrt 002F  
                 __stringbase 180F             ___wmul@multiplier 00B2                      i1___wmul 1B73  
                   display@DC 00B4                     display@RS 00B2                      i1pad@buf 002A  
                    i1ctoa@fp 0020                      i1dtoa@fp 002F                      i1_strlen 1B26  
                  vfpfcnvrt@c 01A5                      i1fputc@c 0070                      i1fputs@c 0025  
                    i1fputs@i 0026                      i1fputs@s 0020                      i1otoa@fp 002F  
                    i1utoa@fp 002F                      i1xtoa@fp 002F                    vfprintf@ap 01B0  
                  vfprintf@fp 01AC             i1___awmod@divisor 0070             i1___awmod@counter 0074  
                  ?_vfpfcnvrt 019B            __end_of__stringtab 1810                    sprintf@fmt 01B3  
                    _dtoa$616 0190               ___lwdiv@divisor 00B2               ___lwdiv@counter 00B6  
                    __ptext10 0705                      __ptext11 08AE                      __ptext20 07FE  
                    __ptext12 1F9A                      __ptext21 1C15                      __ptext13 1B3A  
                    __ptext30 10E1                      __ptext22 100F                      __ptext14 1BEA  
                    __ptext31 1B73                      __ptext23 1C74                      __ptext15 1B13  
                    __ptext40 1256                      __ptext32 1500                      __ptext24 1D1C  
                    __ptext16 1E79                      __ptext41 12E3                      __ptext33 16EC  
                    __ptext25 0B10                      __ptext17 1F35                      __ptext42 07FF  
                    __ptext34 1077                      __ptext26 15DC                      __ptext18 115B  
                    __ptext43 1B50                      __ptext35 1B26                      __ptext27 137D  
                    __ptext19 080E                      __ptext36 1BBF                      __ptext28 1CAA  
                    __ptext37 1B02                      __ptext29 1D57                      __ptext38 1E22  
                    __ptext39 1ED2            i1___lwdiv@dividend 0072                      _xtoa$641 0191  
                    main@i_70 01E5                      _vfprintf 1DDD                      main@bits 01E1  
          i1___lwdiv@quotient 0074                 xtoa@d_nonzero 0195                      intlevel1 0000  
                   sprintf@ap 01C5              ___lwmod@dividend 00B4                     stringcode 180A  
               ??i1_vfpfcnvrt 0044                   ??_vfpfcnvrt 01A0                    _OPTION_REG 0081  
                    sprintf@f 01BA                      sprintf@s 01B1               ___lwmod@divisor 00B2  
             ___lwmod@counter 00B6                      stringdir 180A                      stringtab 1800  
